   1              		.syntax unified
   2              		.cpu cortex-m4
   3              		.eabi_attribute 27, 3
   4              		.eabi_attribute 28, 1
   5              		.fpu fpv4-sp-d16
   6              		.eabi_attribute 20, 1
   7              		.eabi_attribute 21, 1
   8              		.eabi_attribute 23, 3
   9              		.eabi_attribute 24, 1
  10              		.eabi_attribute 25, 1
  11              		.eabi_attribute 26, 1
  12              		.eabi_attribute 30, 6
  13              		.eabi_attribute 34, 1
  14              		.eabi_attribute 18, 4
  15              		.thumb
  16              		.file	"Application.c"
  17              		.text
  18              	.Ltext0:
  19              		.cfi_sections	.debug_frame
  20              		.section	.text.APP_AdoptToHardware,"ax",%progbits
  21              		.align	2
  22              		.thumb
  23              		.thumb_func
  25              	APP_AdoptToHardware:
  26              	.LFB0:
  27              		.file 1 "C:/INTRO_HS18/IntroAronAlex/TEAM_Common/Application.c"
   1:C:/INTRO_HS18/IntroAronAlex/TEAM_Common\Application.c **** /**
   2:C:/INTRO_HS18/IntroAronAlex/TEAM_Common\Application.c ****  * \file
   3:C:/INTRO_HS18/IntroAronAlex/TEAM_Common\Application.c ****  * \brief Main application file
   4:C:/INTRO_HS18/IntroAronAlex/TEAM_Common\Application.c ****  * \author Erich Styger, erich.styger@hslu.ch
   5:C:/INTRO_HS18/IntroAronAlex/TEAM_Common\Application.c ****  *
   6:C:/INTRO_HS18/IntroAronAlex/TEAM_Common\Application.c ****  * This provides the main application entry point.
   7:C:/INTRO_HS18/IntroAronAlex/TEAM_Common\Application.c ****  */
   8:C:/INTRO_HS18/IntroAronAlex/TEAM_Common\Application.c **** 
   9:C:/INTRO_HS18/IntroAronAlex/TEAM_Common\Application.c **** #include "Platform.h"
  10:C:/INTRO_HS18/IntroAronAlex/TEAM_Common\Application.c **** #include "Application.h"
  11:C:/INTRO_HS18/IntroAronAlex/TEAM_Common\Application.c **** #include "Event.h"
  12:C:/INTRO_HS18/IntroAronAlex/TEAM_Common\Application.c **** #include "LED.h"
  13:C:/INTRO_HS18/IntroAronAlex/TEAM_Common\Application.c **** #include "WAIT1.h"
  14:C:/INTRO_HS18/IntroAronAlex/TEAM_Common\Application.c **** #include "CS1.h"
  15:C:/INTRO_HS18/IntroAronAlex/TEAM_Common\Application.c **** #include "KeyDebounce.h"
  16:C:/INTRO_HS18/IntroAronAlex/TEAM_Common\Application.c **** #include "CLS1.h"
  17:C:/INTRO_HS18/IntroAronAlex/TEAM_Common\Application.c **** #include "KIN1.h"
  18:C:/INTRO_HS18/IntroAronAlex/TEAM_Common\Application.c **** #if PL_CONFIG_HAS_KEYS
  19:C:/INTRO_HS18/IntroAronAlex/TEAM_Common\Application.c ****   #include "Keys.h"
  20:C:/INTRO_HS18/IntroAronAlex/TEAM_Common\Application.c **** #endif
  21:C:/INTRO_HS18/IntroAronAlex/TEAM_Common\Application.c **** #if PL_CONFIG_HAS_SHELL
  22:C:/INTRO_HS18/IntroAronAlex/TEAM_Common\Application.c ****   #include "CLS1.h"
  23:C:/INTRO_HS18/IntroAronAlex/TEAM_Common\Application.c ****   #include "Shell.h"
  24:C:/INTRO_HS18/IntroAronAlex/TEAM_Common\Application.c ****   #include "RTT1.h"
  25:C:/INTRO_HS18/IntroAronAlex/TEAM_Common\Application.c **** #endif
  26:C:/INTRO_HS18/IntroAronAlex/TEAM_Common\Application.c **** #if PL_CONFIG_HAS_BUZZER
  27:C:/INTRO_HS18/IntroAronAlex/TEAM_Common\Application.c ****   #include "Buzzer.h"
  28:C:/INTRO_HS18/IntroAronAlex/TEAM_Common\Application.c **** #endif
  29:C:/INTRO_HS18/IntroAronAlex/TEAM_Common\Application.c **** #if PL_CONFIG_HAS_RTOS
  30:C:/INTRO_HS18/IntroAronAlex/TEAM_Common\Application.c ****   #include "FRTOS1.h"
  31:C:/INTRO_HS18/IntroAronAlex/TEAM_Common\Application.c ****   #include "RTOS.h"
  32:C:/INTRO_HS18/IntroAronAlex/TEAM_Common\Application.c **** #endif
  33:C:/INTRO_HS18/IntroAronAlex/TEAM_Common\Application.c **** #if PL_CONFIG_HAS_QUADRATURE
  34:C:/INTRO_HS18/IntroAronAlex/TEAM_Common\Application.c ****   #include "Q4CLeft.h"
  35:C:/INTRO_HS18/IntroAronAlex/TEAM_Common\Application.c ****   #include "Q4CRight.h"
  36:C:/INTRO_HS18/IntroAronAlex/TEAM_Common\Application.c **** #endif
  37:C:/INTRO_HS18/IntroAronAlex/TEAM_Common\Application.c **** #if PL_CONFIG_HAS_MOTOR
  38:C:/INTRO_HS18/IntroAronAlex/TEAM_Common\Application.c ****   #include "Motor.h"
  39:C:/INTRO_HS18/IntroAronAlex/TEAM_Common\Application.c **** #endif
  40:C:/INTRO_HS18/IntroAronAlex/TEAM_Common\Application.c **** #if PL_CONFIG_BOARD_IS_ROBO_V2
  41:C:/INTRO_HS18/IntroAronAlex/TEAM_Common\Application.c ****   #include "PORT_PDD.h"
  42:C:/INTRO_HS18/IntroAronAlex/TEAM_Common\Application.c **** #endif
  43:C:/INTRO_HS18/IntroAronAlex/TEAM_Common\Application.c **** #if PL_CONFIG_HAS_LINE_FOLLOW
  44:C:/INTRO_HS18/IntroAronAlex/TEAM_Common\Application.c ****   #include "LineFollow.h"
  45:C:/INTRO_HS18/IntroAronAlex/TEAM_Common\Application.c **** #endif
  46:C:/INTRO_HS18/IntroAronAlex/TEAM_Common\Application.c **** #if PL_CONFIG_HAS_LCD_MENU
  47:C:/INTRO_HS18/IntroAronAlex/TEAM_Common\Application.c ****   #include "LCD.h"
  48:C:/INTRO_HS18/IntroAronAlex/TEAM_Common\Application.c **** #endif
  49:C:/INTRO_HS18/IntroAronAlex/TEAM_Common\Application.c **** #if PL_CONFIG_HAS_SNAKE_GAME
  50:C:/INTRO_HS18/IntroAronAlex/TEAM_Common\Application.c ****   #include "Snake.h"
  51:C:/INTRO_HS18/IntroAronAlex/TEAM_Common\Application.c **** #endif
  52:C:/INTRO_HS18/IntroAronAlex/TEAM_Common\Application.c **** #if PL_CONFIG_HAS_REFLECTANCE
  53:C:/INTRO_HS18/IntroAronAlex/TEAM_Common\Application.c ****   #include "Reflectance.h"
  54:C:/INTRO_HS18/IntroAronAlex/TEAM_Common\Application.c **** #endif
  55:C:/INTRO_HS18/IntroAronAlex/TEAM_Common\Application.c **** #include "Sumo.h"
  56:C:/INTRO_HS18/IntroAronAlex/TEAM_Common\Application.c **** 
  57:C:/INTRO_HS18/IntroAronAlex/TEAM_Common\Application.c **** #if PL_CONFIG_HAS_EVENTS
  58:C:/INTRO_HS18/IntroAronAlex/TEAM_Common\Application.c **** 
  59:C:/INTRO_HS18/IntroAronAlex/TEAM_Common\Application.c **** static void BtnMsg(int btn, const char *msg) {
  60:C:/INTRO_HS18/IntroAronAlex/TEAM_Common\Application.c **** #if PL_CONFIG_HAS_SHELL
  61:C:/INTRO_HS18/IntroAronAlex/TEAM_Common\Application.c ****   #if PL_CONFIG_HAS_SHELL_QUEUE
  62:C:/INTRO_HS18/IntroAronAlex/TEAM_Common\Application.c ****     uint8_t buf[48];
  63:C:/INTRO_HS18/IntroAronAlex/TEAM_Common\Application.c **** 
  64:C:/INTRO_HS18/IntroAronAlex/TEAM_Common\Application.c ****     UTIL1_strcpy(buf, sizeof(buf), "Button pressed: ");
  65:C:/INTRO_HS18/IntroAronAlex/TEAM_Common\Application.c ****     UTIL1_strcat(buf, sizeof(buf), msg);
  66:C:/INTRO_HS18/IntroAronAlex/TEAM_Common\Application.c ****     UTIL1_strcat(buf, sizeof(buf), ": ");
  67:C:/INTRO_HS18/IntroAronAlex/TEAM_Common\Application.c ****     UTIL1_strcatNum32s(buf, sizeof(buf), btn);
  68:C:/INTRO_HS18/IntroAronAlex/TEAM_Common\Application.c ****     UTIL1_strcat(buf, sizeof(buf), "\r\n");
  69:C:/INTRO_HS18/IntroAronAlex/TEAM_Common\Application.c ****     SHELL_SendString(buf);
  70:C:/INTRO_HS18/IntroAronAlex/TEAM_Common\Application.c ****   #else
  71:C:/INTRO_HS18/IntroAronAlex/TEAM_Common\Application.c ****     CLS1_SendStr("Button pressed: ", CLS1_GetStdio()->stdOut);
  72:C:/INTRO_HS18/IntroAronAlex/TEAM_Common\Application.c ****     CLS1_SendStr(msg, CLS1_GetStdio()->stdOut);
  73:C:/INTRO_HS18/IntroAronAlex/TEAM_Common\Application.c ****     CLS1_SendStr(": ", CLS1_GetStdio()->stdOut);
  74:C:/INTRO_HS18/IntroAronAlex/TEAM_Common\Application.c ****     CLS1_SendNum32s(btn, CLS1_GetStdio()->stdOut);
  75:C:/INTRO_HS18/IntroAronAlex/TEAM_Common\Application.c ****     CLS1_SendStr("\r\n", CLS1_GetStdio()->stdOut);
  76:C:/INTRO_HS18/IntroAronAlex/TEAM_Common\Application.c ****   #endif
  77:C:/INTRO_HS18/IntroAronAlex/TEAM_Common\Application.c **** #endif
  78:C:/INTRO_HS18/IntroAronAlex/TEAM_Common\Application.c **** }
  79:C:/INTRO_HS18/IntroAronAlex/TEAM_Common\Application.c **** 
  80:C:/INTRO_HS18/IntroAronAlex/TEAM_Common\Application.c **** void APP_EventHandler(EVNT_Handle event) {
  81:C:/INTRO_HS18/IntroAronAlex/TEAM_Common\Application.c ****   /*! \todo handle events */
  82:C:/INTRO_HS18/IntroAronAlex/TEAM_Common\Application.c ****   switch(event) {
  83:C:/INTRO_HS18/IntroAronAlex/TEAM_Common\Application.c ****   case EVNT_STARTUP:
  84:C:/INTRO_HS18/IntroAronAlex/TEAM_Common\Application.c ****     {
  85:C:/INTRO_HS18/IntroAronAlex/TEAM_Common\Application.c ****       int i;
  86:C:/INTRO_HS18/IntroAronAlex/TEAM_Common\Application.c ****       for (i=0;i<5;i++) {
  87:C:/INTRO_HS18/IntroAronAlex/TEAM_Common\Application.c ****         LED1_Neg();
  88:C:/INTRO_HS18/IntroAronAlex/TEAM_Common\Application.c ****         WAIT1_Waitms(50);
  89:C:/INTRO_HS18/IntroAronAlex/TEAM_Common\Application.c ****       }
  90:C:/INTRO_HS18/IntroAronAlex/TEAM_Common\Application.c ****       LED1_Off();
  91:C:/INTRO_HS18/IntroAronAlex/TEAM_Common\Application.c ****     }
  92:C:/INTRO_HS18/IntroAronAlex/TEAM_Common\Application.c ****   case EVNT_LED_HEARTBEAT:
  93:C:/INTRO_HS18/IntroAronAlex/TEAM_Common\Application.c ****     LED2_Neg();
  94:C:/INTRO_HS18/IntroAronAlex/TEAM_Common\Application.c ****     break;
  95:C:/INTRO_HS18/IntroAronAlex/TEAM_Common\Application.c **** #if PL_CONFIG_NOF_KEYS>=1
  96:C:/INTRO_HS18/IntroAronAlex/TEAM_Common\Application.c ****   case EVNT_SW1_PRESSED:
  97:C:/INTRO_HS18/IntroAronAlex/TEAM_Common\Application.c ****     BtnMsg(1, "pressed");
  98:C:/INTRO_HS18/IntroAronAlex/TEAM_Common\Application.c ****      break;
  99:C:/INTRO_HS18/IntroAronAlex/TEAM_Common\Application.c **** #endif
 100:C:/INTRO_HS18/IntroAronAlex/TEAM_Common\Application.c ****     default:
 101:C:/INTRO_HS18/IntroAronAlex/TEAM_Common\Application.c ****       break;
 102:C:/INTRO_HS18/IntroAronAlex/TEAM_Common\Application.c ****    } /* switch */
 103:C:/INTRO_HS18/IntroAronAlex/TEAM_Common\Application.c **** }
 104:C:/INTRO_HS18/IntroAronAlex/TEAM_Common\Application.c **** #endif /* PL_CONFIG_HAS_EVENTS */
 105:C:/INTRO_HS18/IntroAronAlex/TEAM_Common\Application.c **** 
 106:C:/INTRO_HS18/IntroAronAlex/TEAM_Common\Application.c **** #if PL_CONFIG_HAS_MOTOR /* currently only used for robots */
 107:C:/INTRO_HS18/IntroAronAlex/TEAM_Common\Application.c **** static const KIN1_UID RoboIDs[] = {
 108:C:/INTRO_HS18/IntroAronAlex/TEAM_Common\Application.c ****   /* 0: L20, V2 */ {{0x00,0x03,0x00,0x00,0x67,0xCD,0xB7,0x21,0x4E,0x45,0x32,0x15,0x30,0x02,0x00,0x1
 109:C:/INTRO_HS18/IntroAronAlex/TEAM_Common\Application.c ****   /* 1: L21, V2 */ {{0x00,0x05,0x00,0x00,0x4E,0x45,0xB7,0x21,0x4E,0x45,0x32,0x15,0x30,0x02,0x00,0x1
 110:C:/INTRO_HS18/IntroAronAlex/TEAM_Common\Application.c ****   /* 2: L4, V1  */ {{0x00,0x0B,0xFF,0xFF,0x4E,0x45,0xFF,0xFF,0x4E,0x45,0x27,0x99,0x10,0x02,0x00,0x2
 111:C:/INTRO_HS18/IntroAronAlex/TEAM_Common\Application.c ****   /* 3: L23, V2 */ {{0x00,0x0A,0x00,0x00,0x67,0xCD,0xB8,0x21,0x4E,0x45,0x32,0x15,0x30,0x02,0x00,0x1
 112:C:/INTRO_HS18/IntroAronAlex/TEAM_Common\Application.c ****   /* 4: L11, V2 */ {{0x00,0x19,0x00,0x00,0x67,0xCD,0xB9,0x11,0x4E,0x45,0x32,0x15,0x30,0x02,0x00,0x1
 113:C:/INTRO_HS18/IntroAronAlex/TEAM_Common\Application.c ****   /* 5: L5, V2 */  {{0x00,0x38,0x00,0x00,0x67,0xCD,0xB5,0x41,0x4E,0x45,0x32,0x15,0x30,0x02,0x00,0x1
 114:C:/INTRO_HS18/IntroAronAlex/TEAM_Common\Application.c ****   /* 6: L3, V1 */  {{0x00,0x33,0xFF,0xFF,0xFF,0xFF,0xFF,0xFF,0x4E,0x45,0x27,0x99,0x10,0x02,0x00,0x0
 115:C:/INTRO_HS18/IntroAronAlex/TEAM_Common\Application.c ****   /* 7: L1, V1 */  {{0x00,0x19,0xFF,0xFF,0xFF,0xFF,0xFF,0xFF,0x4E,0x45,0x27,0x99,0x10,0x02,0x00,0x2
 116:C:/INTRO_HS18/IntroAronAlex/TEAM_Common\Application.c **** };
 117:C:/INTRO_HS18/IntroAronAlex/TEAM_Common\Application.c **** #endif
 118:C:/INTRO_HS18/IntroAronAlex/TEAM_Common\Application.c **** 
 119:C:/INTRO_HS18/IntroAronAlex/TEAM_Common\Application.c **** static void APP_AdoptToHardware(void) {
  28              		.loc 1 119 0
  29              		.cfi_startproc
  30              		@ args = 0, pretend = 0, frame = 24
  31              		@ frame_needed = 1, uses_anonymous_args = 0
  32 0000 80B5     		push	{r7, lr}
  33              		.cfi_def_cfa_offset 8
  34              		.cfi_offset 7, -8
  35              		.cfi_offset 14, -4
  36 0002 86B0     		sub	sp, sp, #24
  37              		.cfi_def_cfa_offset 32
  38 0004 00AF     		add	r7, sp, #0
  39              		.cfi_def_cfa_register 7
 120:C:/INTRO_HS18/IntroAronAlex/TEAM_Common\Application.c ****   KIN1_UID id;
 121:C:/INTRO_HS18/IntroAronAlex/TEAM_Common\Application.c ****   uint8_t res;
 122:C:/INTRO_HS18/IntroAronAlex/TEAM_Common\Application.c **** 
 123:C:/INTRO_HS18/IntroAronAlex/TEAM_Common\Application.c ****   res = KIN1_UIDGet(&id);
  40              		.loc 1 123 0
  41 0006 3B1D     		adds	r3, r7, #4
  42 0008 1846     		mov	r0, r3
  43 000a FFF7FEFF 		bl	KIN1_UIDGet
  44 000e 0346     		mov	r3, r0
  45 0010 FB75     		strb	r3, [r7, #23]
 124:C:/INTRO_HS18/IntroAronAlex/TEAM_Common\Application.c ****   if (res!=ERR_OK) {
  46              		.loc 1 124 0
  47 0012 FB7D     		ldrb	r3, [r7, #23]	@ zero_extendqisi2
  48 0014 002B     		cmp	r3, #0
  49 0016 00D0     		beq	.L1
  50              	.L3:
 125:C:/INTRO_HS18/IntroAronAlex/TEAM_Common\Application.c ****     for(;;); /* error */
  51              		.loc 1 125 0 discriminator 1
  52 0018 FEE7     		b	.L3
  53              	.L1:
 126:C:/INTRO_HS18/IntroAronAlex/TEAM_Common\Application.c ****   }
 127:C:/INTRO_HS18/IntroAronAlex/TEAM_Common\Application.c **** #if PL_CONFIG_HAS_MOTOR
 128:C:/INTRO_HS18/IntroAronAlex/TEAM_Common\Application.c ****   if (KIN1_UIDSame(&id, &RoboIDs[0])) { /* L20 */
 129:C:/INTRO_HS18/IntroAronAlex/TEAM_Common\Application.c **** #if PL_CONFIG_HAS_QUADRATURE
 130:C:/INTRO_HS18/IntroAronAlex/TEAM_Common\Application.c ****     (void)Q4CRight_SwapPins(TRUE);
 131:C:/INTRO_HS18/IntroAronAlex/TEAM_Common\Application.c **** #endif
 132:C:/INTRO_HS18/IntroAronAlex/TEAM_Common\Application.c ****     MOT_Invert(MOT_GetMotorHandle(MOT_MOTOR_LEFT), TRUE); /* invert left motor */
 133:C:/INTRO_HS18/IntroAronAlex/TEAM_Common\Application.c ****     MOT_Invert(MOT_GetMotorHandle(MOT_MOTOR_RIGHT), TRUE); /* invert left motor */
 134:C:/INTRO_HS18/IntroAronAlex/TEAM_Common\Application.c ****   } else if (KIN1_UIDSame(&id, &RoboIDs[1])) { /* V2 L21 */
 135:C:/INTRO_HS18/IntroAronAlex/TEAM_Common\Application.c ****     /* no change needed */
 136:C:/INTRO_HS18/IntroAronAlex/TEAM_Common\Application.c ****   } else if (KIN1_UIDSame(&id, &RoboIDs[2])) { /* V1 L4 */
 137:C:/INTRO_HS18/IntroAronAlex/TEAM_Common\Application.c ****     MOT_Invert(MOT_GetMotorHandle(MOT_MOTOR_LEFT), TRUE); /* revert left motor */
 138:C:/INTRO_HS18/IntroAronAlex/TEAM_Common\Application.c **** #if PL_CONFIG_HAS_QUADRATURE
 139:C:/INTRO_HS18/IntroAronAlex/TEAM_Common\Application.c ****     (void)Q4CLeft_SwapPins(TRUE);
 140:C:/INTRO_HS18/IntroAronAlex/TEAM_Common\Application.c ****     (void)Q4CRight_SwapPins(TRUE);
 141:C:/INTRO_HS18/IntroAronAlex/TEAM_Common\Application.c **** #endif
 142:C:/INTRO_HS18/IntroAronAlex/TEAM_Common\Application.c ****   } else if (KIN1_UIDSame(&id, &RoboIDs[3])) { /* L23 */
 143:C:/INTRO_HS18/IntroAronAlex/TEAM_Common\Application.c **** #if PL_CONFIG_HAS_QUADRATURE
 144:C:/INTRO_HS18/IntroAronAlex/TEAM_Common\Application.c ****     (void)Q4CRight_SwapPins(TRUE);
 145:C:/INTRO_HS18/IntroAronAlex/TEAM_Common\Application.c **** #endif
 146:C:/INTRO_HS18/IntroAronAlex/TEAM_Common\Application.c ****     MOT_Invert(MOT_GetMotorHandle(MOT_MOTOR_LEFT), TRUE); /* invert left motor */
 147:C:/INTRO_HS18/IntroAronAlex/TEAM_Common\Application.c ****     MOT_Invert(MOT_GetMotorHandle(MOT_MOTOR_RIGHT), TRUE); /* invert left motor */
 148:C:/INTRO_HS18/IntroAronAlex/TEAM_Common\Application.c ****   } else if (KIN1_UIDSame(&id, &RoboIDs[4])) { /* L11 */
 149:C:/INTRO_HS18/IntroAronAlex/TEAM_Common\Application.c **** #if PL_CONFIG_HAS_QUADRATURE
 150:C:/INTRO_HS18/IntroAronAlex/TEAM_Common\Application.c ****     (void)Q4CRight_SwapPins(TRUE);
 151:C:/INTRO_HS18/IntroAronAlex/TEAM_Common\Application.c **** #endif
 152:C:/INTRO_HS18/IntroAronAlex/TEAM_Common\Application.c ****   } else if (KIN1_UIDSame(&id, &RoboIDs[5])) { /* L5, V2 */
 153:C:/INTRO_HS18/IntroAronAlex/TEAM_Common\Application.c ****     MOT_Invert(MOT_GetMotorHandle(MOT_MOTOR_RIGHT), TRUE); /* invert right motor */
 154:C:/INTRO_HS18/IntroAronAlex/TEAM_Common\Application.c ****     (void)Q4CRight_SwapPins(TRUE);
 155:C:/INTRO_HS18/IntroAronAlex/TEAM_Common\Application.c ****   } else if (KIN1_UIDSame(&id, &RoboIDs[6])) { /* L3, V1 */
 156:C:/INTRO_HS18/IntroAronAlex/TEAM_Common\Application.c ****     MOT_Invert(MOT_GetMotorHandle(MOT_MOTOR_LEFT), TRUE); /* invert right motor */
 157:C:/INTRO_HS18/IntroAronAlex/TEAM_Common\Application.c **** #if PL_CONFIG_HAS_QUADRATURE
 158:C:/INTRO_HS18/IntroAronAlex/TEAM_Common\Application.c ****     (void)Q4CLeft_SwapPins(TRUE);
 159:C:/INTRO_HS18/IntroAronAlex/TEAM_Common\Application.c ****     (void)Q4CRight_SwapPins(TRUE);
 160:C:/INTRO_HS18/IntroAronAlex/TEAM_Common\Application.c **** #endif
 161:C:/INTRO_HS18/IntroAronAlex/TEAM_Common\Application.c ****   } else if (KIN1_UIDSame(&id, &RoboIDs[7])) { /* L1, V1 */
 162:C:/INTRO_HS18/IntroAronAlex/TEAM_Common\Application.c ****     MOT_Invert(MOT_GetMotorHandle(MOT_MOTOR_LEFT), TRUE); /* invert right motor */
 163:C:/INTRO_HS18/IntroAronAlex/TEAM_Common\Application.c **** #if PL_CONFIG_HAS_QUADRATURE
 164:C:/INTRO_HS18/IntroAronAlex/TEAM_Common\Application.c ****     (void)Q4CLeft_SwapPins(TRUE);
 165:C:/INTRO_HS18/IntroAronAlex/TEAM_Common\Application.c ****     (void)Q4CRight_SwapPins(TRUE);
 166:C:/INTRO_HS18/IntroAronAlex/TEAM_Common\Application.c **** #endif
 167:C:/INTRO_HS18/IntroAronAlex/TEAM_Common\Application.c ****   }
 168:C:/INTRO_HS18/IntroAronAlex/TEAM_Common\Application.c **** #endif
 169:C:/INTRO_HS18/IntroAronAlex/TEAM_Common\Application.c **** #if PL_CONFIG_HAS_QUADRATURE && PL_CONFIG_BOARD_IS_ROBO_V2
 170:C:/INTRO_HS18/IntroAronAlex/TEAM_Common\Application.c ****   /* pull-ups for Quadrature Encoder Pins */
 171:C:/INTRO_HS18/IntroAronAlex/TEAM_Common\Application.c ****   PORT_PDD_SetPinPullSelect(PORTC_BASE_PTR, 10, PORT_PDD_PULL_UP);
 172:C:/INTRO_HS18/IntroAronAlex/TEAM_Common\Application.c ****   PORT_PDD_SetPinPullEnable(PORTC_BASE_PTR, 10, PORT_PDD_PULL_ENABLE);
 173:C:/INTRO_HS18/IntroAronAlex/TEAM_Common\Application.c ****   PORT_PDD_SetPinPullSelect(PORTC_BASE_PTR, 11, PORT_PDD_PULL_UP);
 174:C:/INTRO_HS18/IntroAronAlex/TEAM_Common\Application.c ****   PORT_PDD_SetPinPullEnable(PORTC_BASE_PTR, 11, PORT_PDD_PULL_ENABLE);
 175:C:/INTRO_HS18/IntroAronAlex/TEAM_Common\Application.c ****   PORT_PDD_SetPinPullSelect(PORTC_BASE_PTR, 16, PORT_PDD_PULL_UP);
 176:C:/INTRO_HS18/IntroAronAlex/TEAM_Common\Application.c ****   PORT_PDD_SetPinPullEnable(PORTC_BASE_PTR, 16, PORT_PDD_PULL_ENABLE);
 177:C:/INTRO_HS18/IntroAronAlex/TEAM_Common\Application.c ****   PORT_PDD_SetPinPullSelect(PORTC_BASE_PTR, 17, PORT_PDD_PULL_UP);
 178:C:/INTRO_HS18/IntroAronAlex/TEAM_Common\Application.c ****   PORT_PDD_SetPinPullEnable(PORTC_BASE_PTR, 17, PORT_PDD_PULL_ENABLE);
 179:C:/INTRO_HS18/IntroAronAlex/TEAM_Common\Application.c **** #endif
 180:C:/INTRO_HS18/IntroAronAlex/TEAM_Common\Application.c **** }
  54              		.loc 1 180 0
  55 001a 1837     		adds	r7, r7, #24
  56 001c BD46     		mov	sp, r7
  57              		@ sp needed
  58 001e 80BD     		pop	{r7, pc}
  59              		.cfi_endproc
  60              	.LFE0:
  62              		.section	.text.APP_Start,"ax",%progbits
  63              		.align	2
  64              		.global	APP_Start
  65              		.thumb
  66              		.thumb_func
  68              	APP_Start:
  69              	.LFB1:
 181:C:/INTRO_HS18/IntroAronAlex/TEAM_Common\Application.c **** 
 182:C:/INTRO_HS18/IntroAronAlex/TEAM_Common\Application.c **** void APP_Start(void) {
  70              		.loc 1 182 0
  71              		.cfi_startproc
  72              		@ args = 0, pretend = 0, frame = 0
  73              		@ frame_needed = 1, uses_anonymous_args = 0
  74 0000 80B5     		push	{r7, lr}
  75              		.cfi_def_cfa_offset 8
  76              		.cfi_offset 7, -8
  77              		.cfi_offset 14, -4
  78 0002 00AF     		add	r7, sp, #0
  79              		.cfi_def_cfa_register 7
 183:C:/INTRO_HS18/IntroAronAlex/TEAM_Common\Application.c ****   PL_Init();
  80              		.loc 1 183 0
  81 0004 FFF7FEFF 		bl	PL_Init
 184:C:/INTRO_HS18/IntroAronAlex/TEAM_Common\Application.c ****   APP_AdoptToHardware();
  82              		.loc 1 184 0
  83 0008 FFF7FEFF 		bl	APP_AdoptToHardware
 185:C:/INTRO_HS18/IntroAronAlex/TEAM_Common\Application.c ****   __asm volatile("cpsie i"); /* enable interrupts */
  84              		.loc 1 185 0
  85              	@ 185 "C:/INTRO_HS18/IntroAronAlex/TEAM_Common/Application.c" 1
  86 000c 62B6     		cpsie i
  87              	@ 0 "" 2
  88              		.thumb
  89              	.L5:
 186:C:/INTRO_HS18/IntroAronAlex/TEAM_Common\Application.c ****   for(;;) {
 187:C:/INTRO_HS18/IntroAronAlex/TEAM_Common\Application.c ****   }
  90              		.loc 1 187 0 discriminator 1
  91 000e FEE7     		b	.L5
  92              		.cfi_endproc
  93              	.LFE1:
  95              		.text
  96              	.Letext0:
  97              		.file 2 "c:\\freescale\\kds_v3\\toolchain\\arm-none-eabi\\include\\machine\\_default_types.h"
  98              		.file 3 "c:\\freescale\\kds_v3\\toolchain\\arm-none-eabi\\include\\stdint.h"
  99              		.file 4 "C:/INTRO_HS18/IntroAronAlex/TEAM_Robot/Generated_Code/KIN1.h"