   1              		.syntax unified
   2              		.cpu cortex-m4
   3              		.eabi_attribute 27, 3
   4              		.eabi_attribute 28, 1
   5              		.fpu fpv4-sp-d16
   6              		.eabi_attribute 20, 1
   7              		.eabi_attribute 21, 1
   8              		.eabi_attribute 23, 3
   9              		.eabi_attribute 24, 1
  10              		.eabi_attribute 25, 1
  11              		.eabi_attribute 26, 1
  12              		.eabi_attribute 30, 6
  13              		.eabi_attribute 34, 1
  14              		.eabi_attribute 18, 4
  15              		.thumb
  16              		.file	"Platform.c"
  17              		.text
  18              	.Ltext0:
  19              		.cfi_sections	.debug_frame
  20              		.section	.text.PL_Init,"ax",%progbits
  21              		.align	2
  22              		.global	PL_Init
  23              		.thumb
  24              		.thumb_func
  26              	PL_Init:
  27              	.LFB0:
  28              		.file 1 "C:/INTRO_HS18/IntroAronAlex/TEAM_Common/Platform.c"
   1:C:/INTRO_HS18/IntroAronAlex/TEAM_Common\Platform.c **** /**
   2:C:/INTRO_HS18/IntroAronAlex/TEAM_Common\Platform.c ****  * \file
   3:C:/INTRO_HS18/IntroAronAlex/TEAM_Common\Platform.c ****  * \brief Common platform configuration module.
   4:C:/INTRO_HS18/IntroAronAlex/TEAM_Common\Platform.c ****  * \author Erich Styger, erich.styger@hslu.ch
   5:C:/INTRO_HS18/IntroAronAlex/TEAM_Common\Platform.c ****  */
   6:C:/INTRO_HS18/IntroAronAlex/TEAM_Common\Platform.c **** 
   7:C:/INTRO_HS18/IntroAronAlex/TEAM_Common\Platform.c **** #include "Platform.h"
   8:C:/INTRO_HS18/IntroAronAlex/TEAM_Common\Platform.c **** #if PL_CONFIG_HAS_LEDS
   9:C:/INTRO_HS18/IntroAronAlex/TEAM_Common\Platform.c ****   #include "LED.h"
  10:C:/INTRO_HS18/IntroAronAlex/TEAM_Common\Platform.c **** #endif
  11:C:/INTRO_HS18/IntroAronAlex/TEAM_Common\Platform.c **** #if PL_CONFIG_HAS_EVENTS
  12:C:/INTRO_HS18/IntroAronAlex/TEAM_Common\Platform.c ****   #include "Event.h"
  13:C:/INTRO_HS18/IntroAronAlex/TEAM_Common\Platform.c **** #endif
  14:C:/INTRO_HS18/IntroAronAlex/TEAM_Common\Platform.c **** #if PL_CONFIG_HAS_TIMER
  15:C:/INTRO_HS18/IntroAronAlex/TEAM_Common\Platform.c ****   #include "Timer.h"
  16:C:/INTRO_HS18/IntroAronAlex/TEAM_Common\Platform.c **** #endif
  17:C:/INTRO_HS18/IntroAronAlex/TEAM_Common\Platform.c **** #if PL_CONFIG_HAS_KEYS
  18:C:/INTRO_HS18/IntroAronAlex/TEAM_Common\Platform.c ****   #include "Keys.h"
  19:C:/INTRO_HS18/IntroAronAlex/TEAM_Common\Platform.c **** #endif
  20:C:/INTRO_HS18/IntroAronAlex/TEAM_Common\Platform.c **** #if PL_CONFIG_HAS_TRIGGER
  21:C:/INTRO_HS18/IntroAronAlex/TEAM_Common\Platform.c ****   #include "Trigger.h"
  22:C:/INTRO_HS18/IntroAronAlex/TEAM_Common\Platform.c **** #endif
  23:C:/INTRO_HS18/IntroAronAlex/TEAM_Common\Platform.c **** #if PL_CONFIG_HAS_BUZZER
  24:C:/INTRO_HS18/IntroAronAlex/TEAM_Common\Platform.c ****   #include "Buzzer.h"
  25:C:/INTRO_HS18/IntroAronAlex/TEAM_Common\Platform.c **** #endif
  26:C:/INTRO_HS18/IntroAronAlex/TEAM_Common\Platform.c **** #if PL_CONFIG_HAS_DEBOUNCE
  27:C:/INTRO_HS18/IntroAronAlex/TEAM_Common\Platform.c ****   #include "Debounce.h"
  28:C:/INTRO_HS18/IntroAronAlex/TEAM_Common\Platform.c ****   #include "KeyDebounce.h"
  29:C:/INTRO_HS18/IntroAronAlex/TEAM_Common\Platform.c **** #endif
  30:C:/INTRO_HS18/IntroAronAlex/TEAM_Common\Platform.c **** #if PL_CONFIG_HAS_RTOS
  31:C:/INTRO_HS18/IntroAronAlex/TEAM_Common\Platform.c ****   #include "RTOS.h"
  32:C:/INTRO_HS18/IntroAronAlex/TEAM_Common\Platform.c **** #endif
  33:C:/INTRO_HS18/IntroAronAlex/TEAM_Common\Platform.c **** #if PL_CONFIG_HAS_SHELL
  34:C:/INTRO_HS18/IntroAronAlex/TEAM_Common\Platform.c ****   #include "Shell.h"
  35:C:/INTRO_HS18/IntroAronAlex/TEAM_Common\Platform.c **** #endif
  36:C:/INTRO_HS18/IntroAronAlex/TEAM_Common\Platform.c **** #if PL_CONFIG_HAS_SHELL_QUEUE
  37:C:/INTRO_HS18/IntroAronAlex/TEAM_Common\Platform.c ****   #include "ShellQueue.h"
  38:C:/INTRO_HS18/IntroAronAlex/TEAM_Common\Platform.c **** #endif
  39:C:/INTRO_HS18/IntroAronAlex/TEAM_Common\Platform.c **** #if PL_CONFIG_HAS_SEMAPHORE
  40:C:/INTRO_HS18/IntroAronAlex/TEAM_Common\Platform.c ****   #include "Sem.h"
  41:C:/INTRO_HS18/IntroAronAlex/TEAM_Common\Platform.c **** #endif
  42:C:/INTRO_HS18/IntroAronAlex/TEAM_Common\Platform.c **** #if PL_CONFIG_HAS_REFLECTANCE
  43:C:/INTRO_HS18/IntroAronAlex/TEAM_Common\Platform.c ****   #include "Reflectance.h"
  44:C:/INTRO_HS18/IntroAronAlex/TEAM_Common\Platform.c **** #endif
  45:C:/INTRO_HS18/IntroAronAlex/TEAM_Common\Platform.c **** #if PL_CONFIG_HAS_MOTOR
  46:C:/INTRO_HS18/IntroAronAlex/TEAM_Common\Platform.c ****   #include "Motor.h"
  47:C:/INTRO_HS18/IntroAronAlex/TEAM_Common\Platform.c **** #endif
  48:C:/INTRO_HS18/IntroAronAlex/TEAM_Common\Platform.c **** #if PL_CONFIG_HAS_MOTOR_TACHO
  49:C:/INTRO_HS18/IntroAronAlex/TEAM_Common\Platform.c ****   #include "Tacho.h"
  50:C:/INTRO_HS18/IntroAronAlex/TEAM_Common\Platform.c **** #endif
  51:C:/INTRO_HS18/IntroAronAlex/TEAM_Common\Platform.c **** #if PL_CONFIG_HAS_PID
  52:C:/INTRO_HS18/IntroAronAlex/TEAM_Common\Platform.c ****   #include "Pid.h"
  53:C:/INTRO_HS18/IntroAronAlex/TEAM_Common\Platform.c **** #endif
  54:C:/INTRO_HS18/IntroAronAlex/TEAM_Common\Platform.c **** #if PL_CONFIG_HAS_DRIVE
  55:C:/INTRO_HS18/IntroAronAlex/TEAM_Common\Platform.c ****   #include "Drive.h"
  56:C:/INTRO_HS18/IntroAronAlex/TEAM_Common\Platform.c **** #endif
  57:C:/INTRO_HS18/IntroAronAlex/TEAM_Common\Platform.c **** #if PL_CONFIG_HAS_LINE_FOLLOW
  58:C:/INTRO_HS18/IntroAronAlex/TEAM_Common\Platform.c ****   #include "LineFollow.h"
  59:C:/INTRO_HS18/IntroAronAlex/TEAM_Common\Platform.c **** #endif
  60:C:/INTRO_HS18/IntroAronAlex/TEAM_Common\Platform.c **** #if PL_CONFIG_HAS_RADIO
  61:C:/INTRO_HS18/IntroAronAlex/TEAM_Common\Platform.c ****   #include "RNet_App.h"
  62:C:/INTRO_HS18/IntroAronAlex/TEAM_Common\Platform.c **** #endif
  63:C:/INTRO_HS18/IntroAronAlex/TEAM_Common\Platform.c **** #if PL_CONFIG_HAS_REMOTE
  64:C:/INTRO_HS18/IntroAronAlex/TEAM_Common\Platform.c ****   #include "Remote.h"
  65:C:/INTRO_HS18/IntroAronAlex/TEAM_Common\Platform.c **** #endif
  66:C:/INTRO_HS18/IntroAronAlex/TEAM_Common\Platform.c **** #if PL_CONFIG_HAS_TURN
  67:C:/INTRO_HS18/IntroAronAlex/TEAM_Common\Platform.c ****   #include "Turn.h"
  68:C:/INTRO_HS18/IntroAronAlex/TEAM_Common\Platform.c **** #endif
  69:C:/INTRO_HS18/IntroAronAlex/TEAM_Common\Platform.c **** #if PL_CONFIG_HAS_CONFIG_NVM
  70:C:/INTRO_HS18/IntroAronAlex/TEAM_Common\Platform.c ****   #include "NVM_Config.h"
  71:C:/INTRO_HS18/IntroAronAlex/TEAM_Common\Platform.c **** #endif
  72:C:/INTRO_HS18/IntroAronAlex/TEAM_Common\Platform.c **** #if PL_CONFIG_HAS_LINE_MAZE
  73:C:/INTRO_HS18/IntroAronAlex/TEAM_Common\Platform.c ****   #include "Maze.h"
  74:C:/INTRO_HS18/IntroAronAlex/TEAM_Common\Platform.c **** #endif
  75:C:/INTRO_HS18/IntroAronAlex/TEAM_Common\Platform.c **** #if PL_CONFIG_HAS_LCD
  76:C:/INTRO_HS18/IntroAronAlex/TEAM_Common\Platform.c ****   #include "LCD.h"
  77:C:/INTRO_HS18/IntroAronAlex/TEAM_Common\Platform.c **** #endif
  78:C:/INTRO_HS18/IntroAronAlex/TEAM_Common\Platform.c **** #if PL_CONFIG_HAS_BATTERY_ADC
  79:C:/INTRO_HS18/IntroAronAlex/TEAM_Common\Platform.c ****   #include "Battery.h"
  80:C:/INTRO_HS18/IntroAronAlex/TEAM_Common\Platform.c **** #endif
  81:C:/INTRO_HS18/IntroAronAlex/TEAM_Common\Platform.c **** #if PL_CONFIG_HAS_SNAKE_GAME
  82:C:/INTRO_HS18/IntroAronAlex/TEAM_Common\Platform.c ****   #include "Snake.h"
  83:C:/INTRO_HS18/IntroAronAlex/TEAM_Common\Platform.c **** #endif
  84:C:/INTRO_HS18/IntroAronAlex/TEAM_Common\Platform.c **** #if PL_HAS_DISTANCE_SENSOR
  85:C:/INTRO_HS18/IntroAronAlex/TEAM_Common\Platform.c ****   #include "Distance.h"
  86:C:/INTRO_HS18/IntroAronAlex/TEAM_Common\Platform.c **** #endif
  87:C:/INTRO_HS18/IntroAronAlex/TEAM_Common\Platform.c **** #if PL_CONFIG_HAS_SUMO /*! \todo */
  88:C:/INTRO_HS18/IntroAronAlex/TEAM_Common\Platform.c ****   #include "Sumo.h"
  89:C:/INTRO_HS18/IntroAronAlex/TEAM_Common\Platform.c **** #endif
  90:C:/INTRO_HS18/IntroAronAlex/TEAM_Common\Platform.c **** 
  91:C:/INTRO_HS18/IntroAronAlex/TEAM_Common\Platform.c **** void PL_Init(void) {
  29              		.loc 1 91 0
  30              		.cfi_startproc
  31              		@ args = 0, pretend = 0, frame = 0
  32              		@ frame_needed = 1, uses_anonymous_args = 0
  33              		@ link register save eliminated.
  34 0000 80B4     		push	{r7}
  35              		.cfi_def_cfa_offset 4
  36              		.cfi_offset 7, -4
  37 0002 00AF     		add	r7, sp, #0
  38              		.cfi_def_cfa_register 7
  92:C:/INTRO_HS18/IntroAronAlex/TEAM_Common\Platform.c **** #if PL_CONFIG_HAS_LEDS
  93:C:/INTRO_HS18/IntroAronAlex/TEAM_Common\Platform.c ****   LED_Init();
  94:C:/INTRO_HS18/IntroAronAlex/TEAM_Common\Platform.c **** #endif
  95:C:/INTRO_HS18/IntroAronAlex/TEAM_Common\Platform.c **** #if PL_CONFIG_HAS_EVENTS
  96:C:/INTRO_HS18/IntroAronAlex/TEAM_Common\Platform.c ****   EVNT_Init();
  97:C:/INTRO_HS18/IntroAronAlex/TEAM_Common\Platform.c **** #endif
  98:C:/INTRO_HS18/IntroAronAlex/TEAM_Common\Platform.c **** #if PL_CONFIG_HAS_TIMER
  99:C:/INTRO_HS18/IntroAronAlex/TEAM_Common\Platform.c ****   TMR_Init();
 100:C:/INTRO_HS18/IntroAronAlex/TEAM_Common\Platform.c **** #endif
 101:C:/INTRO_HS18/IntroAronAlex/TEAM_Common\Platform.c **** #if PL_CONFIG_HAS_KEYS
 102:C:/INTRO_HS18/IntroAronAlex/TEAM_Common\Platform.c ****   KEY_Init();
 103:C:/INTRO_HS18/IntroAronAlex/TEAM_Common\Platform.c **** #endif
 104:C:/INTRO_HS18/IntroAronAlex/TEAM_Common\Platform.c **** #if PL_CONFIG_HAS_TRIGGER
 105:C:/INTRO_HS18/IntroAronAlex/TEAM_Common\Platform.c ****   TRG_Init();
 106:C:/INTRO_HS18/IntroAronAlex/TEAM_Common\Platform.c **** #endif
 107:C:/INTRO_HS18/IntroAronAlex/TEAM_Common\Platform.c **** #if PL_CONFIG_HAS_BUZZER
 108:C:/INTRO_HS18/IntroAronAlex/TEAM_Common\Platform.c ****   BUZ_Init();
 109:C:/INTRO_HS18/IntroAronAlex/TEAM_Common\Platform.c **** #endif
 110:C:/INTRO_HS18/IntroAronAlex/TEAM_Common\Platform.c **** #if PL_CONFIG_HAS_DEBOUNCE
 111:C:/INTRO_HS18/IntroAronAlex/TEAM_Common\Platform.c ****   KEYDBNC_Init();
 112:C:/INTRO_HS18/IntroAronAlex/TEAM_Common\Platform.c **** #endif
 113:C:/INTRO_HS18/IntroAronAlex/TEAM_Common\Platform.c **** #if PL_CONFIG_HAS_RTOS
 114:C:/INTRO_HS18/IntroAronAlex/TEAM_Common\Platform.c ****   RTOS_Init();
 115:C:/INTRO_HS18/IntroAronAlex/TEAM_Common\Platform.c **** #endif
 116:C:/INTRO_HS18/IntroAronAlex/TEAM_Common\Platform.c **** #if PL_CONFIG_HAS_SHELL
 117:C:/INTRO_HS18/IntroAronAlex/TEAM_Common\Platform.c ****   SHELL_Init();
 118:C:/INTRO_HS18/IntroAronAlex/TEAM_Common\Platform.c **** #endif
 119:C:/INTRO_HS18/IntroAronAlex/TEAM_Common\Platform.c **** #if PL_CONFIG_HAS_SHELL_QUEUE
 120:C:/INTRO_HS18/IntroAronAlex/TEAM_Common\Platform.c ****   SQUEUE_Init();
 121:C:/INTRO_HS18/IntroAronAlex/TEAM_Common\Platform.c **** #endif
 122:C:/INTRO_HS18/IntroAronAlex/TEAM_Common\Platform.c **** #if PL_CONFIG_HAS_SEMAPHORE
 123:C:/INTRO_HS18/IntroAronAlex/TEAM_Common\Platform.c ****   SEM_Init();
 124:C:/INTRO_HS18/IntroAronAlex/TEAM_Common\Platform.c **** #endif
 125:C:/INTRO_HS18/IntroAronAlex/TEAM_Common\Platform.c **** #if PL_CONFIG_HAS_REFLECTANCE
 126:C:/INTRO_HS18/IntroAronAlex/TEAM_Common\Platform.c ****   REF_Init();
 127:C:/INTRO_HS18/IntroAronAlex/TEAM_Common\Platform.c **** #endif
 128:C:/INTRO_HS18/IntroAronAlex/TEAM_Common\Platform.c **** #if PL_CONFIG_HAS_MOTOR
 129:C:/INTRO_HS18/IntroAronAlex/TEAM_Common\Platform.c ****   MOT_Init();
 130:C:/INTRO_HS18/IntroAronAlex/TEAM_Common\Platform.c **** #endif
 131:C:/INTRO_HS18/IntroAronAlex/TEAM_Common\Platform.c **** #if PL_CONFIG_HAS_MOTOR_TACHO
 132:C:/INTRO_HS18/IntroAronAlex/TEAM_Common\Platform.c ****   TACHO_Init();
 133:C:/INTRO_HS18/IntroAronAlex/TEAM_Common\Platform.c **** #endif
 134:C:/INTRO_HS18/IntroAronAlex/TEAM_Common\Platform.c **** #if PL_CONFIG_HAS_PID
 135:C:/INTRO_HS18/IntroAronAlex/TEAM_Common\Platform.c ****   PID_Init();
 136:C:/INTRO_HS18/IntroAronAlex/TEAM_Common\Platform.c **** #endif
 137:C:/INTRO_HS18/IntroAronAlex/TEAM_Common\Platform.c **** #if PL_CONFIG_HAS_DRIVE
 138:C:/INTRO_HS18/IntroAronAlex/TEAM_Common\Platform.c ****   DRV_Init();
 139:C:/INTRO_HS18/IntroAronAlex/TEAM_Common\Platform.c **** #endif
 140:C:/INTRO_HS18/IntroAronAlex/TEAM_Common\Platform.c **** #if PL_CONFIG_HAS_LINE_FOLLOW
 141:C:/INTRO_HS18/IntroAronAlex/TEAM_Common\Platform.c ****   LF_Init();
 142:C:/INTRO_HS18/IntroAronAlex/TEAM_Common\Platform.c **** #endif
 143:C:/INTRO_HS18/IntroAronAlex/TEAM_Common\Platform.c **** #if PL_CONFIG_HAS_RADIO
 144:C:/INTRO_HS18/IntroAronAlex/TEAM_Common\Platform.c ****   RNETA_Init();
 145:C:/INTRO_HS18/IntroAronAlex/TEAM_Common\Platform.c **** #endif
 146:C:/INTRO_HS18/IntroAronAlex/TEAM_Common\Platform.c **** #if PL_CONFIG_HAS_REMOTE
 147:C:/INTRO_HS18/IntroAronAlex/TEAM_Common\Platform.c ****   REMOTE_Init();
 148:C:/INTRO_HS18/IntroAronAlex/TEAM_Common\Platform.c **** #endif
 149:C:/INTRO_HS18/IntroAronAlex/TEAM_Common\Platform.c **** #if PL_CONFIG_HAS_TURN
 150:C:/INTRO_HS18/IntroAronAlex/TEAM_Common\Platform.c ****  TURN_Init();
 151:C:/INTRO_HS18/IntroAronAlex/TEAM_Common\Platform.c **** #endif
 152:C:/INTRO_HS18/IntroAronAlex/TEAM_Common\Platform.c **** #if PL_CONFIG_HAS_CONFIG_NVM
 153:C:/INTRO_HS18/IntroAronAlex/TEAM_Common\Platform.c ****   NVMC_Init();
 154:C:/INTRO_HS18/IntroAronAlex/TEAM_Common\Platform.c **** #endif
 155:C:/INTRO_HS18/IntroAronAlex/TEAM_Common\Platform.c **** #if PL_CONFIG_HAS_LINE_MAZE
 156:C:/INTRO_HS18/IntroAronAlex/TEAM_Common\Platform.c ****   MAZE_Init();
 157:C:/INTRO_HS18/IntroAronAlex/TEAM_Common\Platform.c **** #endif
 158:C:/INTRO_HS18/IntroAronAlex/TEAM_Common\Platform.c **** #if PL_CONFIG_HAS_LCD
 159:C:/INTRO_HS18/IntroAronAlex/TEAM_Common\Platform.c ****   LCD_Init();
 160:C:/INTRO_HS18/IntroAronAlex/TEAM_Common\Platform.c **** #endif
 161:C:/INTRO_HS18/IntroAronAlex/TEAM_Common\Platform.c **** #if PL_CONFIG_HAS_BATTERY_ADC
 162:C:/INTRO_HS18/IntroAronAlex/TEAM_Common\Platform.c ****   BATT_Init();
 163:C:/INTRO_HS18/IntroAronAlex/TEAM_Common\Platform.c **** #endif
 164:C:/INTRO_HS18/IntroAronAlex/TEAM_Common\Platform.c **** #if PL_CONFIG_HAS_SNAKE_GAME
 165:C:/INTRO_HS18/IntroAronAlex/TEAM_Common\Platform.c ****   SNAKE_Init();
 166:C:/INTRO_HS18/IntroAronAlex/TEAM_Common\Platform.c **** #endif
 167:C:/INTRO_HS18/IntroAronAlex/TEAM_Common\Platform.c **** #if PL_HAS_DISTANCE_SENSOR
 168:C:/INTRO_HS18/IntroAronAlex/TEAM_Common\Platform.c ****   DIST_Init();
 169:C:/INTRO_HS18/IntroAronAlex/TEAM_Common\Platform.c **** #endif
 170:C:/INTRO_HS18/IntroAronAlex/TEAM_Common\Platform.c **** #if PL_CONFIG_HAS_SUMO
 171:C:/INTRO_HS18/IntroAronAlex/TEAM_Common\Platform.c ****   SUMO_Init();
 172:C:/INTRO_HS18/IntroAronAlex/TEAM_Common\Platform.c **** #endif
 173:C:/INTRO_HS18/IntroAronAlex/TEAM_Common\Platform.c **** }
  39              		.loc 1 173 0
  40 0004 BD46     		mov	sp, r7
  41              		@ sp needed
  42 0006 5DF8047B 		ldr	r7, [sp], #4
  43 000a 7047     		bx	lr
  44              		.cfi_endproc
  45              	.LFE0:
  47              		.section	.text.PL_Deinit,"ax",%progbits
  48              		.align	2
  49              		.global	PL_Deinit
  50              		.thumb
  51              		.thumb_func
  53              	PL_Deinit:
  54              	.LFB1:
 174:C:/INTRO_HS18/IntroAronAlex/TEAM_Common\Platform.c **** 
 175:C:/INTRO_HS18/IntroAronAlex/TEAM_Common\Platform.c **** void PL_Deinit(void) {
  55              		.loc 1 175 0
  56              		.cfi_startproc
  57              		@ args = 0, pretend = 0, frame = 0
  58              		@ frame_needed = 1, uses_anonymous_args = 0
  59              		@ link register save eliminated.
  60 0000 80B4     		push	{r7}
  61              		.cfi_def_cfa_offset 4
  62              		.cfi_offset 7, -4
  63 0002 00AF     		add	r7, sp, #0
  64              		.cfi_def_cfa_register 7
 176:C:/INTRO_HS18/IntroAronAlex/TEAM_Common\Platform.c **** #if PL_CONFIG_HAS_SUMO
 177:C:/INTRO_HS18/IntroAronAlex/TEAM_Common\Platform.c ****   SUMO_Deinit();
 178:C:/INTRO_HS18/IntroAronAlex/TEAM_Common\Platform.c **** #endif
 179:C:/INTRO_HS18/IntroAronAlex/TEAM_Common\Platform.c **** #if PL_HAS_DISTANCE_SENSOR
 180:C:/INTRO_HS18/IntroAronAlex/TEAM_Common\Platform.c ****   DIST_Deinit();
 181:C:/INTRO_HS18/IntroAronAlex/TEAM_Common\Platform.c **** #endif
 182:C:/INTRO_HS18/IntroAronAlex/TEAM_Common\Platform.c **** #if PL_CONFIG_HAS_SNAKE_GAME
 183:C:/INTRO_HS18/IntroAronAlex/TEAM_Common\Platform.c ****   SNAKE_Deinit();
 184:C:/INTRO_HS18/IntroAronAlex/TEAM_Common\Platform.c **** #endif
 185:C:/INTRO_HS18/IntroAronAlex/TEAM_Common\Platform.c **** #if PL_CONFIG_HAS_BATTERY_ADC
 186:C:/INTRO_HS18/IntroAronAlex/TEAM_Common\Platform.c ****   BATT_Deinit();
 187:C:/INTRO_HS18/IntroAronAlex/TEAM_Common\Platform.c **** #endif
 188:C:/INTRO_HS18/IntroAronAlex/TEAM_Common\Platform.c **** #if PL_CONFIG_HAS_LCD
 189:C:/INTRO_HS18/IntroAronAlex/TEAM_Common\Platform.c ****   LCD_Deinit();
 190:C:/INTRO_HS18/IntroAronAlex/TEAM_Common\Platform.c **** #endif
 191:C:/INTRO_HS18/IntroAronAlex/TEAM_Common\Platform.c **** #if PL_CONFIG_HAS_LINE_MAZE
 192:C:/INTRO_HS18/IntroAronAlex/TEAM_Common\Platform.c ****   MAZE_Deinit();
 193:C:/INTRO_HS18/IntroAronAlex/TEAM_Common\Platform.c **** #endif
 194:C:/INTRO_HS18/IntroAronAlex/TEAM_Common\Platform.c **** #if PL_CONFIG_HAS_CONFIG_NVM
 195:C:/INTRO_HS18/IntroAronAlex/TEAM_Common\Platform.c ****   NVMC_Deinit();
 196:C:/INTRO_HS18/IntroAronAlex/TEAM_Common\Platform.c **** #endif
 197:C:/INTRO_HS18/IntroAronAlex/TEAM_Common\Platform.c **** #if PL_CONFIG_HAS_TURN
 198:C:/INTRO_HS18/IntroAronAlex/TEAM_Common\Platform.c ****  TURN_Deinit();
 199:C:/INTRO_HS18/IntroAronAlex/TEAM_Common\Platform.c **** #endif
 200:C:/INTRO_HS18/IntroAronAlex/TEAM_Common\Platform.c **** #if PL_CONFIG_HAS_REMOTE
 201:C:/INTRO_HS18/IntroAronAlex/TEAM_Common\Platform.c ****   REMOTE_Deinit();
 202:C:/INTRO_HS18/IntroAronAlex/TEAM_Common\Platform.c **** #endif
 203:C:/INTRO_HS18/IntroAronAlex/TEAM_Common\Platform.c **** #if PL_CONFIG_HAS_RADIO
 204:C:/INTRO_HS18/IntroAronAlex/TEAM_Common\Platform.c ****   RNETA_Deinit();
 205:C:/INTRO_HS18/IntroAronAlex/TEAM_Common\Platform.c **** #endif
 206:C:/INTRO_HS18/IntroAronAlex/TEAM_Common\Platform.c **** #if PL_CONFIG_HAS_LINE_FOLLOW
 207:C:/INTRO_HS18/IntroAronAlex/TEAM_Common\Platform.c ****   LF_Deinit();
 208:C:/INTRO_HS18/IntroAronAlex/TEAM_Common\Platform.c **** #endif
 209:C:/INTRO_HS18/IntroAronAlex/TEAM_Common\Platform.c **** #if PL_CONFIG_HAS_DRIVE
 210:C:/INTRO_HS18/IntroAronAlex/TEAM_Common\Platform.c ****   DRV_Deinit();
 211:C:/INTRO_HS18/IntroAronAlex/TEAM_Common\Platform.c **** #endif
 212:C:/INTRO_HS18/IntroAronAlex/TEAM_Common\Platform.c **** #if PL_CONFIG_HAS_PID
 213:C:/INTRO_HS18/IntroAronAlex/TEAM_Common\Platform.c ****   PID_Deinit();
 214:C:/INTRO_HS18/IntroAronAlex/TEAM_Common\Platform.c **** #endif
 215:C:/INTRO_HS18/IntroAronAlex/TEAM_Common\Platform.c **** #if PL_CONFIG_HAS_MOTOR_TACHO
 216:C:/INTRO_HS18/IntroAronAlex/TEAM_Common\Platform.c ****   TACHO_Deinit();
 217:C:/INTRO_HS18/IntroAronAlex/TEAM_Common\Platform.c **** #endif
 218:C:/INTRO_HS18/IntroAronAlex/TEAM_Common\Platform.c **** #if PL_CONFIG_HAS_MOTOR
 219:C:/INTRO_HS18/IntroAronAlex/TEAM_Common\Platform.c ****   MOT_Deinit();
 220:C:/INTRO_HS18/IntroAronAlex/TEAM_Common\Platform.c **** #endif
 221:C:/INTRO_HS18/IntroAronAlex/TEAM_Common\Platform.c **** #if PL_CONFIG_HAS_REFLECTANCE
 222:C:/INTRO_HS18/IntroAronAlex/TEAM_Common\Platform.c ****   REF_Deinit();
 223:C:/INTRO_HS18/IntroAronAlex/TEAM_Common\Platform.c **** #endif
 224:C:/INTRO_HS18/IntroAronAlex/TEAM_Common\Platform.c **** #if PL_CONFIG_HAS_SEMAPHORE
 225:C:/INTRO_HS18/IntroAronAlex/TEAM_Common\Platform.c ****   SEM_Deinit();
 226:C:/INTRO_HS18/IntroAronAlex/TEAM_Common\Platform.c **** #endif
 227:C:/INTRO_HS18/IntroAronAlex/TEAM_Common\Platform.c **** #if PL_CONFIG_HAS_SHELL_QUEUE
 228:C:/INTRO_HS18/IntroAronAlex/TEAM_Common\Platform.c ****   SQUEUE_Deinit();
 229:C:/INTRO_HS18/IntroAronAlex/TEAM_Common\Platform.c **** #endif
 230:C:/INTRO_HS18/IntroAronAlex/TEAM_Common\Platform.c **** #if PL_CONFIG_HAS_RTOS
 231:C:/INTRO_HS18/IntroAronAlex/TEAM_Common\Platform.c ****   RTOS_Deinit();
 232:C:/INTRO_HS18/IntroAronAlex/TEAM_Common\Platform.c **** #endif
 233:C:/INTRO_HS18/IntroAronAlex/TEAM_Common\Platform.c **** #if PL_CONFIG_HAS_DEBOUNCE
 234:C:/INTRO_HS18/IntroAronAlex/TEAM_Common\Platform.c ****   KEYDBNC_Deinit();
 235:C:/INTRO_HS18/IntroAronAlex/TEAM_Common\Platform.c **** #endif
 236:C:/INTRO_HS18/IntroAronAlex/TEAM_Common\Platform.c **** #if PL_CONFIG_HAS_BUZZER
 237:C:/INTRO_HS18/IntroAronAlex/TEAM_Common\Platform.c ****   BUZ_Deinit();
 238:C:/INTRO_HS18/IntroAronAlex/TEAM_Common\Platform.c **** #endif
 239:C:/INTRO_HS18/IntroAronAlex/TEAM_Common\Platform.c **** #if PL_CONFIG_HAS_TRIGGER
 240:C:/INTRO_HS18/IntroAronAlex/TEAM_Common\Platform.c ****   TRG_Deinit();
 241:C:/INTRO_HS18/IntroAronAlex/TEAM_Common\Platform.c **** #endif
 242:C:/INTRO_HS18/IntroAronAlex/TEAM_Common\Platform.c **** #if PL_CONFIG_HAS_KEYS
 243:C:/INTRO_HS18/IntroAronAlex/TEAM_Common\Platform.c ****   KEY_Deinit();
 244:C:/INTRO_HS18/IntroAronAlex/TEAM_Common\Platform.c **** #endif
 245:C:/INTRO_HS18/IntroAronAlex/TEAM_Common\Platform.c **** #if PL_CONFIG_HAS_TIMER
 246:C:/INTRO_HS18/IntroAronAlex/TEAM_Common\Platform.c ****   TMR_Deinit();
 247:C:/INTRO_HS18/IntroAronAlex/TEAM_Common\Platform.c **** #endif
 248:C:/INTRO_HS18/IntroAronAlex/TEAM_Common\Platform.c **** #if PL_CONFIG_HAS_EVENTS
 249:C:/INTRO_HS18/IntroAronAlex/TEAM_Common\Platform.c ****   EVNT_Init();
 250:C:/INTRO_HS18/IntroAronAlex/TEAM_Common\Platform.c **** #endif
 251:C:/INTRO_HS18/IntroAronAlex/TEAM_Common\Platform.c **** #if PL_CONFIG_HAS_LEDS
 252:C:/INTRO_HS18/IntroAronAlex/TEAM_Common\Platform.c ****   LED_Deinit();
 253:C:/INTRO_HS18/IntroAronAlex/TEAM_Common\Platform.c **** #endif
 254:C:/INTRO_HS18/IntroAronAlex/TEAM_Common\Platform.c **** }
  65              		.loc 1 254 0
  66 0004 BD46     		mov	sp, r7
  67              		@ sp needed
  68 0006 5DF8047B 		ldr	r7, [sp], #4
  69 000a 7047     		bx	lr
  70              		.cfi_endproc
  71              	.LFE1:
  73              		.text
  74              	.Letext0: