   1              		.syntax unified
   2              		.cpu cortex-m4
   3              		.eabi_attribute 27, 3
   4              		.eabi_attribute 28, 1
   5              		.fpu fpv4-sp-d16
   6              		.eabi_attribute 20, 1
   7              		.eabi_attribute 21, 1
   8              		.eabi_attribute 23, 3
   9              		.eabi_attribute 24, 1
  10              		.eabi_attribute 25, 1
  11              		.eabi_attribute 26, 1
  12              		.eabi_attribute 30, 6
  13              		.eabi_attribute 34, 1
  14              		.eabi_attribute 18, 4
  15              		.thumb
  16              		.file	"BitIoLdd1.c"
  17              		.text
  18              	.Ltext0:
  19              		.cfi_sections	.debug_frame
  20              		.section	.bss.DeviceDataPrv__DEFAULT_RTOS_ALLOC,"aw",%nobits
  21              		.align	2
  24              	DeviceDataPrv__DEFAULT_RTOS_ALLOC:
  25 0000 00000000 		.space	4
  26              		.section	.text.BitIoLdd1_Init,"ax",%progbits
  27              		.align	2
  28              		.global	BitIoLdd1_Init
  29              		.thumb
  30              		.thumb_func
  32              	BitIoLdd1_Init:
  33              	.LFB0:
  34              		.file 1 "../Generated_Code/BitIoLdd1.c"
   1:../Generated_Code/BitIoLdd1.c **** /* ###################################################################
   2:../Generated_Code/BitIoLdd1.c **** **     This component module is generated by Processor Expert. Do not modify it.
   3:../Generated_Code/BitIoLdd1.c **** **     Filename    : BitIoLdd1.c
   4:../Generated_Code/BitIoLdd1.c **** **     Project     : TEAM_Robot
   5:../Generated_Code/BitIoLdd1.c **** **     Processor   : MK22FX512VLK12
   6:../Generated_Code/BitIoLdd1.c **** **     Component   : BitIO_LDD
   7:../Generated_Code/BitIoLdd1.c **** **     Version     : Component 01.033, Driver 01.03, CPU db: 3.00.000
   8:../Generated_Code/BitIoLdd1.c **** **     Repository  : Kinetis
   9:../Generated_Code/BitIoLdd1.c **** **     Compiler    : GNU C Compiler
  10:../Generated_Code/BitIoLdd1.c **** **     Date/Time   : 2018-09-28, 15:03, # CodeGen: 0
  11:../Generated_Code/BitIoLdd1.c **** **     Abstract    :
  12:../Generated_Code/BitIoLdd1.c **** **         The HAL BitIO component provides a low level API for unified
  13:../Generated_Code/BitIoLdd1.c **** **         access to general purpose digital input/output pins across
  14:../Generated_Code/BitIoLdd1.c **** **         various device designs.
  15:../Generated_Code/BitIoLdd1.c **** **
  16:../Generated_Code/BitIoLdd1.c **** **         RTOS drivers using HAL BitIO API are simpler and more
  17:../Generated_Code/BitIoLdd1.c **** **         portable to various microprocessors.
  18:../Generated_Code/BitIoLdd1.c **** **     Settings    :
  19:../Generated_Code/BitIoLdd1.c **** **          Component name                                 : BitIoLdd1
  20:../Generated_Code/BitIoLdd1.c **** **          Pin for I/O                                    : PTD0/LLWU_P12/SPI0_PCS0/UART2_RTS_b/FT
  21:../Generated_Code/BitIoLdd1.c **** **          Pin signal                                     : LED_LEFT
  22:../Generated_Code/BitIoLdd1.c **** **          Direction                                      : Output
  23:../Generated_Code/BitIoLdd1.c **** **          Initialization                                 : 
  24:../Generated_Code/BitIoLdd1.c **** **            Init. direction                              : Output
  25:../Generated_Code/BitIoLdd1.c **** **            Init. value                                  : 1
  26:../Generated_Code/BitIoLdd1.c **** **            Auto initialization                          : yes
  27:../Generated_Code/BitIoLdd1.c **** **          Safe mode                                      : no
  28:../Generated_Code/BitIoLdd1.c **** **     Contents    :
  29:../Generated_Code/BitIoLdd1.c **** **         Init   - LDD_TDeviceData* BitIoLdd1_Init(LDD_TUserData *UserDataPtr);
  30:../Generated_Code/BitIoLdd1.c **** **         GetVal - bool BitIoLdd1_GetVal(LDD_TDeviceData *DeviceDataPtr);
  31:../Generated_Code/BitIoLdd1.c **** **         PutVal - void BitIoLdd1_PutVal(LDD_TDeviceData *DeviceDataPtr, bool Val);
  32:../Generated_Code/BitIoLdd1.c **** **         ClrVal - void BitIoLdd1_ClrVal(LDD_TDeviceData *DeviceDataPtr);
  33:../Generated_Code/BitIoLdd1.c **** **         SetVal - void BitIoLdd1_SetVal(LDD_TDeviceData *DeviceDataPtr);
  34:../Generated_Code/BitIoLdd1.c **** **         NegVal - void BitIoLdd1_NegVal(LDD_TDeviceData *DeviceDataPtr);
  35:../Generated_Code/BitIoLdd1.c **** **
  36:../Generated_Code/BitIoLdd1.c **** **     Copyright : 1997 - 2015 Freescale Semiconductor, Inc. 
  37:../Generated_Code/BitIoLdd1.c **** **     All Rights Reserved.
  38:../Generated_Code/BitIoLdd1.c **** **     
  39:../Generated_Code/BitIoLdd1.c **** **     Redistribution and use in source and binary forms, with or without modification,
  40:../Generated_Code/BitIoLdd1.c **** **     are permitted provided that the following conditions are met:
  41:../Generated_Code/BitIoLdd1.c **** **     
  42:../Generated_Code/BitIoLdd1.c **** **     o Redistributions of source code must retain the above copyright notice, this list
  43:../Generated_Code/BitIoLdd1.c **** **       of conditions and the following disclaimer.
  44:../Generated_Code/BitIoLdd1.c **** **     
  45:../Generated_Code/BitIoLdd1.c **** **     o Redistributions in binary form must reproduce the above copyright notice, this
  46:../Generated_Code/BitIoLdd1.c **** **       list of conditions and the following disclaimer in the documentation and/or
  47:../Generated_Code/BitIoLdd1.c **** **       other materials provided with the distribution.
  48:../Generated_Code/BitIoLdd1.c **** **     
  49:../Generated_Code/BitIoLdd1.c **** **     o Neither the name of Freescale Semiconductor, Inc. nor the names of its
  50:../Generated_Code/BitIoLdd1.c **** **       contributors may be used to endorse or promote products derived from this
  51:../Generated_Code/BitIoLdd1.c **** **       software without specific prior written permission.
  52:../Generated_Code/BitIoLdd1.c **** **     
  53:../Generated_Code/BitIoLdd1.c **** **     THIS SOFTWARE IS PROVIDED BY THE COPYRIGHT HOLDERS AND CONTRIBUTORS "AS IS" AND
  54:../Generated_Code/BitIoLdd1.c **** **     ANY EXPRESS OR IMPLIED WARRANTIES, INCLUDING, BUT NOT LIMITED TO, THE IMPLIED
  55:../Generated_Code/BitIoLdd1.c **** **     WARRANTIES OF MERCHANTABILITY AND FITNESS FOR A PARTICULAR PURPOSE ARE
  56:../Generated_Code/BitIoLdd1.c **** **     DISCLAIMED. IN NO EVENT SHALL THE COPYRIGHT HOLDER OR CONTRIBUTORS BE LIABLE FOR
  57:../Generated_Code/BitIoLdd1.c **** **     ANY DIRECT, INDIRECT, INCIDENTAL, SPECIAL, EXEMPLARY, OR CONSEQUENTIAL DAMAGES
  58:../Generated_Code/BitIoLdd1.c **** **     (INCLUDING, BUT NOT LIMITED TO, PROCUREMENT OF SUBSTITUTE GOODS OR SERVICES;
  59:../Generated_Code/BitIoLdd1.c **** **     LOSS OF USE, DATA, OR PROFITS; OR BUSINESS INTERRUPTION) HOWEVER CAUSED AND ON
  60:../Generated_Code/BitIoLdd1.c **** **     ANY THEORY OF LIABILITY, WHETHER IN CONTRACT, STRICT LIABILITY, OR TORT
  61:../Generated_Code/BitIoLdd1.c **** **     (INCLUDING NEGLIGENCE OR OTHERWISE) ARISING IN ANY WAY OUT OF THE USE OF THIS
  62:../Generated_Code/BitIoLdd1.c **** **     SOFTWARE, EVEN IF ADVISED OF THE POSSIBILITY OF SUCH DAMAGE.
  63:../Generated_Code/BitIoLdd1.c **** **     
  64:../Generated_Code/BitIoLdd1.c **** **     http: www.freescale.com
  65:../Generated_Code/BitIoLdd1.c **** **     mail: support@freescale.com
  66:../Generated_Code/BitIoLdd1.c **** ** ###################################################################*/
  67:../Generated_Code/BitIoLdd1.c **** /*!
  68:../Generated_Code/BitIoLdd1.c **** ** @file BitIoLdd1.c
  69:../Generated_Code/BitIoLdd1.c **** ** @version 01.03
  70:../Generated_Code/BitIoLdd1.c **** ** @brief
  71:../Generated_Code/BitIoLdd1.c **** **         The HAL BitIO component provides a low level API for unified
  72:../Generated_Code/BitIoLdd1.c **** **         access to general purpose digital input/output pins across
  73:../Generated_Code/BitIoLdd1.c **** **         various device designs.
  74:../Generated_Code/BitIoLdd1.c **** **
  75:../Generated_Code/BitIoLdd1.c **** **         RTOS drivers using HAL BitIO API are simpler and more
  76:../Generated_Code/BitIoLdd1.c **** **         portable to various microprocessors.
  77:../Generated_Code/BitIoLdd1.c **** */         
  78:../Generated_Code/BitIoLdd1.c **** /*!
  79:../Generated_Code/BitIoLdd1.c **** **  @addtogroup BitIoLdd1_module BitIoLdd1 module documentation
  80:../Generated_Code/BitIoLdd1.c **** **  @{
  81:../Generated_Code/BitIoLdd1.c **** */         
  82:../Generated_Code/BitIoLdd1.c **** 
  83:../Generated_Code/BitIoLdd1.c **** /* MODULE BitIoLdd1. */
  84:../Generated_Code/BitIoLdd1.c **** 
  85:../Generated_Code/BitIoLdd1.c **** /* {Default RTOS Adapter} No RTOS includes */
  86:../Generated_Code/BitIoLdd1.c **** #include "BitIoLdd1.h"
  87:../Generated_Code/BitIoLdd1.c **** 
  88:../Generated_Code/BitIoLdd1.c **** #ifdef __cplusplus
  89:../Generated_Code/BitIoLdd1.c **** extern "C" {
  90:../Generated_Code/BitIoLdd1.c **** #endif 
  91:../Generated_Code/BitIoLdd1.c **** 
  92:../Generated_Code/BitIoLdd1.c **** typedef struct {
  93:../Generated_Code/BitIoLdd1.c ****   LDD_TUserData *UserDataPtr;          /* Pointer to user data */
  94:../Generated_Code/BitIoLdd1.c **** } BitIoLdd1_TDeviceData;               /* Device data structure type */
  95:../Generated_Code/BitIoLdd1.c **** 
  96:../Generated_Code/BitIoLdd1.c **** typedef BitIoLdd1_TDeviceData *BitIoLdd1_TDeviceDataPtr ; /* Pointer to the device data structure. 
  97:../Generated_Code/BitIoLdd1.c **** 
  98:../Generated_Code/BitIoLdd1.c **** /* {Default RTOS Adapter} Static object used for simulation of dynamic driver memory allocation */
  99:../Generated_Code/BitIoLdd1.c **** static BitIoLdd1_TDeviceData DeviceDataPrv__DEFAULT_RTOS_ALLOC;
 100:../Generated_Code/BitIoLdd1.c **** /*
 101:../Generated_Code/BitIoLdd1.c **** ** ===================================================================
 102:../Generated_Code/BitIoLdd1.c **** **     Method      :  BitIoLdd1_Init (component BitIO_LDD)
 103:../Generated_Code/BitIoLdd1.c **** */
 104:../Generated_Code/BitIoLdd1.c **** /*!
 105:../Generated_Code/BitIoLdd1.c **** **     @brief
 106:../Generated_Code/BitIoLdd1.c **** **         Initializes the device. Allocates memory for the device data
 107:../Generated_Code/BitIoLdd1.c **** **         structure, allocates interrupt vectors and sets interrupt
 108:../Generated_Code/BitIoLdd1.c **** **         priority, sets pin routing, sets timing, etc. If the "Enable
 109:../Generated_Code/BitIoLdd1.c **** **         in init. code" is set to "yes" value then the device is also
 110:../Generated_Code/BitIoLdd1.c **** **         enabled(see the description of the Enable() method). In this
 111:../Generated_Code/BitIoLdd1.c **** **         case the Enable() method is not necessary and needn't to be
 112:../Generated_Code/BitIoLdd1.c **** **         generated. 
 113:../Generated_Code/BitIoLdd1.c **** **     @param
 114:../Generated_Code/BitIoLdd1.c **** **         UserDataPtr     - Pointer to the user or
 115:../Generated_Code/BitIoLdd1.c **** **                           RTOS specific data. This pointer will be
 116:../Generated_Code/BitIoLdd1.c **** **                           passed as an event or callback parameter.
 117:../Generated_Code/BitIoLdd1.c **** **     @return
 118:../Generated_Code/BitIoLdd1.c **** **                         - Pointer to the dynamically allocated private
 119:../Generated_Code/BitIoLdd1.c **** **                           structure or NULL if there was an error.
 120:../Generated_Code/BitIoLdd1.c **** */
 121:../Generated_Code/BitIoLdd1.c **** /* ===================================================================*/
 122:../Generated_Code/BitIoLdd1.c **** LDD_TDeviceData* BitIoLdd1_Init(LDD_TUserData *UserDataPtr)
 123:../Generated_Code/BitIoLdd1.c **** {
  35              		.loc 1 123 0
  36              		.cfi_startproc
  37              		@ args = 0, pretend = 0, frame = 16
  38              		@ frame_needed = 1, uses_anonymous_args = 0
  39              		@ link register save eliminated.
  40 0000 80B4     		push	{r7}
  41              		.cfi_def_cfa_offset 4
  42              		.cfi_offset 7, -4
  43 0002 85B0     		sub	sp, sp, #20
  44              		.cfi_def_cfa_offset 24
  45 0004 00AF     		add	r7, sp, #0
  46              		.cfi_def_cfa_register 7
  47 0006 7860     		str	r0, [r7, #4]
 124:../Generated_Code/BitIoLdd1.c ****   /* Allocate device structure */
 125:../Generated_Code/BitIoLdd1.c ****   BitIoLdd1_TDeviceDataPtr DeviceDataPrv;
 126:../Generated_Code/BitIoLdd1.c **** 
 127:../Generated_Code/BitIoLdd1.c ****   /* {Default RTOS Adapter} Driver memory allocation: Dynamic allocation is simulated by a pointer 
 128:../Generated_Code/BitIoLdd1.c ****   DeviceDataPrv = &DeviceDataPrv__DEFAULT_RTOS_ALLOC;
  48              		.loc 1 128 0
  49 0008 124B     		ldr	r3, .L3
  50 000a FB60     		str	r3, [r7, #12]
 129:../Generated_Code/BitIoLdd1.c ****   DeviceDataPrv->UserDataPtr = UserDataPtr; /* Store the RTOS device structure */
  51              		.loc 1 129 0
  52 000c FB68     		ldr	r3, [r7, #12]
  53 000e 7A68     		ldr	r2, [r7, #4]
  54 0010 1A60     		str	r2, [r3]
 130:../Generated_Code/BitIoLdd1.c ****   /* Configure pin as output */
 131:../Generated_Code/BitIoLdd1.c ****   /* GPIOD_PDDR: PDD|=1 */
 132:../Generated_Code/BitIoLdd1.c ****   GPIOD_PDDR |= GPIO_PDDR_PDD(0x01);
  55              		.loc 1 132 0
  56 0012 114B     		ldr	r3, .L3+4
  57 0014 104A     		ldr	r2, .L3+4
  58 0016 5269     		ldr	r2, [r2, #20]
  59 0018 42F00102 		orr	r2, r2, #1
  60 001c 5A61     		str	r2, [r3, #20]
 133:../Generated_Code/BitIoLdd1.c ****   /* Set initialization value */
 134:../Generated_Code/BitIoLdd1.c ****   /* GPIOD_PDOR: PDO|=1 */
 135:../Generated_Code/BitIoLdd1.c ****   GPIOD_PDOR |= GPIO_PDOR_PDO(0x01);
  61              		.loc 1 135 0
  62 001e 0E4B     		ldr	r3, .L3+4
  63 0020 0D4A     		ldr	r2, .L3+4
  64 0022 1268     		ldr	r2, [r2]
  65 0024 42F00102 		orr	r2, r2, #1
  66 0028 1A60     		str	r2, [r3]
 136:../Generated_Code/BitIoLdd1.c ****   /* Initialization of Port Control register */
 137:../Generated_Code/BitIoLdd1.c ****   /* PORTD_PCR0: ISF=0,MUX=1 */
 138:../Generated_Code/BitIoLdd1.c ****   PORTD_PCR0 = (uint32_t)((PORTD_PCR0 & (uint32_t)~(uint32_t)(
  67              		.loc 1 138 0
  68 002a 0C4A     		ldr	r2, .L3+8
  69 002c 0B4B     		ldr	r3, .L3+8
  70 002e 1B68     		ldr	r3, [r3]
  71 0030 23F08073 		bic	r3, r3, #16777216
  72 0034 23F4E063 		bic	r3, r3, #1792
  73 0038 43F48073 		orr	r3, r3, #256
  74 003c 1360     		str	r3, [r2]
 139:../Generated_Code/BitIoLdd1.c ****                 PORT_PCR_ISF_MASK |
 140:../Generated_Code/BitIoLdd1.c ****                 PORT_PCR_MUX(0x06)
 141:../Generated_Code/BitIoLdd1.c ****                )) | (uint32_t)(
 142:../Generated_Code/BitIoLdd1.c ****                 PORT_PCR_MUX(0x01)
 143:../Generated_Code/BitIoLdd1.c ****                ));
 144:../Generated_Code/BitIoLdd1.c ****   /* Registration of the device structure */
 145:../Generated_Code/BitIoLdd1.c ****   PE_LDD_RegisterDeviceStructure(PE_LDD_COMPONENT_BitIoLdd1_ID,DeviceDataPrv);
  75              		.loc 1 145 0
  76 003e 084B     		ldr	r3, .L3+12
  77 0040 FA68     		ldr	r2, [r7, #12]
  78 0042 1A60     		str	r2, [r3]
 146:../Generated_Code/BitIoLdd1.c ****   return ((LDD_TDeviceData *)DeviceDataPrv);
  79              		.loc 1 146 0
  80 0044 FB68     		ldr	r3, [r7, #12]
 147:../Generated_Code/BitIoLdd1.c **** }
  81              		.loc 1 147 0
  82 0046 1846     		mov	r0, r3
  83 0048 1437     		adds	r7, r7, #20
  84 004a BD46     		mov	sp, r7
  85              		@ sp needed
  86 004c 5DF8047B 		ldr	r7, [sp], #4
  87 0050 7047     		bx	lr
  88              	.L4:
  89 0052 00BF     		.align	2
  90              	.L3:
  91 0054 00000000 		.word	DeviceDataPrv__DEFAULT_RTOS_ALLOC
  92 0058 C0F00F40 		.word	1074786496
  93 005c 00C00440 		.word	1074053120
  94 0060 00000000 		.word	PE_LDD_DeviceDataList
  95              		.cfi_endproc
  96              	.LFE0:
  98              		.section	.text.BitIoLdd1_GetVal,"ax",%progbits
  99              		.align	2
 100              		.global	BitIoLdd1_GetVal
 101              		.thumb
 102              		.thumb_func
 104              	BitIoLdd1_GetVal:
 105              	.LFB1:
 148:../Generated_Code/BitIoLdd1.c **** /*
 149:../Generated_Code/BitIoLdd1.c **** ** ===================================================================
 150:../Generated_Code/BitIoLdd1.c **** **     Method      :  BitIoLdd1_GetVal (component BitIO_LDD)
 151:../Generated_Code/BitIoLdd1.c **** */
 152:../Generated_Code/BitIoLdd1.c **** /*!
 153:../Generated_Code/BitIoLdd1.c **** **     @brief
 154:../Generated_Code/BitIoLdd1.c **** **         Returns the input/output value. If the direction is [input]
 155:../Generated_Code/BitIoLdd1.c **** **         then the input value of the pin is read and returned. If the
 156:../Generated_Code/BitIoLdd1.c **** **         direction is [output] then the last written value is read
 157:../Generated_Code/BitIoLdd1.c **** **         and returned (see <Safe mode> property for limitations).
 158:../Generated_Code/BitIoLdd1.c **** **         This method cannot be disabled if direction is [input].
 159:../Generated_Code/BitIoLdd1.c **** **     @param
 160:../Generated_Code/BitIoLdd1.c **** **         DeviceDataPtr   - Device data structure
 161:../Generated_Code/BitIoLdd1.c **** **                           pointer returned by <Init> method.
 162:../Generated_Code/BitIoLdd1.c **** **     @return
 163:../Generated_Code/BitIoLdd1.c **** **                         - Input or output value. Possible values:
 164:../Generated_Code/BitIoLdd1.c **** **                           <false> - logical "0" (Low level)
 165:../Generated_Code/BitIoLdd1.c **** **                           <true> - logical "1" (High level)
 166:../Generated_Code/BitIoLdd1.c **** */
 167:../Generated_Code/BitIoLdd1.c **** /* ===================================================================*/
 168:../Generated_Code/BitIoLdd1.c **** bool BitIoLdd1_GetVal(LDD_TDeviceData *DeviceDataPtr)
 169:../Generated_Code/BitIoLdd1.c **** {
 106              		.loc 1 169 0
 107              		.cfi_startproc
 108              		@ args = 0, pretend = 0, frame = 16
 109              		@ frame_needed = 1, uses_anonymous_args = 0
 110              		@ link register save eliminated.
 111 0000 80B4     		push	{r7}
 112              		.cfi_def_cfa_offset 4
 113              		.cfi_offset 7, -4
 114 0002 85B0     		sub	sp, sp, #20
 115              		.cfi_def_cfa_offset 24
 116 0004 00AF     		add	r7, sp, #0
 117              		.cfi_def_cfa_register 7
 118 0006 7860     		str	r0, [r7, #4]
 170:../Generated_Code/BitIoLdd1.c ****   uint32_t PortData;                   /* Port data masked according to the bit used */
 171:../Generated_Code/BitIoLdd1.c **** 
 172:../Generated_Code/BitIoLdd1.c ****   (void)DeviceDataPtr;                 /* Parameter is not used, suppress unused argument warning *
 173:../Generated_Code/BitIoLdd1.c ****   PortData = GPIO_PDD_GetPortDataOutput(BitIoLdd1_MODULE_BASE_ADDRESS) & BitIoLdd1_PORT_MASK;
 119              		.loc 1 173 0
 120 0008 084B     		ldr	r3, .L7
 121 000a 1B68     		ldr	r3, [r3]
 122 000c 03F00103 		and	r3, r3, #1
 123 0010 FB60     		str	r3, [r7, #12]
 174:../Generated_Code/BitIoLdd1.c ****   return (PortData != 0U) ? (bool)TRUE : (bool)FALSE;
 124              		.loc 1 174 0
 125 0012 FB68     		ldr	r3, [r7, #12]
 126 0014 002B     		cmp	r3, #0
 127 0016 0CBF     		ite	eq
 128 0018 0023     		moveq	r3, #0
 129 001a 0123     		movne	r3, #1
 130 001c DBB2     		uxtb	r3, r3
 175:../Generated_Code/BitIoLdd1.c **** }
 131              		.loc 1 175 0
 132 001e 1846     		mov	r0, r3
 133 0020 1437     		adds	r7, r7, #20
 134 0022 BD46     		mov	sp, r7
 135              		@ sp needed
 136 0024 5DF8047B 		ldr	r7, [sp], #4
 137 0028 7047     		bx	lr
 138              	.L8:
 139 002a 00BF     		.align	2
 140              	.L7:
 141 002c C0F00F40 		.word	1074786496
 142              		.cfi_endproc
 143              	.LFE1:
 145              		.section	.text.BitIoLdd1_PutVal,"ax",%progbits
 146              		.align	2
 147              		.global	BitIoLdd1_PutVal
 148              		.thumb
 149              		.thumb_func
 151              	BitIoLdd1_PutVal:
 152              	.LFB2:
 176:../Generated_Code/BitIoLdd1.c **** 
 177:../Generated_Code/BitIoLdd1.c **** /*
 178:../Generated_Code/BitIoLdd1.c **** ** ===================================================================
 179:../Generated_Code/BitIoLdd1.c **** **     Method      :  BitIoLdd1_PutVal (component BitIO_LDD)
 180:../Generated_Code/BitIoLdd1.c **** */
 181:../Generated_Code/BitIoLdd1.c **** /*!
 182:../Generated_Code/BitIoLdd1.c **** **     @brief
 183:../Generated_Code/BitIoLdd1.c **** **         The specified output value is set. If the direction is <b>
 184:../Generated_Code/BitIoLdd1.c **** **         input</b>, the component saves the value to a memory or a
 185:../Generated_Code/BitIoLdd1.c **** **         register and this value will be written to the pin after
 186:../Generated_Code/BitIoLdd1.c **** **         switching to the output mode (using <tt>SetDir(TRUE)</tt>;
 187:../Generated_Code/BitIoLdd1.c **** **         see <a href="BitIOProperties.html#SafeMode">Safe mode</a>
 188:../Generated_Code/BitIoLdd1.c **** **         property for limitations). If the direction is <b>output</b>,
 189:../Generated_Code/BitIoLdd1.c **** **         it writes the value to the pin. (Method is available only if
 190:../Generated_Code/BitIoLdd1.c **** **         the direction = <u><tt>output</tt></u> or <u><tt>
 191:../Generated_Code/BitIoLdd1.c **** **         input/output</tt></u>).
 192:../Generated_Code/BitIoLdd1.c **** **     @param
 193:../Generated_Code/BitIoLdd1.c **** **         DeviceDataPtr   - Device data structure
 194:../Generated_Code/BitIoLdd1.c **** **                           pointer returned by <Init> method.
 195:../Generated_Code/BitIoLdd1.c **** **     @param
 196:../Generated_Code/BitIoLdd1.c **** **         Val             - Output value. Possible values:
 197:../Generated_Code/BitIoLdd1.c **** **                           <false> - logical "0" (Low level)
 198:../Generated_Code/BitIoLdd1.c **** **                           <true> - logical "1" (High level)
 199:../Generated_Code/BitIoLdd1.c **** */
 200:../Generated_Code/BitIoLdd1.c **** /* ===================================================================*/
 201:../Generated_Code/BitIoLdd1.c **** void BitIoLdd1_PutVal(LDD_TDeviceData *DeviceDataPtr, bool Val)
 202:../Generated_Code/BitIoLdd1.c **** {
 153              		.loc 1 202 0
 154              		.cfi_startproc
 155              		@ args = 0, pretend = 0, frame = 8
 156              		@ frame_needed = 1, uses_anonymous_args = 0
 157              		@ link register save eliminated.
 158 0000 80B4     		push	{r7}
 159              		.cfi_def_cfa_offset 4
 160              		.cfi_offset 7, -4
 161 0002 83B0     		sub	sp, sp, #12
 162              		.cfi_def_cfa_offset 16
 163 0004 00AF     		add	r7, sp, #0
 164              		.cfi_def_cfa_register 7
 165 0006 7860     		str	r0, [r7, #4]
 166 0008 0B46     		mov	r3, r1
 167 000a FB70     		strb	r3, [r7, #3]
 203:../Generated_Code/BitIoLdd1.c ****   (void)DeviceDataPtr;                 /* Parameter is not used, suppress unused argument warning *
 204:../Generated_Code/BitIoLdd1.c ****   if (Val) {
 168              		.loc 1 204 0
 169 000c FB78     		ldrb	r3, [r7, #3]	@ zero_extendqisi2
 170 000e 002B     		cmp	r3, #0
 171 0010 03D0     		beq	.L10
 205:../Generated_Code/BitIoLdd1.c ****     GPIO_PDD_SetPortDataOutputMask(BitIoLdd1_MODULE_BASE_ADDRESS, BitIoLdd1_PORT_MASK);
 172              		.loc 1 205 0
 173 0012 064B     		ldr	r3, .L12
 174 0014 0122     		movs	r2, #1
 175 0016 5A60     		str	r2, [r3, #4]
 176 0018 02E0     		b	.L9
 177              	.L10:
 206:../Generated_Code/BitIoLdd1.c ****   } else { /* !Val */
 207:../Generated_Code/BitIoLdd1.c ****     GPIO_PDD_ClearPortDataOutputMask(BitIoLdd1_MODULE_BASE_ADDRESS, BitIoLdd1_PORT_MASK);
 178              		.loc 1 207 0
 179 001a 044B     		ldr	r3, .L12
 180 001c 0122     		movs	r2, #1
 181 001e 9A60     		str	r2, [r3, #8]
 182              	.L9:
 208:../Generated_Code/BitIoLdd1.c ****   } /* !Val */
 209:../Generated_Code/BitIoLdd1.c **** }
 183              		.loc 1 209 0
 184 0020 0C37     		adds	r7, r7, #12
 185 0022 BD46     		mov	sp, r7
 186              		@ sp needed
 187 0024 5DF8047B 		ldr	r7, [sp], #4
 188 0028 7047     		bx	lr
 189              	.L13:
 190 002a 00BF     		.align	2
 191              	.L12:
 192 002c C0F00F40 		.word	1074786496
 193              		.cfi_endproc
 194              	.LFE2:
 196              		.section	.text.BitIoLdd1_ClrVal,"ax",%progbits
 197              		.align	2
 198              		.global	BitIoLdd1_ClrVal
 199              		.thumb
 200              		.thumb_func
 202              	BitIoLdd1_ClrVal:
 203              	.LFB3:
 210:../Generated_Code/BitIoLdd1.c **** 
 211:../Generated_Code/BitIoLdd1.c **** /*
 212:../Generated_Code/BitIoLdd1.c **** ** ===================================================================
 213:../Generated_Code/BitIoLdd1.c **** **     Method      :  BitIoLdd1_ClrVal (component BitIO_LDD)
 214:../Generated_Code/BitIoLdd1.c **** */
 215:../Generated_Code/BitIoLdd1.c **** /*!
 216:../Generated_Code/BitIoLdd1.c **** **     @brief
 217:../Generated_Code/BitIoLdd1.c **** **         Clears (set to zero) the output value. It is equivalent to
 218:../Generated_Code/BitIoLdd1.c **** **         the [PutVal(FALSE)]. This method is available only if the
 219:../Generated_Code/BitIoLdd1.c **** **         direction = _[output]_ or _[input/output]_.
 220:../Generated_Code/BitIoLdd1.c **** **     @param
 221:../Generated_Code/BitIoLdd1.c **** **         DeviceDataPtr   - Pointer to device data
 222:../Generated_Code/BitIoLdd1.c **** **                           structure returned by <Init> method.
 223:../Generated_Code/BitIoLdd1.c **** */
 224:../Generated_Code/BitIoLdd1.c **** /* ===================================================================*/
 225:../Generated_Code/BitIoLdd1.c **** void BitIoLdd1_ClrVal(LDD_TDeviceData *DeviceDataPtr)
 226:../Generated_Code/BitIoLdd1.c **** {
 204              		.loc 1 226 0
 205              		.cfi_startproc
 206              		@ args = 0, pretend = 0, frame = 8
 207              		@ frame_needed = 1, uses_anonymous_args = 0
 208              		@ link register save eliminated.
 209 0000 80B4     		push	{r7}
 210              		.cfi_def_cfa_offset 4
 211              		.cfi_offset 7, -4
 212 0002 83B0     		sub	sp, sp, #12
 213              		.cfi_def_cfa_offset 16
 214 0004 00AF     		add	r7, sp, #0
 215              		.cfi_def_cfa_register 7
 216 0006 7860     		str	r0, [r7, #4]
 227:../Generated_Code/BitIoLdd1.c ****   (void)DeviceDataPtr;                 /* Parameter is not used, suppress unused argument warning *
 228:../Generated_Code/BitIoLdd1.c ****   GPIO_PDD_ClearPortDataOutputMask(BitIoLdd1_MODULE_BASE_ADDRESS, BitIoLdd1_PORT_MASK);
 217              		.loc 1 228 0
 218 0008 034B     		ldr	r3, .L15
 219 000a 0122     		movs	r2, #1
 220 000c 9A60     		str	r2, [r3, #8]
 229:../Generated_Code/BitIoLdd1.c **** }
 221              		.loc 1 229 0
 222 000e 0C37     		adds	r7, r7, #12
 223 0010 BD46     		mov	sp, r7
 224              		@ sp needed
 225 0012 5DF8047B 		ldr	r7, [sp], #4
 226 0016 7047     		bx	lr
 227              	.L16:
 228              		.align	2
 229              	.L15:
 230 0018 C0F00F40 		.word	1074786496
 231              		.cfi_endproc
 232              	.LFE3:
 234              		.section	.text.BitIoLdd1_SetVal,"ax",%progbits
 235              		.align	2
 236              		.global	BitIoLdd1_SetVal
 237              		.thumb
 238              		.thumb_func
 240              	BitIoLdd1_SetVal:
 241              	.LFB4:
 230:../Generated_Code/BitIoLdd1.c **** 
 231:../Generated_Code/BitIoLdd1.c **** /*
 232:../Generated_Code/BitIoLdd1.c **** ** ===================================================================
 233:../Generated_Code/BitIoLdd1.c **** **     Method      :  BitIoLdd1_SetVal (component BitIO_LDD)
 234:../Generated_Code/BitIoLdd1.c **** */
 235:../Generated_Code/BitIoLdd1.c **** /*!
 236:../Generated_Code/BitIoLdd1.c **** **     @brief
 237:../Generated_Code/BitIoLdd1.c **** **         Sets (to one) the output value. It is equivalent to the
 238:../Generated_Code/BitIoLdd1.c **** **         [PutVal(TRUE)]. This method is available only if the
 239:../Generated_Code/BitIoLdd1.c **** **         direction = _[output]_ or _[input/output]_.
 240:../Generated_Code/BitIoLdd1.c **** **     @param
 241:../Generated_Code/BitIoLdd1.c **** **         DeviceDataPtr   - Pointer to device data
 242:../Generated_Code/BitIoLdd1.c **** **                           structure returned by <Init> method.
 243:../Generated_Code/BitIoLdd1.c **** */
 244:../Generated_Code/BitIoLdd1.c **** /* ===================================================================*/
 245:../Generated_Code/BitIoLdd1.c **** void BitIoLdd1_SetVal(LDD_TDeviceData *DeviceDataPtr)
 246:../Generated_Code/BitIoLdd1.c **** {
 242              		.loc 1 246 0
 243              		.cfi_startproc
 244              		@ args = 0, pretend = 0, frame = 8
 245              		@ frame_needed = 1, uses_anonymous_args = 0
 246              		@ link register save eliminated.
 247 0000 80B4     		push	{r7}
 248              		.cfi_def_cfa_offset 4
 249              		.cfi_offset 7, -4
 250 0002 83B0     		sub	sp, sp, #12
 251              		.cfi_def_cfa_offset 16
 252 0004 00AF     		add	r7, sp, #0
 253              		.cfi_def_cfa_register 7
 254 0006 7860     		str	r0, [r7, #4]
 247:../Generated_Code/BitIoLdd1.c ****   (void)DeviceDataPtr;                 /* Parameter is not used, suppress unused argument warning *
 248:../Generated_Code/BitIoLdd1.c ****   GPIO_PDD_SetPortDataOutputMask(BitIoLdd1_MODULE_BASE_ADDRESS, BitIoLdd1_PORT_MASK);
 255              		.loc 1 248 0
 256 0008 034B     		ldr	r3, .L18
 257 000a 0122     		movs	r2, #1
 258 000c 5A60     		str	r2, [r3, #4]
 249:../Generated_Code/BitIoLdd1.c **** }
 259              		.loc 1 249 0
 260 000e 0C37     		adds	r7, r7, #12
 261 0010 BD46     		mov	sp, r7
 262              		@ sp needed
 263 0012 5DF8047B 		ldr	r7, [sp], #4
 264 0016 7047     		bx	lr
 265              	.L19:
 266              		.align	2
 267              	.L18:
 268 0018 C0F00F40 		.word	1074786496
 269              		.cfi_endproc
 270              	.LFE4:
 272              		.section	.text.BitIoLdd1_NegVal,"ax",%progbits
 273              		.align	2
 274              		.global	BitIoLdd1_NegVal
 275              		.thumb
 276              		.thumb_func
 278              	BitIoLdd1_NegVal:
 279              	.LFB5:
 250:../Generated_Code/BitIoLdd1.c **** 
 251:../Generated_Code/BitIoLdd1.c **** /*
 252:../Generated_Code/BitIoLdd1.c **** ** ===================================================================
 253:../Generated_Code/BitIoLdd1.c **** **     Method      :  BitIoLdd1_NegVal (component BitIO_LDD)
 254:../Generated_Code/BitIoLdd1.c **** */
 255:../Generated_Code/BitIoLdd1.c **** /*!
 256:../Generated_Code/BitIoLdd1.c **** **     @brief
 257:../Generated_Code/BitIoLdd1.c **** **         Negates (inverts) the output value. It is equivalent to the
 258:../Generated_Code/BitIoLdd1.c **** **         [PutVal(!GetVal())]. This method is available only if the
 259:../Generated_Code/BitIoLdd1.c **** **         direction = _[output]_ or _[input/output]_.
 260:../Generated_Code/BitIoLdd1.c **** **     @param
 261:../Generated_Code/BitIoLdd1.c **** **         DeviceDataPtr   - Pointer to device data
 262:../Generated_Code/BitIoLdd1.c **** **                           structure returned by <Init> method.
 263:../Generated_Code/BitIoLdd1.c **** */
 264:../Generated_Code/BitIoLdd1.c **** /* ===================================================================*/
 265:../Generated_Code/BitIoLdd1.c **** void BitIoLdd1_NegVal(LDD_TDeviceData *DeviceDataPtr)
 266:../Generated_Code/BitIoLdd1.c **** {
 280              		.loc 1 266 0
 281              		.cfi_startproc
 282              		@ args = 0, pretend = 0, frame = 8
 283              		@ frame_needed = 1, uses_anonymous_args = 0
 284              		@ link register save eliminated.
 285 0000 80B4     		push	{r7}
 286              		.cfi_def_cfa_offset 4
 287              		.cfi_offset 7, -4
 288 0002 83B0     		sub	sp, sp, #12
 289              		.cfi_def_cfa_offset 16
 290 0004 00AF     		add	r7, sp, #0
 291              		.cfi_def_cfa_register 7
 292 0006 7860     		str	r0, [r7, #4]
 267:../Generated_Code/BitIoLdd1.c ****   (void)DeviceDataPtr;                 /* Parameter is not used, suppress unused argument warning *
 268:../Generated_Code/BitIoLdd1.c ****   GPIO_PDD_TogglePortDataOutputMask(BitIoLdd1_MODULE_BASE_ADDRESS, BitIoLdd1_PORT_MASK);
 293              		.loc 1 268 0
 294 0008 034B     		ldr	r3, .L21
 295 000a 0122     		movs	r2, #1
 296 000c DA60     		str	r2, [r3, #12]
 269:../Generated_Code/BitIoLdd1.c **** }
 297              		.loc 1 269 0
 298 000e 0C37     		adds	r7, r7, #12
 299 0010 BD46     		mov	sp, r7
 300              		@ sp needed
 301 0012 5DF8047B 		ldr	r7, [sp], #4
 302 0016 7047     		bx	lr
 303              	.L22:
 304              		.align	2
 305              	.L21:
 306 0018 C0F00F40 		.word	1074786496
 307              		.cfi_endproc
 308              	.LFE5:
 310              		.text
 311              	.Letext0:
 312              		.file 2 "c:\\freescale\\kds_v3\\toolchain\\arm-none-eabi\\include\\machine\\_default_types.h"
 313              		.file 3 "c:\\freescale\\kds_v3\\toolchain\\arm-none-eabi\\include\\stdint.h"
 314              		.file 4 "../Generated_Code/PE_Types.h"
 315              		.file 5 "C:/INTRO_HS18/IntroAronAlex/TEAM_Robot/Static_Code/IO_Map/MK22F12.h"