   1              		.syntax unified
   2              		.cpu cortex-m4
   3              		.eabi_attribute 27, 3
   4              		.eabi_attribute 28, 1
   5              		.fpu fpv4-sp-d16
   6              		.eabi_attribute 20, 1
   7              		.eabi_attribute 21, 1
   8              		.eabi_attribute 23, 3
   9              		.eabi_attribute 24, 1
  10              		.eabi_attribute 25, 1
  11              		.eabi_attribute 26, 1
  12              		.eabi_attribute 30, 6
  13              		.eabi_attribute 34, 1
  14              		.eabi_attribute 18, 4
  15              		.thumb
  16              		.file	"BitIoLdd5.c"
  17              		.text
  18              	.Ltext0:
  19              		.cfi_sections	.debug_frame
  20              		.section	.bss.DeviceDataPrv__DEFAULT_RTOS_ALLOC,"aw",%nobits
  21              		.align	2
  24              	DeviceDataPrv__DEFAULT_RTOS_ALLOC:
  25 0000 00000000 		.space	4
  26              		.section	.text.BitIoLdd5_Init,"ax",%progbits
  27              		.align	2
  28              		.global	BitIoLdd5_Init
  29              		.thumb
  30              		.thumb_func
  32              	BitIoLdd5_Init:
  33              	.LFB0:
  34              		.file 1 "../Generated_Code/BitIoLdd5.c"
   1:../Generated_Code/BitIoLdd5.c **** /* ###################################################################
   2:../Generated_Code/BitIoLdd5.c **** **     This component module is generated by Processor Expert. Do not modify it.
   3:../Generated_Code/BitIoLdd5.c **** **     Filename    : BitIoLdd5.c
   4:../Generated_Code/BitIoLdd5.c **** **     Project     : TEAM_Robot
   5:../Generated_Code/BitIoLdd5.c **** **     Processor   : MK22FX512VLK12
   6:../Generated_Code/BitIoLdd5.c **** **     Component   : BitIO_LDD
   7:../Generated_Code/BitIoLdd5.c **** **     Version     : Component 01.033, Driver 01.03, CPU db: 3.00.000
   8:../Generated_Code/BitIoLdd5.c **** **     Repository  : Kinetis
   9:../Generated_Code/BitIoLdd5.c **** **     Compiler    : GNU C Compiler
  10:../Generated_Code/BitIoLdd5.c **** **     Date/Time   : 2018-09-28, 15:03, # CodeGen: 0
  11:../Generated_Code/BitIoLdd5.c **** **     Abstract    :
  12:../Generated_Code/BitIoLdd5.c **** **         The HAL BitIO component provides a low level API for unified
  13:../Generated_Code/BitIoLdd5.c **** **         access to general purpose digital input/output pins across
  14:../Generated_Code/BitIoLdd5.c **** **         various device designs.
  15:../Generated_Code/BitIoLdd5.c **** **
  16:../Generated_Code/BitIoLdd5.c **** **         RTOS drivers using HAL BitIO API are simpler and more
  17:../Generated_Code/BitIoLdd5.c **** **         portable to various microprocessors.
  18:../Generated_Code/BitIoLdd5.c **** **     Settings    :
  19:../Generated_Code/BitIoLdd5.c **** **          Component name                                 : BitIoLdd5
  20:../Generated_Code/BitIoLdd5.c **** **          Pin for I/O                                    : ADC0_SE5b/PTD1/SPI0_SCK/UART2_CTS_b/FT
  21:../Generated_Code/BitIoLdd5.c **** **          Pin signal                                     : 
  22:../Generated_Code/BitIoLdd5.c **** **          Direction                                      : Output
  23:../Generated_Code/BitIoLdd5.c **** **          Initialization                                 : 
  24:../Generated_Code/BitIoLdd5.c **** **            Init. direction                              : Output
  25:../Generated_Code/BitIoLdd5.c **** **            Init. value                                  : 0
  26:../Generated_Code/BitIoLdd5.c **** **            Auto initialization                          : yes
  27:../Generated_Code/BitIoLdd5.c **** **          Safe mode                                      : yes
  28:../Generated_Code/BitIoLdd5.c **** **     Contents    :
  29:../Generated_Code/BitIoLdd5.c **** **         Init   - LDD_TDeviceData* BitIoLdd5_Init(LDD_TUserData *UserDataPtr);
  30:../Generated_Code/BitIoLdd5.c **** **         GetVal - bool BitIoLdd5_GetVal(LDD_TDeviceData *DeviceDataPtr);
  31:../Generated_Code/BitIoLdd5.c **** **         ClrVal - void BitIoLdd5_ClrVal(LDD_TDeviceData *DeviceDataPtr);
  32:../Generated_Code/BitIoLdd5.c **** **         SetVal - void BitIoLdd5_SetVal(LDD_TDeviceData *DeviceDataPtr);
  33:../Generated_Code/BitIoLdd5.c **** **         NegVal - void BitIoLdd5_NegVal(LDD_TDeviceData *DeviceDataPtr);
  34:../Generated_Code/BitIoLdd5.c **** **
  35:../Generated_Code/BitIoLdd5.c **** **     Copyright : 1997 - 2015 Freescale Semiconductor, Inc. 
  36:../Generated_Code/BitIoLdd5.c **** **     All Rights Reserved.
  37:../Generated_Code/BitIoLdd5.c **** **     
  38:../Generated_Code/BitIoLdd5.c **** **     Redistribution and use in source and binary forms, with or without modification,
  39:../Generated_Code/BitIoLdd5.c **** **     are permitted provided that the following conditions are met:
  40:../Generated_Code/BitIoLdd5.c **** **     
  41:../Generated_Code/BitIoLdd5.c **** **     o Redistributions of source code must retain the above copyright notice, this list
  42:../Generated_Code/BitIoLdd5.c **** **       of conditions and the following disclaimer.
  43:../Generated_Code/BitIoLdd5.c **** **     
  44:../Generated_Code/BitIoLdd5.c **** **     o Redistributions in binary form must reproduce the above copyright notice, this
  45:../Generated_Code/BitIoLdd5.c **** **       list of conditions and the following disclaimer in the documentation and/or
  46:../Generated_Code/BitIoLdd5.c **** **       other materials provided with the distribution.
  47:../Generated_Code/BitIoLdd5.c **** **     
  48:../Generated_Code/BitIoLdd5.c **** **     o Neither the name of Freescale Semiconductor, Inc. nor the names of its
  49:../Generated_Code/BitIoLdd5.c **** **       contributors may be used to endorse or promote products derived from this
  50:../Generated_Code/BitIoLdd5.c **** **       software without specific prior written permission.
  51:../Generated_Code/BitIoLdd5.c **** **     
  52:../Generated_Code/BitIoLdd5.c **** **     THIS SOFTWARE IS PROVIDED BY THE COPYRIGHT HOLDERS AND CONTRIBUTORS "AS IS" AND
  53:../Generated_Code/BitIoLdd5.c **** **     ANY EXPRESS OR IMPLIED WARRANTIES, INCLUDING, BUT NOT LIMITED TO, THE IMPLIED
  54:../Generated_Code/BitIoLdd5.c **** **     WARRANTIES OF MERCHANTABILITY AND FITNESS FOR A PARTICULAR PURPOSE ARE
  55:../Generated_Code/BitIoLdd5.c **** **     DISCLAIMED. IN NO EVENT SHALL THE COPYRIGHT HOLDER OR CONTRIBUTORS BE LIABLE FOR
  56:../Generated_Code/BitIoLdd5.c **** **     ANY DIRECT, INDIRECT, INCIDENTAL, SPECIAL, EXEMPLARY, OR CONSEQUENTIAL DAMAGES
  57:../Generated_Code/BitIoLdd5.c **** **     (INCLUDING, BUT NOT LIMITED TO, PROCUREMENT OF SUBSTITUTE GOODS OR SERVICES;
  58:../Generated_Code/BitIoLdd5.c **** **     LOSS OF USE, DATA, OR PROFITS; OR BUSINESS INTERRUPTION) HOWEVER CAUSED AND ON
  59:../Generated_Code/BitIoLdd5.c **** **     ANY THEORY OF LIABILITY, WHETHER IN CONTRACT, STRICT LIABILITY, OR TORT
  60:../Generated_Code/BitIoLdd5.c **** **     (INCLUDING NEGLIGENCE OR OTHERWISE) ARISING IN ANY WAY OUT OF THE USE OF THIS
  61:../Generated_Code/BitIoLdd5.c **** **     SOFTWARE, EVEN IF ADVISED OF THE POSSIBILITY OF SUCH DAMAGE.
  62:../Generated_Code/BitIoLdd5.c **** **     
  63:../Generated_Code/BitIoLdd5.c **** **     http: www.freescale.com
  64:../Generated_Code/BitIoLdd5.c **** **     mail: support@freescale.com
  65:../Generated_Code/BitIoLdd5.c **** ** ###################################################################*/
  66:../Generated_Code/BitIoLdd5.c **** /*!
  67:../Generated_Code/BitIoLdd5.c **** ** @file BitIoLdd5.c
  68:../Generated_Code/BitIoLdd5.c **** ** @version 01.03
  69:../Generated_Code/BitIoLdd5.c **** ** @brief
  70:../Generated_Code/BitIoLdd5.c **** **         The HAL BitIO component provides a low level API for unified
  71:../Generated_Code/BitIoLdd5.c **** **         access to general purpose digital input/output pins across
  72:../Generated_Code/BitIoLdd5.c **** **         various device designs.
  73:../Generated_Code/BitIoLdd5.c **** **
  74:../Generated_Code/BitIoLdd5.c **** **         RTOS drivers using HAL BitIO API are simpler and more
  75:../Generated_Code/BitIoLdd5.c **** **         portable to various microprocessors.
  76:../Generated_Code/BitIoLdd5.c **** */         
  77:../Generated_Code/BitIoLdd5.c **** /*!
  78:../Generated_Code/BitIoLdd5.c **** **  @addtogroup BitIoLdd5_module BitIoLdd5 module documentation
  79:../Generated_Code/BitIoLdd5.c **** **  @{
  80:../Generated_Code/BitIoLdd5.c **** */         
  81:../Generated_Code/BitIoLdd5.c **** 
  82:../Generated_Code/BitIoLdd5.c **** /* MODULE BitIoLdd5. */
  83:../Generated_Code/BitIoLdd5.c **** 
  84:../Generated_Code/BitIoLdd5.c **** /* {Default RTOS Adapter} No RTOS includes */
  85:../Generated_Code/BitIoLdd5.c **** #include "BitIoLdd5.h"
  86:../Generated_Code/BitIoLdd5.c **** 
  87:../Generated_Code/BitIoLdd5.c **** #ifdef __cplusplus
  88:../Generated_Code/BitIoLdd5.c **** extern "C" {
  89:../Generated_Code/BitIoLdd5.c **** #endif 
  90:../Generated_Code/BitIoLdd5.c **** 
  91:../Generated_Code/BitIoLdd5.c **** typedef struct {
  92:../Generated_Code/BitIoLdd5.c ****   LDD_TUserData *UserDataPtr;          /* Pointer to user data */
  93:../Generated_Code/BitIoLdd5.c **** } BitIoLdd5_TDeviceData;               /* Device data structure type */
  94:../Generated_Code/BitIoLdd5.c **** 
  95:../Generated_Code/BitIoLdd5.c **** typedef BitIoLdd5_TDeviceData *BitIoLdd5_TDeviceDataPtr ; /* Pointer to the device data structure. 
  96:../Generated_Code/BitIoLdd5.c **** 
  97:../Generated_Code/BitIoLdd5.c **** /* {Default RTOS Adapter} Static object used for simulation of dynamic driver memory allocation */
  98:../Generated_Code/BitIoLdd5.c **** static BitIoLdd5_TDeviceData DeviceDataPrv__DEFAULT_RTOS_ALLOC;
  99:../Generated_Code/BitIoLdd5.c **** /*
 100:../Generated_Code/BitIoLdd5.c **** ** ===================================================================
 101:../Generated_Code/BitIoLdd5.c **** **     Method      :  BitIoLdd5_Init (component BitIO_LDD)
 102:../Generated_Code/BitIoLdd5.c **** */
 103:../Generated_Code/BitIoLdd5.c **** /*!
 104:../Generated_Code/BitIoLdd5.c **** **     @brief
 105:../Generated_Code/BitIoLdd5.c **** **         Initializes the device. Allocates memory for the device data
 106:../Generated_Code/BitIoLdd5.c **** **         structure, allocates interrupt vectors and sets interrupt
 107:../Generated_Code/BitIoLdd5.c **** **         priority, sets pin routing, sets timing, etc. If the "Enable
 108:../Generated_Code/BitIoLdd5.c **** **         in init. code" is set to "yes" value then the device is also
 109:../Generated_Code/BitIoLdd5.c **** **         enabled(see the description of the Enable() method). In this
 110:../Generated_Code/BitIoLdd5.c **** **         case the Enable() method is not necessary and needn't to be
 111:../Generated_Code/BitIoLdd5.c **** **         generated. 
 112:../Generated_Code/BitIoLdd5.c **** **     @param
 113:../Generated_Code/BitIoLdd5.c **** **         UserDataPtr     - Pointer to the user or
 114:../Generated_Code/BitIoLdd5.c **** **                           RTOS specific data. This pointer will be
 115:../Generated_Code/BitIoLdd5.c **** **                           passed as an event or callback parameter.
 116:../Generated_Code/BitIoLdd5.c **** **     @return
 117:../Generated_Code/BitIoLdd5.c **** **                         - Pointer to the dynamically allocated private
 118:../Generated_Code/BitIoLdd5.c **** **                           structure or NULL if there was an error.
 119:../Generated_Code/BitIoLdd5.c **** */
 120:../Generated_Code/BitIoLdd5.c **** /* ===================================================================*/
 121:../Generated_Code/BitIoLdd5.c **** LDD_TDeviceData* BitIoLdd5_Init(LDD_TUserData *UserDataPtr)
 122:../Generated_Code/BitIoLdd5.c **** {
  35              		.loc 1 122 0
  36              		.cfi_startproc
  37              		@ args = 0, pretend = 0, frame = 16
  38              		@ frame_needed = 1, uses_anonymous_args = 0
  39              		@ link register save eliminated.
  40 0000 80B4     		push	{r7}
  41              		.cfi_def_cfa_offset 4
  42              		.cfi_offset 7, -4
  43 0002 85B0     		sub	sp, sp, #20
  44              		.cfi_def_cfa_offset 24
  45 0004 00AF     		add	r7, sp, #0
  46              		.cfi_def_cfa_register 7
  47 0006 7860     		str	r0, [r7, #4]
 123:../Generated_Code/BitIoLdd5.c ****   /* Allocate device structure */
 124:../Generated_Code/BitIoLdd5.c ****   BitIoLdd5_TDeviceDataPtr DeviceDataPrv;
 125:../Generated_Code/BitIoLdd5.c **** 
 126:../Generated_Code/BitIoLdd5.c ****   /* {Default RTOS Adapter} Driver memory allocation: Dynamic allocation is simulated by a pointer 
 127:../Generated_Code/BitIoLdd5.c ****   DeviceDataPrv = &DeviceDataPrv__DEFAULT_RTOS_ALLOC;
  48              		.loc 1 127 0
  49 0008 124B     		ldr	r3, .L3
  50 000a FB60     		str	r3, [r7, #12]
 128:../Generated_Code/BitIoLdd5.c ****   DeviceDataPrv->UserDataPtr = UserDataPtr; /* Store the RTOS device structure */
  51              		.loc 1 128 0
  52 000c FB68     		ldr	r3, [r7, #12]
  53 000e 7A68     		ldr	r2, [r7, #4]
  54 0010 1A60     		str	r2, [r3]
 129:../Generated_Code/BitIoLdd5.c ****   /* Configure pin as output */
 130:../Generated_Code/BitIoLdd5.c ****   /* GPIOD_PDDR: PDD|=2 */
 131:../Generated_Code/BitIoLdd5.c ****   GPIOD_PDDR |= GPIO_PDDR_PDD(0x02);
  55              		.loc 1 131 0
  56 0012 114B     		ldr	r3, .L3+4
  57 0014 104A     		ldr	r2, .L3+4
  58 0016 5269     		ldr	r2, [r2, #20]
  59 0018 42F00202 		orr	r2, r2, #2
  60 001c 5A61     		str	r2, [r3, #20]
 132:../Generated_Code/BitIoLdd5.c ****   /* Set initialization value */
 133:../Generated_Code/BitIoLdd5.c ****   /* GPIOD_PDOR: PDO&=~2 */
 134:../Generated_Code/BitIoLdd5.c ****   GPIOD_PDOR &= (uint32_t)~(uint32_t)(GPIO_PDOR_PDO(0x02));
  61              		.loc 1 134 0
  62 001e 0E4B     		ldr	r3, .L3+4
  63 0020 0D4A     		ldr	r2, .L3+4
  64 0022 1268     		ldr	r2, [r2]
  65 0024 22F00202 		bic	r2, r2, #2
  66 0028 1A60     		str	r2, [r3]
 135:../Generated_Code/BitIoLdd5.c ****   /* Initialization of Port Control register */
 136:../Generated_Code/BitIoLdd5.c ****   /* PORTD_PCR1: ISF=0,MUX=1 */
 137:../Generated_Code/BitIoLdd5.c ****   PORTD_PCR1 = (uint32_t)((PORTD_PCR1 & (uint32_t)~(uint32_t)(
  67              		.loc 1 137 0
  68 002a 0C4A     		ldr	r2, .L3+8
  69 002c 0B4B     		ldr	r3, .L3+8
  70 002e 5B68     		ldr	r3, [r3, #4]
  71 0030 23F08073 		bic	r3, r3, #16777216
  72 0034 23F4E063 		bic	r3, r3, #1792
  73 0038 43F48073 		orr	r3, r3, #256
  74 003c 5360     		str	r3, [r2, #4]
 138:../Generated_Code/BitIoLdd5.c ****                 PORT_PCR_ISF_MASK |
 139:../Generated_Code/BitIoLdd5.c ****                 PORT_PCR_MUX(0x06)
 140:../Generated_Code/BitIoLdd5.c ****                )) | (uint32_t)(
 141:../Generated_Code/BitIoLdd5.c ****                 PORT_PCR_MUX(0x01)
 142:../Generated_Code/BitIoLdd5.c ****                ));
 143:../Generated_Code/BitIoLdd5.c ****   /* Registration of the device structure */
 144:../Generated_Code/BitIoLdd5.c ****   PE_LDD_RegisterDeviceStructure(PE_LDD_COMPONENT_BitIoLdd5_ID,DeviceDataPrv);
  75              		.loc 1 144 0
  76 003e 084B     		ldr	r3, .L3+12
  77 0040 FA68     		ldr	r2, [r7, #12]
  78 0042 1A61     		str	r2, [r3, #16]
 145:../Generated_Code/BitIoLdd5.c ****   return ((LDD_TDeviceData *)DeviceDataPrv);
  79              		.loc 1 145 0
  80 0044 FB68     		ldr	r3, [r7, #12]
 146:../Generated_Code/BitIoLdd5.c **** }
  81              		.loc 1 146 0
  82 0046 1846     		mov	r0, r3
  83 0048 1437     		adds	r7, r7, #20
  84 004a BD46     		mov	sp, r7
  85              		@ sp needed
  86 004c 5DF8047B 		ldr	r7, [sp], #4
  87 0050 7047     		bx	lr
  88              	.L4:
  89 0052 00BF     		.align	2
  90              	.L3:
  91 0054 00000000 		.word	DeviceDataPrv__DEFAULT_RTOS_ALLOC
  92 0058 C0F00F40 		.word	1074786496
  93 005c 00C00440 		.word	1074053120
  94 0060 00000000 		.word	PE_LDD_DeviceDataList
  95              		.cfi_endproc
  96              	.LFE0:
  98              		.section	.text.BitIoLdd5_GetVal,"ax",%progbits
  99              		.align	2
 100              		.global	BitIoLdd5_GetVal
 101              		.thumb
 102              		.thumb_func
 104              	BitIoLdd5_GetVal:
 105              	.LFB1:
 147:../Generated_Code/BitIoLdd5.c **** /*
 148:../Generated_Code/BitIoLdd5.c **** ** ===================================================================
 149:../Generated_Code/BitIoLdd5.c **** **     Method      :  BitIoLdd5_GetVal (component BitIO_LDD)
 150:../Generated_Code/BitIoLdd5.c **** */
 151:../Generated_Code/BitIoLdd5.c **** /*!
 152:../Generated_Code/BitIoLdd5.c **** **     @brief
 153:../Generated_Code/BitIoLdd5.c **** **         Returns the input/output value. If the direction is [input]
 154:../Generated_Code/BitIoLdd5.c **** **         then the input value of the pin is read and returned. If the
 155:../Generated_Code/BitIoLdd5.c **** **         direction is [output] then the last written value is read
 156:../Generated_Code/BitIoLdd5.c **** **         and returned (see <Safe mode> property for limitations).
 157:../Generated_Code/BitIoLdd5.c **** **         This method cannot be disabled if direction is [input].
 158:../Generated_Code/BitIoLdd5.c **** **     @param
 159:../Generated_Code/BitIoLdd5.c **** **         DeviceDataPtr   - Device data structure
 160:../Generated_Code/BitIoLdd5.c **** **                           pointer returned by <Init> method.
 161:../Generated_Code/BitIoLdd5.c **** **     @return
 162:../Generated_Code/BitIoLdd5.c **** **                         - Input or output value. Possible values:
 163:../Generated_Code/BitIoLdd5.c **** **                           <false> - logical "0" (Low level)
 164:../Generated_Code/BitIoLdd5.c **** **                           <true> - logical "1" (High level)
 165:../Generated_Code/BitIoLdd5.c **** */
 166:../Generated_Code/BitIoLdd5.c **** /* ===================================================================*/
 167:../Generated_Code/BitIoLdd5.c **** bool BitIoLdd5_GetVal(LDD_TDeviceData *DeviceDataPtr)
 168:../Generated_Code/BitIoLdd5.c **** {
 106              		.loc 1 168 0
 107              		.cfi_startproc
 108              		@ args = 0, pretend = 0, frame = 16
 109              		@ frame_needed = 1, uses_anonymous_args = 0
 110              		@ link register save eliminated.
 111 0000 80B4     		push	{r7}
 112              		.cfi_def_cfa_offset 4
 113              		.cfi_offset 7, -4
 114 0002 85B0     		sub	sp, sp, #20
 115              		.cfi_def_cfa_offset 24
 116 0004 00AF     		add	r7, sp, #0
 117              		.cfi_def_cfa_register 7
 118 0006 7860     		str	r0, [r7, #4]
 169:../Generated_Code/BitIoLdd5.c ****   uint32_t PortData;                   /* Port data masked according to the bit used */
 170:../Generated_Code/BitIoLdd5.c **** 
 171:../Generated_Code/BitIoLdd5.c ****   (void)DeviceDataPtr;                 /* Parameter is not used, suppress unused argument warning *
 172:../Generated_Code/BitIoLdd5.c ****   PortData = GPIO_PDD_GetPortDataOutput(BitIoLdd5_MODULE_BASE_ADDRESS) & BitIoLdd5_PORT_MASK;
 119              		.loc 1 172 0
 120 0008 084B     		ldr	r3, .L7
 121 000a 1B68     		ldr	r3, [r3]
 122 000c 03F00203 		and	r3, r3, #2
 123 0010 FB60     		str	r3, [r7, #12]
 173:../Generated_Code/BitIoLdd5.c ****   return (PortData != 0U) ? (bool)TRUE : (bool)FALSE;
 124              		.loc 1 173 0
 125 0012 FB68     		ldr	r3, [r7, #12]
 126 0014 002B     		cmp	r3, #0
 127 0016 0CBF     		ite	eq
 128 0018 0023     		moveq	r3, #0
 129 001a 0123     		movne	r3, #1
 130 001c DBB2     		uxtb	r3, r3
 174:../Generated_Code/BitIoLdd5.c **** }
 131              		.loc 1 174 0
 132 001e 1846     		mov	r0, r3
 133 0020 1437     		adds	r7, r7, #20
 134 0022 BD46     		mov	sp, r7
 135              		@ sp needed
 136 0024 5DF8047B 		ldr	r7, [sp], #4
 137 0028 7047     		bx	lr
 138              	.L8:
 139 002a 00BF     		.align	2
 140              	.L7:
 141 002c C0F00F40 		.word	1074786496
 142              		.cfi_endproc
 143              	.LFE1:
 145              		.section	.text.BitIoLdd5_ClrVal,"ax",%progbits
 146              		.align	2
 147              		.global	BitIoLdd5_ClrVal
 148              		.thumb
 149              		.thumb_func
 151              	BitIoLdd5_ClrVal:
 152              	.LFB2:
 175:../Generated_Code/BitIoLdd5.c **** 
 176:../Generated_Code/BitIoLdd5.c **** /*
 177:../Generated_Code/BitIoLdd5.c **** ** ===================================================================
 178:../Generated_Code/BitIoLdd5.c **** **     Method      :  BitIoLdd5_ClrVal (component BitIO_LDD)
 179:../Generated_Code/BitIoLdd5.c **** */
 180:../Generated_Code/BitIoLdd5.c **** /*!
 181:../Generated_Code/BitIoLdd5.c **** **     @brief
 182:../Generated_Code/BitIoLdd5.c **** **         Clears (set to zero) the output value. It is equivalent to
 183:../Generated_Code/BitIoLdd5.c **** **         the [PutVal(FALSE)]. This method is available only if the
 184:../Generated_Code/BitIoLdd5.c **** **         direction = _[output]_ or _[input/output]_.
 185:../Generated_Code/BitIoLdd5.c **** **     @param
 186:../Generated_Code/BitIoLdd5.c **** **         DeviceDataPtr   - Pointer to device data
 187:../Generated_Code/BitIoLdd5.c **** **                           structure returned by <Init> method.
 188:../Generated_Code/BitIoLdd5.c **** */
 189:../Generated_Code/BitIoLdd5.c **** /* ===================================================================*/
 190:../Generated_Code/BitIoLdd5.c **** void BitIoLdd5_ClrVal(LDD_TDeviceData *DeviceDataPtr)
 191:../Generated_Code/BitIoLdd5.c **** {
 153              		.loc 1 191 0
 154              		.cfi_startproc
 155              		@ args = 0, pretend = 0, frame = 8
 156              		@ frame_needed = 1, uses_anonymous_args = 0
 157              		@ link register save eliminated.
 158 0000 80B4     		push	{r7}
 159              		.cfi_def_cfa_offset 4
 160              		.cfi_offset 7, -4
 161 0002 83B0     		sub	sp, sp, #12
 162              		.cfi_def_cfa_offset 16
 163 0004 00AF     		add	r7, sp, #0
 164              		.cfi_def_cfa_register 7
 165 0006 7860     		str	r0, [r7, #4]
 192:../Generated_Code/BitIoLdd5.c ****   (void)DeviceDataPtr;                 /* Parameter is not used, suppress unused argument warning *
 193:../Generated_Code/BitIoLdd5.c ****   GPIO_PDD_ClearPortDataOutputMask(BitIoLdd5_MODULE_BASE_ADDRESS, BitIoLdd5_PORT_MASK);
 166              		.loc 1 193 0
 167 0008 034B     		ldr	r3, .L10
 168 000a 0222     		movs	r2, #2
 169 000c 9A60     		str	r2, [r3, #8]
 194:../Generated_Code/BitIoLdd5.c **** }
 170              		.loc 1 194 0
 171 000e 0C37     		adds	r7, r7, #12
 172 0010 BD46     		mov	sp, r7
 173              		@ sp needed
 174 0012 5DF8047B 		ldr	r7, [sp], #4
 175 0016 7047     		bx	lr
 176              	.L11:
 177              		.align	2
 178              	.L10:
 179 0018 C0F00F40 		.word	1074786496
 180              		.cfi_endproc
 181              	.LFE2:
 183              		.section	.text.BitIoLdd5_SetVal,"ax",%progbits
 184              		.align	2
 185              		.global	BitIoLdd5_SetVal
 186              		.thumb
 187              		.thumb_func
 189              	BitIoLdd5_SetVal:
 190              	.LFB3:
 195:../Generated_Code/BitIoLdd5.c **** 
 196:../Generated_Code/BitIoLdd5.c **** /*
 197:../Generated_Code/BitIoLdd5.c **** ** ===================================================================
 198:../Generated_Code/BitIoLdd5.c **** **     Method      :  BitIoLdd5_SetVal (component BitIO_LDD)
 199:../Generated_Code/BitIoLdd5.c **** */
 200:../Generated_Code/BitIoLdd5.c **** /*!
 201:../Generated_Code/BitIoLdd5.c **** **     @brief
 202:../Generated_Code/BitIoLdd5.c **** **         Sets (to one) the output value. It is equivalent to the
 203:../Generated_Code/BitIoLdd5.c **** **         [PutVal(TRUE)]. This method is available only if the
 204:../Generated_Code/BitIoLdd5.c **** **         direction = _[output]_ or _[input/output]_.
 205:../Generated_Code/BitIoLdd5.c **** **     @param
 206:../Generated_Code/BitIoLdd5.c **** **         DeviceDataPtr   - Pointer to device data
 207:../Generated_Code/BitIoLdd5.c **** **                           structure returned by <Init> method.
 208:../Generated_Code/BitIoLdd5.c **** */
 209:../Generated_Code/BitIoLdd5.c **** /* ===================================================================*/
 210:../Generated_Code/BitIoLdd5.c **** void BitIoLdd5_SetVal(LDD_TDeviceData *DeviceDataPtr)
 211:../Generated_Code/BitIoLdd5.c **** {
 191              		.loc 1 211 0
 192              		.cfi_startproc
 193              		@ args = 0, pretend = 0, frame = 8
 194              		@ frame_needed = 1, uses_anonymous_args = 0
 195              		@ link register save eliminated.
 196 0000 80B4     		push	{r7}
 197              		.cfi_def_cfa_offset 4
 198              		.cfi_offset 7, -4
 199 0002 83B0     		sub	sp, sp, #12
 200              		.cfi_def_cfa_offset 16
 201 0004 00AF     		add	r7, sp, #0
 202              		.cfi_def_cfa_register 7
 203 0006 7860     		str	r0, [r7, #4]
 212:../Generated_Code/BitIoLdd5.c ****   (void)DeviceDataPtr;                 /* Parameter is not used, suppress unused argument warning *
 213:../Generated_Code/BitIoLdd5.c ****   GPIO_PDD_SetPortDataOutputMask(BitIoLdd5_MODULE_BASE_ADDRESS, BitIoLdd5_PORT_MASK);
 204              		.loc 1 213 0
 205 0008 034B     		ldr	r3, .L13
 206 000a 0222     		movs	r2, #2
 207 000c 5A60     		str	r2, [r3, #4]
 214:../Generated_Code/BitIoLdd5.c **** }
 208              		.loc 1 214 0
 209 000e 0C37     		adds	r7, r7, #12
 210 0010 BD46     		mov	sp, r7
 211              		@ sp needed
 212 0012 5DF8047B 		ldr	r7, [sp], #4
 213 0016 7047     		bx	lr
 214              	.L14:
 215              		.align	2
 216              	.L13:
 217 0018 C0F00F40 		.word	1074786496
 218              		.cfi_endproc
 219              	.LFE3:
 221              		.section	.text.BitIoLdd5_NegVal,"ax",%progbits
 222              		.align	2
 223              		.global	BitIoLdd5_NegVal
 224              		.thumb
 225              		.thumb_func
 227              	BitIoLdd5_NegVal:
 228              	.LFB4:
 215:../Generated_Code/BitIoLdd5.c **** 
 216:../Generated_Code/BitIoLdd5.c **** /*
 217:../Generated_Code/BitIoLdd5.c **** ** ===================================================================
 218:../Generated_Code/BitIoLdd5.c **** **     Method      :  BitIoLdd5_NegVal (component BitIO_LDD)
 219:../Generated_Code/BitIoLdd5.c **** */
 220:../Generated_Code/BitIoLdd5.c **** /*!
 221:../Generated_Code/BitIoLdd5.c **** **     @brief
 222:../Generated_Code/BitIoLdd5.c **** **         Negates (inverts) the output value. It is equivalent to the
 223:../Generated_Code/BitIoLdd5.c **** **         [PutVal(!GetVal())]. This method is available only if the
 224:../Generated_Code/BitIoLdd5.c **** **         direction = _[output]_ or _[input/output]_.
 225:../Generated_Code/BitIoLdd5.c **** **     @param
 226:../Generated_Code/BitIoLdd5.c **** **         DeviceDataPtr   - Pointer to device data
 227:../Generated_Code/BitIoLdd5.c **** **                           structure returned by <Init> method.
 228:../Generated_Code/BitIoLdd5.c **** */
 229:../Generated_Code/BitIoLdd5.c **** /* ===================================================================*/
 230:../Generated_Code/BitIoLdd5.c **** void BitIoLdd5_NegVal(LDD_TDeviceData *DeviceDataPtr)
 231:../Generated_Code/BitIoLdd5.c **** {
 229              		.loc 1 231 0
 230              		.cfi_startproc
 231              		@ args = 0, pretend = 0, frame = 8
 232              		@ frame_needed = 1, uses_anonymous_args = 0
 233              		@ link register save eliminated.
 234 0000 80B4     		push	{r7}
 235              		.cfi_def_cfa_offset 4
 236              		.cfi_offset 7, -4
 237 0002 83B0     		sub	sp, sp, #12
 238              		.cfi_def_cfa_offset 16
 239 0004 00AF     		add	r7, sp, #0
 240              		.cfi_def_cfa_register 7
 241 0006 7860     		str	r0, [r7, #4]
 232:../Generated_Code/BitIoLdd5.c ****   (void)DeviceDataPtr;                 /* Parameter is not used, suppress unused argument warning *
 233:../Generated_Code/BitIoLdd5.c ****   GPIO_PDD_TogglePortDataOutputMask(BitIoLdd5_MODULE_BASE_ADDRESS, BitIoLdd5_PORT_MASK);
 242              		.loc 1 233 0
 243 0008 034B     		ldr	r3, .L16
 244 000a 0222     		movs	r2, #2
 245 000c DA60     		str	r2, [r3, #12]
 234:../Generated_Code/BitIoLdd5.c **** }
 246              		.loc 1 234 0
 247 000e 0C37     		adds	r7, r7, #12
 248 0010 BD46     		mov	sp, r7
 249              		@ sp needed
 250 0012 5DF8047B 		ldr	r7, [sp], #4
 251 0016 7047     		bx	lr
 252              	.L17:
 253              		.align	2
 254              	.L16:
 255 0018 C0F00F40 		.word	1074786496
 256              		.cfi_endproc
 257              	.LFE4:
 259              		.text
 260              	.Letext0:
 261              		.file 2 "c:\\freescale\\kds_v3\\toolchain\\arm-none-eabi\\include\\machine\\_default_types.h"
 262              		.file 3 "c:\\freescale\\kds_v3\\toolchain\\arm-none-eabi\\include\\stdint.h"
 263              		.file 4 "../Generated_Code/PE_Types.h"
 264              		.file 5 "C:/INTRO_HS18/IntroAronAlex/TEAM_Robot/Static_Code/IO_Map/MK22F12.h"