   1              		.syntax unified
   2              		.cpu cortex-m4
   3              		.eabi_attribute 27, 3
   4              		.eabi_attribute 28, 1
   5              		.fpu fpv4-sp-d16
   6              		.eabi_attribute 20, 1
   7              		.eabi_attribute 21, 1
   8              		.eabi_attribute 23, 3
   9              		.eabi_attribute 24, 1
  10              		.eabi_attribute 25, 1
  11              		.eabi_attribute 26, 1
  12              		.eabi_attribute 30, 6
  13              		.eabi_attribute 34, 1
  14              		.eabi_attribute 18, 4
  15              		.thumb
  16              		.file	"BitIoLdd9.c"
  17              		.text
  18              	.Ltext0:
  19              		.cfi_sections	.debug_frame
  20              		.section	.bss.DeviceDataPrv__DEFAULT_RTOS_ALLOC,"aw",%nobits
  21              		.align	2
  24              	DeviceDataPrv__DEFAULT_RTOS_ALLOC:
  25 0000 00000000 		.space	4
  26              		.section	.text.BitIoLdd9_Init,"ax",%progbits
  27              		.align	2
  28              		.global	BitIoLdd9_Init
  29              		.thumb
  30              		.thumb_func
  32              	BitIoLdd9_Init:
  33              	.LFB0:
  34              		.file 1 "../Generated_Code/BitIoLdd9.c"
   1:../Generated_Code/BitIoLdd9.c **** /* ###################################################################
   2:../Generated_Code/BitIoLdd9.c **** **     This component module is generated by Processor Expert. Do not modify it.
   3:../Generated_Code/BitIoLdd9.c **** **     Filename    : BitIoLdd9.c
   4:../Generated_Code/BitIoLdd9.c **** **     Project     : TEAM_Robot
   5:../Generated_Code/BitIoLdd9.c **** **     Processor   : MK22FX512VLK12
   6:../Generated_Code/BitIoLdd9.c **** **     Component   : BitIO_LDD
   7:../Generated_Code/BitIoLdd9.c **** **     Version     : Component 01.033, Driver 01.03, CPU db: 3.00.000
   8:../Generated_Code/BitIoLdd9.c **** **     Repository  : Kinetis
   9:../Generated_Code/BitIoLdd9.c **** **     Compiler    : GNU C Compiler
  10:../Generated_Code/BitIoLdd9.c **** **     Date/Time   : 2018-09-28, 15:03, # CodeGen: 0
  11:../Generated_Code/BitIoLdd9.c **** **     Abstract    :
  12:../Generated_Code/BitIoLdd9.c **** **         The HAL BitIO component provides a low level API for unified
  13:../Generated_Code/BitIoLdd9.c **** **         access to general purpose digital input/output pins across
  14:../Generated_Code/BitIoLdd9.c **** **         various device designs.
  15:../Generated_Code/BitIoLdd9.c **** **
  16:../Generated_Code/BitIoLdd9.c **** **         RTOS drivers using HAL BitIO API are simpler and more
  17:../Generated_Code/BitIoLdd9.c **** **         portable to various microprocessors.
  18:../Generated_Code/BitIoLdd9.c **** **     Settings    :
  19:../Generated_Code/BitIoLdd9.c **** **          Component name                                 : BitIoLdd9
  20:../Generated_Code/BitIoLdd9.c **** **          Pin for I/O                                    : ADC0_SE6b/PTD5/SPI0_PCS2/UART0_CTS_b/U
  21:../Generated_Code/BitIoLdd9.c **** **          Pin signal                                     : IR_4
  22:../Generated_Code/BitIoLdd9.c **** **          Direction                                      : Input/Output
  23:../Generated_Code/BitIoLdd9.c **** **          Initialization                                 : 
  24:../Generated_Code/BitIoLdd9.c **** **            Init. direction                              : Input
  25:../Generated_Code/BitIoLdd9.c **** **            Init. value                                  : 0
  26:../Generated_Code/BitIoLdd9.c **** **            Auto initialization                          : yes
  27:../Generated_Code/BitIoLdd9.c **** **          Safe mode                                      : no
  28:../Generated_Code/BitIoLdd9.c **** **     Contents    :
  29:../Generated_Code/BitIoLdd9.c **** **         Init      - LDD_TDeviceData* BitIoLdd9_Init(LDD_TUserData *UserDataPtr);
  30:../Generated_Code/BitIoLdd9.c **** **         SetDir    - void BitIoLdd9_SetDir(LDD_TDeviceData *DeviceDataPtr, bool Dir);
  31:../Generated_Code/BitIoLdd9.c **** **         SetInput  - void BitIoLdd9_SetInput(LDD_TDeviceData *DeviceDataPtr);
  32:../Generated_Code/BitIoLdd9.c **** **         SetOutput - void BitIoLdd9_SetOutput(LDD_TDeviceData *DeviceDataPtr);
  33:../Generated_Code/BitIoLdd9.c **** **         GetVal    - bool BitIoLdd9_GetVal(LDD_TDeviceData *DeviceDataPtr);
  34:../Generated_Code/BitIoLdd9.c **** **         PutVal    - void BitIoLdd9_PutVal(LDD_TDeviceData *DeviceDataPtr, bool Val);
  35:../Generated_Code/BitIoLdd9.c **** **         ClrVal    - void BitIoLdd9_ClrVal(LDD_TDeviceData *DeviceDataPtr);
  36:../Generated_Code/BitIoLdd9.c **** **         SetVal    - void BitIoLdd9_SetVal(LDD_TDeviceData *DeviceDataPtr);
  37:../Generated_Code/BitIoLdd9.c **** **
  38:../Generated_Code/BitIoLdd9.c **** **     Copyright : 1997 - 2015 Freescale Semiconductor, Inc. 
  39:../Generated_Code/BitIoLdd9.c **** **     All Rights Reserved.
  40:../Generated_Code/BitIoLdd9.c **** **     
  41:../Generated_Code/BitIoLdd9.c **** **     Redistribution and use in source and binary forms, with or without modification,
  42:../Generated_Code/BitIoLdd9.c **** **     are permitted provided that the following conditions are met:
  43:../Generated_Code/BitIoLdd9.c **** **     
  44:../Generated_Code/BitIoLdd9.c **** **     o Redistributions of source code must retain the above copyright notice, this list
  45:../Generated_Code/BitIoLdd9.c **** **       of conditions and the following disclaimer.
  46:../Generated_Code/BitIoLdd9.c **** **     
  47:../Generated_Code/BitIoLdd9.c **** **     o Redistributions in binary form must reproduce the above copyright notice, this
  48:../Generated_Code/BitIoLdd9.c **** **       list of conditions and the following disclaimer in the documentation and/or
  49:../Generated_Code/BitIoLdd9.c **** **       other materials provided with the distribution.
  50:../Generated_Code/BitIoLdd9.c **** **     
  51:../Generated_Code/BitIoLdd9.c **** **     o Neither the name of Freescale Semiconductor, Inc. nor the names of its
  52:../Generated_Code/BitIoLdd9.c **** **       contributors may be used to endorse or promote products derived from this
  53:../Generated_Code/BitIoLdd9.c **** **       software without specific prior written permission.
  54:../Generated_Code/BitIoLdd9.c **** **     
  55:../Generated_Code/BitIoLdd9.c **** **     THIS SOFTWARE IS PROVIDED BY THE COPYRIGHT HOLDERS AND CONTRIBUTORS "AS IS" AND
  56:../Generated_Code/BitIoLdd9.c **** **     ANY EXPRESS OR IMPLIED WARRANTIES, INCLUDING, BUT NOT LIMITED TO, THE IMPLIED
  57:../Generated_Code/BitIoLdd9.c **** **     WARRANTIES OF MERCHANTABILITY AND FITNESS FOR A PARTICULAR PURPOSE ARE
  58:../Generated_Code/BitIoLdd9.c **** **     DISCLAIMED. IN NO EVENT SHALL THE COPYRIGHT HOLDER OR CONTRIBUTORS BE LIABLE FOR
  59:../Generated_Code/BitIoLdd9.c **** **     ANY DIRECT, INDIRECT, INCIDENTAL, SPECIAL, EXEMPLARY, OR CONSEQUENTIAL DAMAGES
  60:../Generated_Code/BitIoLdd9.c **** **     (INCLUDING, BUT NOT LIMITED TO, PROCUREMENT OF SUBSTITUTE GOODS OR SERVICES;
  61:../Generated_Code/BitIoLdd9.c **** **     LOSS OF USE, DATA, OR PROFITS; OR BUSINESS INTERRUPTION) HOWEVER CAUSED AND ON
  62:../Generated_Code/BitIoLdd9.c **** **     ANY THEORY OF LIABILITY, WHETHER IN CONTRACT, STRICT LIABILITY, OR TORT
  63:../Generated_Code/BitIoLdd9.c **** **     (INCLUDING NEGLIGENCE OR OTHERWISE) ARISING IN ANY WAY OUT OF THE USE OF THIS
  64:../Generated_Code/BitIoLdd9.c **** **     SOFTWARE, EVEN IF ADVISED OF THE POSSIBILITY OF SUCH DAMAGE.
  65:../Generated_Code/BitIoLdd9.c **** **     
  66:../Generated_Code/BitIoLdd9.c **** **     http: www.freescale.com
  67:../Generated_Code/BitIoLdd9.c **** **     mail: support@freescale.com
  68:../Generated_Code/BitIoLdd9.c **** ** ###################################################################*/
  69:../Generated_Code/BitIoLdd9.c **** /*!
  70:../Generated_Code/BitIoLdd9.c **** ** @file BitIoLdd9.c
  71:../Generated_Code/BitIoLdd9.c **** ** @version 01.03
  72:../Generated_Code/BitIoLdd9.c **** ** @brief
  73:../Generated_Code/BitIoLdd9.c **** **         The HAL BitIO component provides a low level API for unified
  74:../Generated_Code/BitIoLdd9.c **** **         access to general purpose digital input/output pins across
  75:../Generated_Code/BitIoLdd9.c **** **         various device designs.
  76:../Generated_Code/BitIoLdd9.c **** **
  77:../Generated_Code/BitIoLdd9.c **** **         RTOS drivers using HAL BitIO API are simpler and more
  78:../Generated_Code/BitIoLdd9.c **** **         portable to various microprocessors.
  79:../Generated_Code/BitIoLdd9.c **** */         
  80:../Generated_Code/BitIoLdd9.c **** /*!
  81:../Generated_Code/BitIoLdd9.c **** **  @addtogroup BitIoLdd9_module BitIoLdd9 module documentation
  82:../Generated_Code/BitIoLdd9.c **** **  @{
  83:../Generated_Code/BitIoLdd9.c **** */         
  84:../Generated_Code/BitIoLdd9.c **** 
  85:../Generated_Code/BitIoLdd9.c **** /* MODULE BitIoLdd9. */
  86:../Generated_Code/BitIoLdd9.c **** 
  87:../Generated_Code/BitIoLdd9.c **** /* {Default RTOS Adapter} No RTOS includes */
  88:../Generated_Code/BitIoLdd9.c **** #include "BitIoLdd9.h"
  89:../Generated_Code/BitIoLdd9.c **** 
  90:../Generated_Code/BitIoLdd9.c **** #ifdef __cplusplus
  91:../Generated_Code/BitIoLdd9.c **** extern "C" {
  92:../Generated_Code/BitIoLdd9.c **** #endif 
  93:../Generated_Code/BitIoLdd9.c **** 
  94:../Generated_Code/BitIoLdd9.c **** typedef struct {
  95:../Generated_Code/BitIoLdd9.c ****   LDD_TUserData *UserDataPtr;          /* Pointer to user data */
  96:../Generated_Code/BitIoLdd9.c **** } BitIoLdd9_TDeviceData;               /* Device data structure type */
  97:../Generated_Code/BitIoLdd9.c **** 
  98:../Generated_Code/BitIoLdd9.c **** typedef BitIoLdd9_TDeviceData *BitIoLdd9_TDeviceDataPtr ; /* Pointer to the device data structure. 
  99:../Generated_Code/BitIoLdd9.c **** 
 100:../Generated_Code/BitIoLdd9.c **** /* {Default RTOS Adapter} Static object used for simulation of dynamic driver memory allocation */
 101:../Generated_Code/BitIoLdd9.c **** static BitIoLdd9_TDeviceData DeviceDataPrv__DEFAULT_RTOS_ALLOC;
 102:../Generated_Code/BitIoLdd9.c **** /*
 103:../Generated_Code/BitIoLdd9.c **** ** ===================================================================
 104:../Generated_Code/BitIoLdd9.c **** **     Method      :  BitIoLdd9_Init (component BitIO_LDD)
 105:../Generated_Code/BitIoLdd9.c **** */
 106:../Generated_Code/BitIoLdd9.c **** /*!
 107:../Generated_Code/BitIoLdd9.c **** **     @brief
 108:../Generated_Code/BitIoLdd9.c **** **         Initializes the device. Allocates memory for the device data
 109:../Generated_Code/BitIoLdd9.c **** **         structure, allocates interrupt vectors and sets interrupt
 110:../Generated_Code/BitIoLdd9.c **** **         priority, sets pin routing, sets timing, etc. If the "Enable
 111:../Generated_Code/BitIoLdd9.c **** **         in init. code" is set to "yes" value then the device is also
 112:../Generated_Code/BitIoLdd9.c **** **         enabled(see the description of the Enable() method). In this
 113:../Generated_Code/BitIoLdd9.c **** **         case the Enable() method is not necessary and needn't to be
 114:../Generated_Code/BitIoLdd9.c **** **         generated. 
 115:../Generated_Code/BitIoLdd9.c **** **     @param
 116:../Generated_Code/BitIoLdd9.c **** **         UserDataPtr     - Pointer to the user or
 117:../Generated_Code/BitIoLdd9.c **** **                           RTOS specific data. This pointer will be
 118:../Generated_Code/BitIoLdd9.c **** **                           passed as an event or callback parameter.
 119:../Generated_Code/BitIoLdd9.c **** **     @return
 120:../Generated_Code/BitIoLdd9.c **** **                         - Pointer to the dynamically allocated private
 121:../Generated_Code/BitIoLdd9.c **** **                           structure or NULL if there was an error.
 122:../Generated_Code/BitIoLdd9.c **** */
 123:../Generated_Code/BitIoLdd9.c **** /* ===================================================================*/
 124:../Generated_Code/BitIoLdd9.c **** LDD_TDeviceData* BitIoLdd9_Init(LDD_TUserData *UserDataPtr)
 125:../Generated_Code/BitIoLdd9.c **** {
  35              		.loc 1 125 0
  36              		.cfi_startproc
  37              		@ args = 0, pretend = 0, frame = 16
  38              		@ frame_needed = 1, uses_anonymous_args = 0
  39              		@ link register save eliminated.
  40 0000 80B4     		push	{r7}
  41              		.cfi_def_cfa_offset 4
  42              		.cfi_offset 7, -4
  43 0002 85B0     		sub	sp, sp, #20
  44              		.cfi_def_cfa_offset 24
  45 0004 00AF     		add	r7, sp, #0
  46              		.cfi_def_cfa_register 7
  47 0006 7860     		str	r0, [r7, #4]
 126:../Generated_Code/BitIoLdd9.c ****   /* Allocate device structure */
 127:../Generated_Code/BitIoLdd9.c ****   BitIoLdd9_TDeviceDataPtr DeviceDataPrv;
 128:../Generated_Code/BitIoLdd9.c **** 
 129:../Generated_Code/BitIoLdd9.c ****   /* {Default RTOS Adapter} Driver memory allocation: Dynamic allocation is simulated by a pointer 
 130:../Generated_Code/BitIoLdd9.c ****   DeviceDataPrv = &DeviceDataPrv__DEFAULT_RTOS_ALLOC;
  48              		.loc 1 130 0
  49 0008 124B     		ldr	r3, .L3
  50 000a FB60     		str	r3, [r7, #12]
 131:../Generated_Code/BitIoLdd9.c ****   DeviceDataPrv->UserDataPtr = UserDataPtr; /* Store the RTOS device structure */
  51              		.loc 1 131 0
  52 000c FB68     		ldr	r3, [r7, #12]
  53 000e 7A68     		ldr	r2, [r7, #4]
  54 0010 1A60     		str	r2, [r3]
 132:../Generated_Code/BitIoLdd9.c ****   /* Configure pin as input */
 133:../Generated_Code/BitIoLdd9.c ****   /* GPIOD_PDDR: PDD&=~0x20 */
 134:../Generated_Code/BitIoLdd9.c ****   GPIOD_PDDR &= (uint32_t)~(uint32_t)(GPIO_PDDR_PDD(0x20));
  55              		.loc 1 134 0
  56 0012 114B     		ldr	r3, .L3+4
  57 0014 104A     		ldr	r2, .L3+4
  58 0016 5269     		ldr	r2, [r2, #20]
  59 0018 22F02002 		bic	r2, r2, #32
  60 001c 5A61     		str	r2, [r3, #20]
 135:../Generated_Code/BitIoLdd9.c ****   /* Set initialization value */
 136:../Generated_Code/BitIoLdd9.c ****   /* GPIOD_PDOR: PDO&=~0x20 */
 137:../Generated_Code/BitIoLdd9.c ****   GPIOD_PDOR &= (uint32_t)~(uint32_t)(GPIO_PDOR_PDO(0x20));
  61              		.loc 1 137 0
  62 001e 0E4B     		ldr	r3, .L3+4
  63 0020 0D4A     		ldr	r2, .L3+4
  64 0022 1268     		ldr	r2, [r2]
  65 0024 22F02002 		bic	r2, r2, #32
  66 0028 1A60     		str	r2, [r3]
 138:../Generated_Code/BitIoLdd9.c ****   /* Initialization of Port Control register */
 139:../Generated_Code/BitIoLdd9.c ****   /* PORTD_PCR5: ISF=0,MUX=1 */
 140:../Generated_Code/BitIoLdd9.c ****   PORTD_PCR5 = (uint32_t)((PORTD_PCR5 & (uint32_t)~(uint32_t)(
  67              		.loc 1 140 0
  68 002a 0C4A     		ldr	r2, .L3+8
  69 002c 0B4B     		ldr	r3, .L3+8
  70 002e 5B69     		ldr	r3, [r3, #20]
  71 0030 23F08073 		bic	r3, r3, #16777216
  72 0034 23F4E063 		bic	r3, r3, #1792
  73 0038 43F48073 		orr	r3, r3, #256
  74 003c 5361     		str	r3, [r2, #20]
 141:../Generated_Code/BitIoLdd9.c ****                 PORT_PCR_ISF_MASK |
 142:../Generated_Code/BitIoLdd9.c ****                 PORT_PCR_MUX(0x06)
 143:../Generated_Code/BitIoLdd9.c ****                )) | (uint32_t)(
 144:../Generated_Code/BitIoLdd9.c ****                 PORT_PCR_MUX(0x01)
 145:../Generated_Code/BitIoLdd9.c ****                ));
 146:../Generated_Code/BitIoLdd9.c ****   /* Registration of the device structure */
 147:../Generated_Code/BitIoLdd9.c ****   PE_LDD_RegisterDeviceStructure(PE_LDD_COMPONENT_BitIoLdd9_ID,DeviceDataPrv);
  75              		.loc 1 147 0
  76 003e 084B     		ldr	r3, .L3+12
  77 0040 FA68     		ldr	r2, [r7, #12]
  78 0042 5A62     		str	r2, [r3, #36]
 148:../Generated_Code/BitIoLdd9.c ****   return ((LDD_TDeviceData *)DeviceDataPrv);
  79              		.loc 1 148 0
  80 0044 FB68     		ldr	r3, [r7, #12]
 149:../Generated_Code/BitIoLdd9.c **** }
  81              		.loc 1 149 0
  82 0046 1846     		mov	r0, r3
  83 0048 1437     		adds	r7, r7, #20
  84 004a BD46     		mov	sp, r7
  85              		@ sp needed
  86 004c 5DF8047B 		ldr	r7, [sp], #4
  87 0050 7047     		bx	lr
  88              	.L4:
  89 0052 00BF     		.align	2
  90              	.L3:
  91 0054 00000000 		.word	DeviceDataPrv__DEFAULT_RTOS_ALLOC
  92 0058 C0F00F40 		.word	1074786496
  93 005c 00C00440 		.word	1074053120
  94 0060 00000000 		.word	PE_LDD_DeviceDataList
  95              		.cfi_endproc
  96              	.LFE0:
  98              		.section	.text.BitIoLdd9_SetDir,"ax",%progbits
  99              		.align	2
 100              		.global	BitIoLdd9_SetDir
 101              		.thumb
 102              		.thumb_func
 104              	BitIoLdd9_SetDir:
 105              	.LFB1:
 150:../Generated_Code/BitIoLdd9.c **** /*
 151:../Generated_Code/BitIoLdd9.c **** ** ===================================================================
 152:../Generated_Code/BitIoLdd9.c **** **     Method      :  BitIoLdd9_SetDir (component BitIO_LDD)
 153:../Generated_Code/BitIoLdd9.c **** */
 154:../Generated_Code/BitIoLdd9.c **** /*!
 155:../Generated_Code/BitIoLdd9.c **** **     @brief
 156:../Generated_Code/BitIoLdd9.c **** **         Sets a pin direction (available only if the direction =
 157:../Generated_Code/BitIoLdd9.c **** **         _[input/output]_).
 158:../Generated_Code/BitIoLdd9.c **** **     @param
 159:../Generated_Code/BitIoLdd9.c **** **         DeviceDataPtr   - Device data structure
 160:../Generated_Code/BitIoLdd9.c **** **                           pointer returned by <Init> method.
 161:../Generated_Code/BitIoLdd9.c **** **     @param
 162:../Generated_Code/BitIoLdd9.c **** **         Dir             - Direction to set. Possible values:
 163:../Generated_Code/BitIoLdd9.c **** **                           <false> - Input
 164:../Generated_Code/BitIoLdd9.c **** **                           <true> - Output
 165:../Generated_Code/BitIoLdd9.c **** */
 166:../Generated_Code/BitIoLdd9.c **** /* ===================================================================*/
 167:../Generated_Code/BitIoLdd9.c **** void BitIoLdd9_SetDir(LDD_TDeviceData *DeviceDataPtr, bool Dir)
 168:../Generated_Code/BitIoLdd9.c **** {
 106              		.loc 1 168 0
 107              		.cfi_startproc
 108              		@ args = 0, pretend = 0, frame = 8
 109              		@ frame_needed = 1, uses_anonymous_args = 0
 110              		@ link register save eliminated.
 111 0000 80B4     		push	{r7}
 112              		.cfi_def_cfa_offset 4
 113              		.cfi_offset 7, -4
 114 0002 83B0     		sub	sp, sp, #12
 115              		.cfi_def_cfa_offset 16
 116 0004 00AF     		add	r7, sp, #0
 117              		.cfi_def_cfa_register 7
 118 0006 7860     		str	r0, [r7, #4]
 119 0008 0B46     		mov	r3, r1
 120 000a FB70     		strb	r3, [r7, #3]
 169:../Generated_Code/BitIoLdd9.c ****   (void)DeviceDataPtr;                 /* Parameter is not used, suppress unused argument warning *
 170:../Generated_Code/BitIoLdd9.c ****   if (Dir) {
 121              		.loc 1 170 0
 122 000c FB78     		ldrb	r3, [r7, #3]	@ zero_extendqisi2
 123 000e 002B     		cmp	r3, #0
 124 0010 06D0     		beq	.L6
 171:../Generated_Code/BitIoLdd9.c ****     /* Output */
 172:../Generated_Code/BitIoLdd9.c ****     GPIO_PDD_SetPortOutputDirectionMask(BitIoLdd9_MODULE_BASE_ADDRESS, BitIoLdd9_PORT_MASK);
 125              		.loc 1 172 0
 126 0012 094B     		ldr	r3, .L8
 127 0014 084A     		ldr	r2, .L8
 128 0016 5269     		ldr	r2, [r2, #20]
 129 0018 42F02002 		orr	r2, r2, #32
 130 001c 5A61     		str	r2, [r3, #20]
 131 001e 05E0     		b	.L5
 132              	.L6:
 173:../Generated_Code/BitIoLdd9.c ****   } else {
 174:../Generated_Code/BitIoLdd9.c ****     /* Input */
 175:../Generated_Code/BitIoLdd9.c ****     GPIO_PDD_SetPortInputDirectionMask(BitIoLdd9_MODULE_BASE_ADDRESS, BitIoLdd9_PORT_MASK);
 133              		.loc 1 175 0
 134 0020 054B     		ldr	r3, .L8
 135 0022 054A     		ldr	r2, .L8
 136 0024 5269     		ldr	r2, [r2, #20]
 137 0026 22F02002 		bic	r2, r2, #32
 138 002a 5A61     		str	r2, [r3, #20]
 139              	.L5:
 176:../Generated_Code/BitIoLdd9.c ****   }
 177:../Generated_Code/BitIoLdd9.c **** }
 140              		.loc 1 177 0
 141 002c 0C37     		adds	r7, r7, #12
 142 002e BD46     		mov	sp, r7
 143              		@ sp needed
 144 0030 5DF8047B 		ldr	r7, [sp], #4
 145 0034 7047     		bx	lr
 146              	.L9:
 147 0036 00BF     		.align	2
 148              	.L8:
 149 0038 C0F00F40 		.word	1074786496
 150              		.cfi_endproc
 151              	.LFE1:
 153              		.section	.text.BitIoLdd9_SetInput,"ax",%progbits
 154              		.align	2
 155              		.global	BitIoLdd9_SetInput
 156              		.thumb
 157              		.thumb_func
 159              	BitIoLdd9_SetInput:
 160              	.LFB2:
 178:../Generated_Code/BitIoLdd9.c **** 
 179:../Generated_Code/BitIoLdd9.c **** /*
 180:../Generated_Code/BitIoLdd9.c **** ** ===================================================================
 181:../Generated_Code/BitIoLdd9.c **** **     Method      :  BitIoLdd9_SetInput (component BitIO_LDD)
 182:../Generated_Code/BitIoLdd9.c **** */
 183:../Generated_Code/BitIoLdd9.c **** /*!
 184:../Generated_Code/BitIoLdd9.c **** **     @brief
 185:../Generated_Code/BitIoLdd9.c **** **         Sets a pin direction to input (available only if the
 186:../Generated_Code/BitIoLdd9.c **** **         direction = _[input/output]_).
 187:../Generated_Code/BitIoLdd9.c **** **     @param
 188:../Generated_Code/BitIoLdd9.c **** **         DeviceDataPtr   - Device data structure
 189:../Generated_Code/BitIoLdd9.c **** **                           pointer returned by <Init> method.
 190:../Generated_Code/BitIoLdd9.c **** */
 191:../Generated_Code/BitIoLdd9.c **** /* ===================================================================*/
 192:../Generated_Code/BitIoLdd9.c **** void BitIoLdd9_SetInput(LDD_TDeviceData *DeviceDataPtr)
 193:../Generated_Code/BitIoLdd9.c **** {
 161              		.loc 1 193 0
 162              		.cfi_startproc
 163              		@ args = 0, pretend = 0, frame = 8
 164              		@ frame_needed = 1, uses_anonymous_args = 0
 165              		@ link register save eliminated.
 166 0000 80B4     		push	{r7}
 167              		.cfi_def_cfa_offset 4
 168              		.cfi_offset 7, -4
 169 0002 83B0     		sub	sp, sp, #12
 170              		.cfi_def_cfa_offset 16
 171 0004 00AF     		add	r7, sp, #0
 172              		.cfi_def_cfa_register 7
 173 0006 7860     		str	r0, [r7, #4]
 194:../Generated_Code/BitIoLdd9.c ****   (void)DeviceDataPtr;                 /* Parameter is not used, suppress unused argument warning *
 195:../Generated_Code/BitIoLdd9.c ****   GPIO_PDD_SetPortInputDirectionMask(BitIoLdd9_MODULE_BASE_ADDRESS, BitIoLdd9_PORT_MASK);
 174              		.loc 1 195 0
 175 0008 054B     		ldr	r3, .L11
 176 000a 054A     		ldr	r2, .L11
 177 000c 5269     		ldr	r2, [r2, #20]
 178 000e 22F02002 		bic	r2, r2, #32
 179 0012 5A61     		str	r2, [r3, #20]
 196:../Generated_Code/BitIoLdd9.c **** }
 180              		.loc 1 196 0
 181 0014 0C37     		adds	r7, r7, #12
 182 0016 BD46     		mov	sp, r7
 183              		@ sp needed
 184 0018 5DF8047B 		ldr	r7, [sp], #4
 185 001c 7047     		bx	lr
 186              	.L12:
 187 001e 00BF     		.align	2
 188              	.L11:
 189 0020 C0F00F40 		.word	1074786496
 190              		.cfi_endproc
 191              	.LFE2:
 193              		.section	.text.BitIoLdd9_SetOutput,"ax",%progbits
 194              		.align	2
 195              		.global	BitIoLdd9_SetOutput
 196              		.thumb
 197              		.thumb_func
 199              	BitIoLdd9_SetOutput:
 200              	.LFB3:
 197:../Generated_Code/BitIoLdd9.c **** 
 198:../Generated_Code/BitIoLdd9.c **** /*
 199:../Generated_Code/BitIoLdd9.c **** ** ===================================================================
 200:../Generated_Code/BitIoLdd9.c **** **     Method      :  BitIoLdd9_SetOutput (component BitIO_LDD)
 201:../Generated_Code/BitIoLdd9.c **** */
 202:../Generated_Code/BitIoLdd9.c **** /*!
 203:../Generated_Code/BitIoLdd9.c **** **     @brief
 204:../Generated_Code/BitIoLdd9.c **** **         Sets a pin direction to output (available only if the
 205:../Generated_Code/BitIoLdd9.c **** **         direction = _[input/output]_).
 206:../Generated_Code/BitIoLdd9.c **** **     @param
 207:../Generated_Code/BitIoLdd9.c **** **         DeviceDataPtr   - Device data structure
 208:../Generated_Code/BitIoLdd9.c **** **                           pointer returned by <Init> method.
 209:../Generated_Code/BitIoLdd9.c **** */
 210:../Generated_Code/BitIoLdd9.c **** /* ===================================================================*/
 211:../Generated_Code/BitIoLdd9.c **** void BitIoLdd9_SetOutput(LDD_TDeviceData *DeviceDataPtr)
 212:../Generated_Code/BitIoLdd9.c **** {
 201              		.loc 1 212 0
 202              		.cfi_startproc
 203              		@ args = 0, pretend = 0, frame = 8
 204              		@ frame_needed = 1, uses_anonymous_args = 0
 205              		@ link register save eliminated.
 206 0000 80B4     		push	{r7}
 207              		.cfi_def_cfa_offset 4
 208              		.cfi_offset 7, -4
 209 0002 83B0     		sub	sp, sp, #12
 210              		.cfi_def_cfa_offset 16
 211 0004 00AF     		add	r7, sp, #0
 212              		.cfi_def_cfa_register 7
 213 0006 7860     		str	r0, [r7, #4]
 213:../Generated_Code/BitIoLdd9.c ****   (void)DeviceDataPtr;                 /* Parameter is not used, suppress unused argument warning *
 214:../Generated_Code/BitIoLdd9.c ****   GPIO_PDD_SetPortOutputDirectionMask(BitIoLdd9_MODULE_BASE_ADDRESS, BitIoLdd9_PORT_MASK);
 214              		.loc 1 214 0
 215 0008 054B     		ldr	r3, .L14
 216 000a 054A     		ldr	r2, .L14
 217 000c 5269     		ldr	r2, [r2, #20]
 218 000e 42F02002 		orr	r2, r2, #32
 219 0012 5A61     		str	r2, [r3, #20]
 215:../Generated_Code/BitIoLdd9.c **** }
 220              		.loc 1 215 0
 221 0014 0C37     		adds	r7, r7, #12
 222 0016 BD46     		mov	sp, r7
 223              		@ sp needed
 224 0018 5DF8047B 		ldr	r7, [sp], #4
 225 001c 7047     		bx	lr
 226              	.L15:
 227 001e 00BF     		.align	2
 228              	.L14:
 229 0020 C0F00F40 		.word	1074786496
 230              		.cfi_endproc
 231              	.LFE3:
 233              		.section	.text.BitIoLdd9_GetVal,"ax",%progbits
 234              		.align	2
 235              		.global	BitIoLdd9_GetVal
 236              		.thumb
 237              		.thumb_func
 239              	BitIoLdd9_GetVal:
 240              	.LFB4:
 216:../Generated_Code/BitIoLdd9.c **** 
 217:../Generated_Code/BitIoLdd9.c **** /*
 218:../Generated_Code/BitIoLdd9.c **** ** ===================================================================
 219:../Generated_Code/BitIoLdd9.c **** **     Method      :  BitIoLdd9_GetVal (component BitIO_LDD)
 220:../Generated_Code/BitIoLdd9.c **** */
 221:../Generated_Code/BitIoLdd9.c **** /*!
 222:../Generated_Code/BitIoLdd9.c **** **     @brief
 223:../Generated_Code/BitIoLdd9.c **** **         Returns the input/output value. If the direction is [input]
 224:../Generated_Code/BitIoLdd9.c **** **         then the input value of the pin is read and returned. If the
 225:../Generated_Code/BitIoLdd9.c **** **         direction is [output] then the last written value is read
 226:../Generated_Code/BitIoLdd9.c **** **         and returned (see <Safe mode> property for limitations).
 227:../Generated_Code/BitIoLdd9.c **** **         This method cannot be disabled if direction is [input].
 228:../Generated_Code/BitIoLdd9.c **** **     @param
 229:../Generated_Code/BitIoLdd9.c **** **         DeviceDataPtr   - Device data structure
 230:../Generated_Code/BitIoLdd9.c **** **                           pointer returned by <Init> method.
 231:../Generated_Code/BitIoLdd9.c **** **     @return
 232:../Generated_Code/BitIoLdd9.c **** **                         - Input or output value. Possible values:
 233:../Generated_Code/BitIoLdd9.c **** **                           <false> - logical "0" (Low level)
 234:../Generated_Code/BitIoLdd9.c **** **                           <true> - logical "1" (High level)
 235:../Generated_Code/BitIoLdd9.c **** */
 236:../Generated_Code/BitIoLdd9.c **** /* ===================================================================*/
 237:../Generated_Code/BitIoLdd9.c **** bool BitIoLdd9_GetVal(LDD_TDeviceData *DeviceDataPtr)
 238:../Generated_Code/BitIoLdd9.c **** {
 241              		.loc 1 238 0
 242              		.cfi_startproc
 243              		@ args = 0, pretend = 0, frame = 16
 244              		@ frame_needed = 1, uses_anonymous_args = 0
 245              		@ link register save eliminated.
 246 0000 80B4     		push	{r7}
 247              		.cfi_def_cfa_offset 4
 248              		.cfi_offset 7, -4
 249 0002 85B0     		sub	sp, sp, #20
 250              		.cfi_def_cfa_offset 24
 251 0004 00AF     		add	r7, sp, #0
 252              		.cfi_def_cfa_register 7
 253 0006 7860     		str	r0, [r7, #4]
 239:../Generated_Code/BitIoLdd9.c ****   uint32_t PortData;                   /* Port data masked according to the bit used */
 240:../Generated_Code/BitIoLdd9.c **** 
 241:../Generated_Code/BitIoLdd9.c ****   (void)DeviceDataPtr;                 /* Parameter is not used, suppress unused argument warning *
 242:../Generated_Code/BitIoLdd9.c ****   if ((GPIO_PDD_GetPortDirection(BitIoLdd9_MODULE_BASE_ADDRESS) & BitIoLdd9_PORT_MASK) == 0U) {
 254              		.loc 1 242 0
 255 0008 0E4B     		ldr	r3, .L20
 256 000a 5B69     		ldr	r3, [r3, #20]
 257 000c 03F02003 		and	r3, r3, #32
 258 0010 002B     		cmp	r3, #0
 259 0012 05D1     		bne	.L17
 243:../Generated_Code/BitIoLdd9.c ****     /* Port is configured as input */
 244:../Generated_Code/BitIoLdd9.c ****     PortData = GPIO_PDD_GetPortDataInput(BitIoLdd9_MODULE_BASE_ADDRESS) & BitIoLdd9_PORT_MASK;
 260              		.loc 1 244 0
 261 0014 0B4B     		ldr	r3, .L20
 262 0016 1B69     		ldr	r3, [r3, #16]
 263 0018 03F02003 		and	r3, r3, #32
 264 001c FB60     		str	r3, [r7, #12]
 265 001e 04E0     		b	.L18
 266              	.L17:
 245:../Generated_Code/BitIoLdd9.c ****   } else {
 246:../Generated_Code/BitIoLdd9.c ****     /* Port is configured as output */
 247:../Generated_Code/BitIoLdd9.c ****     PortData = GPIO_PDD_GetPortDataOutput(BitIoLdd9_MODULE_BASE_ADDRESS) & BitIoLdd9_PORT_MASK;
 267              		.loc 1 247 0
 268 0020 084B     		ldr	r3, .L20
 269 0022 1B68     		ldr	r3, [r3]
 270 0024 03F02003 		and	r3, r3, #32
 271 0028 FB60     		str	r3, [r7, #12]
 272              	.L18:
 248:../Generated_Code/BitIoLdd9.c ****   }
 249:../Generated_Code/BitIoLdd9.c ****   return (PortData != 0U) ? (bool)TRUE : (bool)FALSE;
 273              		.loc 1 249 0
 274 002a FB68     		ldr	r3, [r7, #12]
 275 002c 002B     		cmp	r3, #0
 276 002e 0CBF     		ite	eq
 277 0030 0023     		moveq	r3, #0
 278 0032 0123     		movne	r3, #1
 279 0034 DBB2     		uxtb	r3, r3
 250:../Generated_Code/BitIoLdd9.c **** }
 280              		.loc 1 250 0
 281 0036 1846     		mov	r0, r3
 282 0038 1437     		adds	r7, r7, #20
 283 003a BD46     		mov	sp, r7
 284              		@ sp needed
 285 003c 5DF8047B 		ldr	r7, [sp], #4
 286 0040 7047     		bx	lr
 287              	.L21:
 288 0042 00BF     		.align	2
 289              	.L20:
 290 0044 C0F00F40 		.word	1074786496
 291              		.cfi_endproc
 292              	.LFE4:
 294              		.section	.text.BitIoLdd9_PutVal,"ax",%progbits
 295              		.align	2
 296              		.global	BitIoLdd9_PutVal
 297              		.thumb
 298              		.thumb_func
 300              	BitIoLdd9_PutVal:
 301              	.LFB5:
 251:../Generated_Code/BitIoLdd9.c **** 
 252:../Generated_Code/BitIoLdd9.c **** /*
 253:../Generated_Code/BitIoLdd9.c **** ** ===================================================================
 254:../Generated_Code/BitIoLdd9.c **** **     Method      :  BitIoLdd9_PutVal (component BitIO_LDD)
 255:../Generated_Code/BitIoLdd9.c **** */
 256:../Generated_Code/BitIoLdd9.c **** /*!
 257:../Generated_Code/BitIoLdd9.c **** **     @brief
 258:../Generated_Code/BitIoLdd9.c **** **         The specified output value is set. If the direction is <b>
 259:../Generated_Code/BitIoLdd9.c **** **         input</b>, the component saves the value to a memory or a
 260:../Generated_Code/BitIoLdd9.c **** **         register and this value will be written to the pin after
 261:../Generated_Code/BitIoLdd9.c **** **         switching to the output mode (using <tt>SetDir(TRUE)</tt>;
 262:../Generated_Code/BitIoLdd9.c **** **         see <a href="BitIOProperties.html#SafeMode">Safe mode</a>
 263:../Generated_Code/BitIoLdd9.c **** **         property for limitations). If the direction is <b>output</b>,
 264:../Generated_Code/BitIoLdd9.c **** **         it writes the value to the pin. (Method is available only if
 265:../Generated_Code/BitIoLdd9.c **** **         the direction = <u><tt>output</tt></u> or <u><tt>
 266:../Generated_Code/BitIoLdd9.c **** **         input/output</tt></u>).
 267:../Generated_Code/BitIoLdd9.c **** **     @param
 268:../Generated_Code/BitIoLdd9.c **** **         DeviceDataPtr   - Device data structure
 269:../Generated_Code/BitIoLdd9.c **** **                           pointer returned by <Init> method.
 270:../Generated_Code/BitIoLdd9.c **** **     @param
 271:../Generated_Code/BitIoLdd9.c **** **         Val             - Output value. Possible values:
 272:../Generated_Code/BitIoLdd9.c **** **                           <false> - logical "0" (Low level)
 273:../Generated_Code/BitIoLdd9.c **** **                           <true> - logical "1" (High level)
 274:../Generated_Code/BitIoLdd9.c **** */
 275:../Generated_Code/BitIoLdd9.c **** /* ===================================================================*/
 276:../Generated_Code/BitIoLdd9.c **** void BitIoLdd9_PutVal(LDD_TDeviceData *DeviceDataPtr, bool Val)
 277:../Generated_Code/BitIoLdd9.c **** {
 302              		.loc 1 277 0
 303              		.cfi_startproc
 304              		@ args = 0, pretend = 0, frame = 8
 305              		@ frame_needed = 1, uses_anonymous_args = 0
 306              		@ link register save eliminated.
 307 0000 80B4     		push	{r7}
 308              		.cfi_def_cfa_offset 4
 309              		.cfi_offset 7, -4
 310 0002 83B0     		sub	sp, sp, #12
 311              		.cfi_def_cfa_offset 16
 312 0004 00AF     		add	r7, sp, #0
 313              		.cfi_def_cfa_register 7
 314 0006 7860     		str	r0, [r7, #4]
 315 0008 0B46     		mov	r3, r1
 316 000a FB70     		strb	r3, [r7, #3]
 278:../Generated_Code/BitIoLdd9.c ****   (void)DeviceDataPtr;                 /* Parameter is not used, suppress unused argument warning *
 279:../Generated_Code/BitIoLdd9.c ****   if (Val) {
 317              		.loc 1 279 0
 318 000c FB78     		ldrb	r3, [r7, #3]	@ zero_extendqisi2
 319 000e 002B     		cmp	r3, #0
 320 0010 03D0     		beq	.L23
 280:../Generated_Code/BitIoLdd9.c ****     GPIO_PDD_SetPortDataOutputMask(BitIoLdd9_MODULE_BASE_ADDRESS, BitIoLdd9_PORT_MASK);
 321              		.loc 1 280 0
 322 0012 064B     		ldr	r3, .L25
 323 0014 2022     		movs	r2, #32
 324 0016 5A60     		str	r2, [r3, #4]
 325 0018 02E0     		b	.L22
 326              	.L23:
 281:../Generated_Code/BitIoLdd9.c ****   } else { /* !Val */
 282:../Generated_Code/BitIoLdd9.c ****     GPIO_PDD_ClearPortDataOutputMask(BitIoLdd9_MODULE_BASE_ADDRESS, BitIoLdd9_PORT_MASK);
 327              		.loc 1 282 0
 328 001a 044B     		ldr	r3, .L25
 329 001c 2022     		movs	r2, #32
 330 001e 9A60     		str	r2, [r3, #8]
 331              	.L22:
 283:../Generated_Code/BitIoLdd9.c ****   } /* !Val */
 284:../Generated_Code/BitIoLdd9.c **** }
 332              		.loc 1 284 0
 333 0020 0C37     		adds	r7, r7, #12
 334 0022 BD46     		mov	sp, r7
 335              		@ sp needed
 336 0024 5DF8047B 		ldr	r7, [sp], #4
 337 0028 7047     		bx	lr
 338              	.L26:
 339 002a 00BF     		.align	2
 340              	.L25:
 341 002c C0F00F40 		.word	1074786496
 342              		.cfi_endproc
 343              	.LFE5:
 345              		.section	.text.BitIoLdd9_ClrVal,"ax",%progbits
 346              		.align	2
 347              		.global	BitIoLdd9_ClrVal
 348              		.thumb
 349              		.thumb_func
 351              	BitIoLdd9_ClrVal:
 352              	.LFB6:
 285:../Generated_Code/BitIoLdd9.c **** 
 286:../Generated_Code/BitIoLdd9.c **** /*
 287:../Generated_Code/BitIoLdd9.c **** ** ===================================================================
 288:../Generated_Code/BitIoLdd9.c **** **     Method      :  BitIoLdd9_ClrVal (component BitIO_LDD)
 289:../Generated_Code/BitIoLdd9.c **** */
 290:../Generated_Code/BitIoLdd9.c **** /*!
 291:../Generated_Code/BitIoLdd9.c **** **     @brief
 292:../Generated_Code/BitIoLdd9.c **** **         Clears (set to zero) the output value. It is equivalent to
 293:../Generated_Code/BitIoLdd9.c **** **         the [PutVal(FALSE)]. This method is available only if the
 294:../Generated_Code/BitIoLdd9.c **** **         direction = _[output]_ or _[input/output]_.
 295:../Generated_Code/BitIoLdd9.c **** **     @param
 296:../Generated_Code/BitIoLdd9.c **** **         DeviceDataPtr   - Pointer to device data
 297:../Generated_Code/BitIoLdd9.c **** **                           structure returned by <Init> method.
 298:../Generated_Code/BitIoLdd9.c **** */
 299:../Generated_Code/BitIoLdd9.c **** /* ===================================================================*/
 300:../Generated_Code/BitIoLdd9.c **** void BitIoLdd9_ClrVal(LDD_TDeviceData *DeviceDataPtr)
 301:../Generated_Code/BitIoLdd9.c **** {
 353              		.loc 1 301 0
 354              		.cfi_startproc
 355              		@ args = 0, pretend = 0, frame = 8
 356              		@ frame_needed = 1, uses_anonymous_args = 0
 357              		@ link register save eliminated.
 358 0000 80B4     		push	{r7}
 359              		.cfi_def_cfa_offset 4
 360              		.cfi_offset 7, -4
 361 0002 83B0     		sub	sp, sp, #12
 362              		.cfi_def_cfa_offset 16
 363 0004 00AF     		add	r7, sp, #0
 364              		.cfi_def_cfa_register 7
 365 0006 7860     		str	r0, [r7, #4]
 302:../Generated_Code/BitIoLdd9.c ****   (void)DeviceDataPtr;                 /* Parameter is not used, suppress unused argument warning *
 303:../Generated_Code/BitIoLdd9.c ****   GPIO_PDD_ClearPortDataOutputMask(BitIoLdd9_MODULE_BASE_ADDRESS, BitIoLdd9_PORT_MASK);
 366              		.loc 1 303 0
 367 0008 034B     		ldr	r3, .L28
 368 000a 2022     		movs	r2, #32
 369 000c 9A60     		str	r2, [r3, #8]
 304:../Generated_Code/BitIoLdd9.c **** }
 370              		.loc 1 304 0
 371 000e 0C37     		adds	r7, r7, #12
 372 0010 BD46     		mov	sp, r7
 373              		@ sp needed
 374 0012 5DF8047B 		ldr	r7, [sp], #4
 375 0016 7047     		bx	lr
 376              	.L29:
 377              		.align	2
 378              	.L28:
 379 0018 C0F00F40 		.word	1074786496
 380              		.cfi_endproc
 381              	.LFE6:
 383              		.section	.text.BitIoLdd9_SetVal,"ax",%progbits
 384              		.align	2
 385              		.global	BitIoLdd9_SetVal
 386              		.thumb
 387              		.thumb_func
 389              	BitIoLdd9_SetVal:
 390              	.LFB7:
 305:../Generated_Code/BitIoLdd9.c **** 
 306:../Generated_Code/BitIoLdd9.c **** /*
 307:../Generated_Code/BitIoLdd9.c **** ** ===================================================================
 308:../Generated_Code/BitIoLdd9.c **** **     Method      :  BitIoLdd9_SetVal (component BitIO_LDD)
 309:../Generated_Code/BitIoLdd9.c **** */
 310:../Generated_Code/BitIoLdd9.c **** /*!
 311:../Generated_Code/BitIoLdd9.c **** **     @brief
 312:../Generated_Code/BitIoLdd9.c **** **         Sets (to one) the output value. It is equivalent to the
 313:../Generated_Code/BitIoLdd9.c **** **         [PutVal(TRUE)]. This method is available only if the
 314:../Generated_Code/BitIoLdd9.c **** **         direction = _[output]_ or _[input/output]_.
 315:../Generated_Code/BitIoLdd9.c **** **     @param
 316:../Generated_Code/BitIoLdd9.c **** **         DeviceDataPtr   - Pointer to device data
 317:../Generated_Code/BitIoLdd9.c **** **                           structure returned by <Init> method.
 318:../Generated_Code/BitIoLdd9.c **** */
 319:../Generated_Code/BitIoLdd9.c **** /* ===================================================================*/
 320:../Generated_Code/BitIoLdd9.c **** void BitIoLdd9_SetVal(LDD_TDeviceData *DeviceDataPtr)
 321:../Generated_Code/BitIoLdd9.c **** {
 391              		.loc 1 321 0
 392              		.cfi_startproc
 393              		@ args = 0, pretend = 0, frame = 8
 394              		@ frame_needed = 1, uses_anonymous_args = 0
 395              		@ link register save eliminated.
 396 0000 80B4     		push	{r7}
 397              		.cfi_def_cfa_offset 4
 398              		.cfi_offset 7, -4
 399 0002 83B0     		sub	sp, sp, #12
 400              		.cfi_def_cfa_offset 16
 401 0004 00AF     		add	r7, sp, #0
 402              		.cfi_def_cfa_register 7
 403 0006 7860     		str	r0, [r7, #4]
 322:../Generated_Code/BitIoLdd9.c ****   (void)DeviceDataPtr;                 /* Parameter is not used, suppress unused argument warning *
 323:../Generated_Code/BitIoLdd9.c ****   GPIO_PDD_SetPortDataOutputMask(BitIoLdd9_MODULE_BASE_ADDRESS, BitIoLdd9_PORT_MASK);
 404              		.loc 1 323 0
 405 0008 034B     		ldr	r3, .L31
 406 000a 2022     		movs	r2, #32
 407 000c 5A60     		str	r2, [r3, #4]
 324:../Generated_Code/BitIoLdd9.c **** }
 408              		.loc 1 324 0
 409 000e 0C37     		adds	r7, r7, #12
 410 0010 BD46     		mov	sp, r7
 411              		@ sp needed
 412 0012 5DF8047B 		ldr	r7, [sp], #4
 413 0016 7047     		bx	lr
 414              	.L32:
 415              		.align	2
 416              	.L31:
 417 0018 C0F00F40 		.word	1074786496
 418              		.cfi_endproc
 419              	.LFE7:
 421              		.text
 422              	.Letext0:
 423              		.file 2 "c:\\freescale\\kds_v3\\toolchain\\arm-none-eabi\\include\\machine\\_default_types.h"
 424              		.file 3 "c:\\freescale\\kds_v3\\toolchain\\arm-none-eabi\\include\\stdint.h"
 425              		.file 4 "../Generated_Code/PE_Types.h"
 426              		.file 5 "C:/INTRO_HS18/IntroAronAlex/TEAM_Robot/Static_Code/IO_Map/MK22F12.h"