   1              		.syntax unified
   2              		.cpu cortex-m4
   3              		.eabi_attribute 27, 3
   4              		.eabi_attribute 28, 1
   5              		.fpu fpv4-sp-d16
   6              		.eabi_attribute 20, 1
   7              		.eabi_attribute 21, 1
   8              		.eabi_attribute 23, 3
   9              		.eabi_attribute 24, 1
  10              		.eabi_attribute 25, 1
  11              		.eabi_attribute 26, 1
  12              		.eabi_attribute 30, 6
  13              		.eabi_attribute 34, 1
  14              		.eabi_attribute 18, 4
  15              		.thumb
  16              		.file	"BitIoLdd12.c"
  17              		.text
  18              	.Ltext0:
  19              		.cfi_sections	.debug_frame
  20              		.section	.bss.DeviceDataPrv__DEFAULT_RTOS_ALLOC,"aw",%nobits
  21              		.align	2
  24              	DeviceDataPrv__DEFAULT_RTOS_ALLOC:
  25 0000 00000000 		.space	4
  26              		.section	.text.BitIoLdd12_Init,"ax",%progbits
  27              		.align	2
  28              		.global	BitIoLdd12_Init
  29              		.thumb
  30              		.thumb_func
  32              	BitIoLdd12_Init:
  33              	.LFB0:
  34              		.file 1 "../Generated_Code/BitIoLdd12.c"
   1:../Generated_Code/BitIoLdd12.c **** /* ###################################################################
   2:../Generated_Code/BitIoLdd12.c **** **     This component module is generated by Processor Expert. Do not modify it.
   3:../Generated_Code/BitIoLdd12.c **** **     Filename    : BitIoLdd12.c
   4:../Generated_Code/BitIoLdd12.c **** **     Project     : TEAM_Robot
   5:../Generated_Code/BitIoLdd12.c **** **     Processor   : MK22FX512VLK12
   6:../Generated_Code/BitIoLdd12.c **** **     Component   : BitIO_LDD
   7:../Generated_Code/BitIoLdd12.c **** **     Version     : Component 01.033, Driver 01.03, CPU db: 3.00.000
   8:../Generated_Code/BitIoLdd12.c **** **     Repository  : Kinetis
   9:../Generated_Code/BitIoLdd12.c **** **     Compiler    : GNU C Compiler
  10:../Generated_Code/BitIoLdd12.c **** **     Date/Time   : 2018-09-28, 15:03, # CodeGen: 0
  11:../Generated_Code/BitIoLdd12.c **** **     Abstract    :
  12:../Generated_Code/BitIoLdd12.c **** **         The HAL BitIO component provides a low level API for unified
  13:../Generated_Code/BitIoLdd12.c **** **         access to general purpose digital input/output pins across
  14:../Generated_Code/BitIoLdd12.c **** **         various device designs.
  15:../Generated_Code/BitIoLdd12.c **** **
  16:../Generated_Code/BitIoLdd12.c **** **         RTOS drivers using HAL BitIO API are simpler and more
  17:../Generated_Code/BitIoLdd12.c **** **         portable to various microprocessors.
  18:../Generated_Code/BitIoLdd12.c **** **     Settings    :
  19:../Generated_Code/BitIoLdd12.c **** **          Component name                                 : BitIoLdd12
  20:../Generated_Code/BitIoLdd12.c **** **          Pin for I/O                                    : ADC1_SE5b/CMP0_IN3/PTC9/FTM3_CH5/I2S0_
  21:../Generated_Code/BitIoLdd12.c **** **          Pin signal                                     : DIR_LEFT_J10_05
  22:../Generated_Code/BitIoLdd12.c **** **          Direction                                      : Output
  23:../Generated_Code/BitIoLdd12.c **** **          Initialization                                 : 
  24:../Generated_Code/BitIoLdd12.c **** **            Init. direction                              : Output
  25:../Generated_Code/BitIoLdd12.c **** **            Init. value                                  : 0
  26:../Generated_Code/BitIoLdd12.c **** **            Auto initialization                          : yes
  27:../Generated_Code/BitIoLdd12.c **** **          Safe mode                                      : yes
  28:../Generated_Code/BitIoLdd12.c **** **     Contents    :
  29:../Generated_Code/BitIoLdd12.c **** **         Init   - LDD_TDeviceData* BitIoLdd12_Init(LDD_TUserData *UserDataPtr);
  30:../Generated_Code/BitIoLdd12.c **** **         GetVal - bool BitIoLdd12_GetVal(LDD_TDeviceData *DeviceDataPtr);
  31:../Generated_Code/BitIoLdd12.c **** **         PutVal - void BitIoLdd12_PutVal(LDD_TDeviceData *DeviceDataPtr, bool Val);
  32:../Generated_Code/BitIoLdd12.c **** **         ClrVal - void BitIoLdd12_ClrVal(LDD_TDeviceData *DeviceDataPtr);
  33:../Generated_Code/BitIoLdd12.c **** **         SetVal - void BitIoLdd12_SetVal(LDD_TDeviceData *DeviceDataPtr);
  34:../Generated_Code/BitIoLdd12.c **** **
  35:../Generated_Code/BitIoLdd12.c **** **     Copyright : 1997 - 2015 Freescale Semiconductor, Inc. 
  36:../Generated_Code/BitIoLdd12.c **** **     All Rights Reserved.
  37:../Generated_Code/BitIoLdd12.c **** **     
  38:../Generated_Code/BitIoLdd12.c **** **     Redistribution and use in source and binary forms, with or without modification,
  39:../Generated_Code/BitIoLdd12.c **** **     are permitted provided that the following conditions are met:
  40:../Generated_Code/BitIoLdd12.c **** **     
  41:../Generated_Code/BitIoLdd12.c **** **     o Redistributions of source code must retain the above copyright notice, this list
  42:../Generated_Code/BitIoLdd12.c **** **       of conditions and the following disclaimer.
  43:../Generated_Code/BitIoLdd12.c **** **     
  44:../Generated_Code/BitIoLdd12.c **** **     o Redistributions in binary form must reproduce the above copyright notice, this
  45:../Generated_Code/BitIoLdd12.c **** **       list of conditions and the following disclaimer in the documentation and/or
  46:../Generated_Code/BitIoLdd12.c **** **       other materials provided with the distribution.
  47:../Generated_Code/BitIoLdd12.c **** **     
  48:../Generated_Code/BitIoLdd12.c **** **     o Neither the name of Freescale Semiconductor, Inc. nor the names of its
  49:../Generated_Code/BitIoLdd12.c **** **       contributors may be used to endorse or promote products derived from this
  50:../Generated_Code/BitIoLdd12.c **** **       software without specific prior written permission.
  51:../Generated_Code/BitIoLdd12.c **** **     
  52:../Generated_Code/BitIoLdd12.c **** **     THIS SOFTWARE IS PROVIDED BY THE COPYRIGHT HOLDERS AND CONTRIBUTORS "AS IS" AND
  53:../Generated_Code/BitIoLdd12.c **** **     ANY EXPRESS OR IMPLIED WARRANTIES, INCLUDING, BUT NOT LIMITED TO, THE IMPLIED
  54:../Generated_Code/BitIoLdd12.c **** **     WARRANTIES OF MERCHANTABILITY AND FITNESS FOR A PARTICULAR PURPOSE ARE
  55:../Generated_Code/BitIoLdd12.c **** **     DISCLAIMED. IN NO EVENT SHALL THE COPYRIGHT HOLDER OR CONTRIBUTORS BE LIABLE FOR
  56:../Generated_Code/BitIoLdd12.c **** **     ANY DIRECT, INDIRECT, INCIDENTAL, SPECIAL, EXEMPLARY, OR CONSEQUENTIAL DAMAGES
  57:../Generated_Code/BitIoLdd12.c **** **     (INCLUDING, BUT NOT LIMITED TO, PROCUREMENT OF SUBSTITUTE GOODS OR SERVICES;
  58:../Generated_Code/BitIoLdd12.c **** **     LOSS OF USE, DATA, OR PROFITS; OR BUSINESS INTERRUPTION) HOWEVER CAUSED AND ON
  59:../Generated_Code/BitIoLdd12.c **** **     ANY THEORY OF LIABILITY, WHETHER IN CONTRACT, STRICT LIABILITY, OR TORT
  60:../Generated_Code/BitIoLdd12.c **** **     (INCLUDING NEGLIGENCE OR OTHERWISE) ARISING IN ANY WAY OUT OF THE USE OF THIS
  61:../Generated_Code/BitIoLdd12.c **** **     SOFTWARE, EVEN IF ADVISED OF THE POSSIBILITY OF SUCH DAMAGE.
  62:../Generated_Code/BitIoLdd12.c **** **     
  63:../Generated_Code/BitIoLdd12.c **** **     http: www.freescale.com
  64:../Generated_Code/BitIoLdd12.c **** **     mail: support@freescale.com
  65:../Generated_Code/BitIoLdd12.c **** ** ###################################################################*/
  66:../Generated_Code/BitIoLdd12.c **** /*!
  67:../Generated_Code/BitIoLdd12.c **** ** @file BitIoLdd12.c
  68:../Generated_Code/BitIoLdd12.c **** ** @version 01.03
  69:../Generated_Code/BitIoLdd12.c **** ** @brief
  70:../Generated_Code/BitIoLdd12.c **** **         The HAL BitIO component provides a low level API for unified
  71:../Generated_Code/BitIoLdd12.c **** **         access to general purpose digital input/output pins across
  72:../Generated_Code/BitIoLdd12.c **** **         various device designs.
  73:../Generated_Code/BitIoLdd12.c **** **
  74:../Generated_Code/BitIoLdd12.c **** **         RTOS drivers using HAL BitIO API are simpler and more
  75:../Generated_Code/BitIoLdd12.c **** **         portable to various microprocessors.
  76:../Generated_Code/BitIoLdd12.c **** */         
  77:../Generated_Code/BitIoLdd12.c **** /*!
  78:../Generated_Code/BitIoLdd12.c **** **  @addtogroup BitIoLdd12_module BitIoLdd12 module documentation
  79:../Generated_Code/BitIoLdd12.c **** **  @{
  80:../Generated_Code/BitIoLdd12.c **** */         
  81:../Generated_Code/BitIoLdd12.c **** 
  82:../Generated_Code/BitIoLdd12.c **** /* MODULE BitIoLdd12. */
  83:../Generated_Code/BitIoLdd12.c **** 
  84:../Generated_Code/BitIoLdd12.c **** /* {Default RTOS Adapter} No RTOS includes */
  85:../Generated_Code/BitIoLdd12.c **** #include "BitIoLdd12.h"
  86:../Generated_Code/BitIoLdd12.c **** 
  87:../Generated_Code/BitIoLdd12.c **** #ifdef __cplusplus
  88:../Generated_Code/BitIoLdd12.c **** extern "C" {
  89:../Generated_Code/BitIoLdd12.c **** #endif 
  90:../Generated_Code/BitIoLdd12.c **** 
  91:../Generated_Code/BitIoLdd12.c **** typedef struct {
  92:../Generated_Code/BitIoLdd12.c ****   LDD_TUserData *UserDataPtr;          /* Pointer to user data */
  93:../Generated_Code/BitIoLdd12.c **** } BitIoLdd12_TDeviceData;              /* Device data structure type */
  94:../Generated_Code/BitIoLdd12.c **** 
  95:../Generated_Code/BitIoLdd12.c **** typedef BitIoLdd12_TDeviceData *BitIoLdd12_TDeviceDataPtr ; /* Pointer to the device data structure
  96:../Generated_Code/BitIoLdd12.c **** 
  97:../Generated_Code/BitIoLdd12.c **** /* {Default RTOS Adapter} Static object used for simulation of dynamic driver memory allocation */
  98:../Generated_Code/BitIoLdd12.c **** static BitIoLdd12_TDeviceData DeviceDataPrv__DEFAULT_RTOS_ALLOC;
  99:../Generated_Code/BitIoLdd12.c **** /*
 100:../Generated_Code/BitIoLdd12.c **** ** ===================================================================
 101:../Generated_Code/BitIoLdd12.c **** **     Method      :  BitIoLdd12_Init (component BitIO_LDD)
 102:../Generated_Code/BitIoLdd12.c **** */
 103:../Generated_Code/BitIoLdd12.c **** /*!
 104:../Generated_Code/BitIoLdd12.c **** **     @brief
 105:../Generated_Code/BitIoLdd12.c **** **         Initializes the device. Allocates memory for the device data
 106:../Generated_Code/BitIoLdd12.c **** **         structure, allocates interrupt vectors and sets interrupt
 107:../Generated_Code/BitIoLdd12.c **** **         priority, sets pin routing, sets timing, etc. If the "Enable
 108:../Generated_Code/BitIoLdd12.c **** **         in init. code" is set to "yes" value then the device is also
 109:../Generated_Code/BitIoLdd12.c **** **         enabled(see the description of the Enable() method). In this
 110:../Generated_Code/BitIoLdd12.c **** **         case the Enable() method is not necessary and needn't to be
 111:../Generated_Code/BitIoLdd12.c **** **         generated. 
 112:../Generated_Code/BitIoLdd12.c **** **     @param
 113:../Generated_Code/BitIoLdd12.c **** **         UserDataPtr     - Pointer to the user or
 114:../Generated_Code/BitIoLdd12.c **** **                           RTOS specific data. This pointer will be
 115:../Generated_Code/BitIoLdd12.c **** **                           passed as an event or callback parameter.
 116:../Generated_Code/BitIoLdd12.c **** **     @return
 117:../Generated_Code/BitIoLdd12.c **** **                         - Pointer to the dynamically allocated private
 118:../Generated_Code/BitIoLdd12.c **** **                           structure or NULL if there was an error.
 119:../Generated_Code/BitIoLdd12.c **** */
 120:../Generated_Code/BitIoLdd12.c **** /* ===================================================================*/
 121:../Generated_Code/BitIoLdd12.c **** LDD_TDeviceData* BitIoLdd12_Init(LDD_TUserData *UserDataPtr)
 122:../Generated_Code/BitIoLdd12.c **** {
  35              		.loc 1 122 0
  36              		.cfi_startproc
  37              		@ args = 0, pretend = 0, frame = 16
  38              		@ frame_needed = 1, uses_anonymous_args = 0
  39              		@ link register save eliminated.
  40 0000 80B4     		push	{r7}
  41              		.cfi_def_cfa_offset 4
  42              		.cfi_offset 7, -4
  43 0002 85B0     		sub	sp, sp, #20
  44              		.cfi_def_cfa_offset 24
  45 0004 00AF     		add	r7, sp, #0
  46              		.cfi_def_cfa_register 7
  47 0006 7860     		str	r0, [r7, #4]
 123:../Generated_Code/BitIoLdd12.c ****   /* Allocate device structure */
 124:../Generated_Code/BitIoLdd12.c ****   BitIoLdd12_TDeviceDataPtr DeviceDataPrv;
 125:../Generated_Code/BitIoLdd12.c **** 
 126:../Generated_Code/BitIoLdd12.c ****   /* {Default RTOS Adapter} Driver memory allocation: Dynamic allocation is simulated by a pointer 
 127:../Generated_Code/BitIoLdd12.c ****   DeviceDataPrv = &DeviceDataPrv__DEFAULT_RTOS_ALLOC;
  48              		.loc 1 127 0
  49 0008 124B     		ldr	r3, .L3
  50 000a FB60     		str	r3, [r7, #12]
 128:../Generated_Code/BitIoLdd12.c ****   DeviceDataPrv->UserDataPtr = UserDataPtr; /* Store the RTOS device structure */
  51              		.loc 1 128 0
  52 000c FB68     		ldr	r3, [r7, #12]
  53 000e 7A68     		ldr	r2, [r7, #4]
  54 0010 1A60     		str	r2, [r3]
 129:../Generated_Code/BitIoLdd12.c ****   /* Configure pin as output */
 130:../Generated_Code/BitIoLdd12.c ****   /* GPIOC_PDDR: PDD|=0x0200 */
 131:../Generated_Code/BitIoLdd12.c ****   GPIOC_PDDR |= GPIO_PDDR_PDD(0x0200);
  55              		.loc 1 131 0
  56 0012 114B     		ldr	r3, .L3+4
  57 0014 104A     		ldr	r2, .L3+4
  58 0016 5269     		ldr	r2, [r2, #20]
  59 0018 42F40072 		orr	r2, r2, #512
  60 001c 5A61     		str	r2, [r3, #20]
 132:../Generated_Code/BitIoLdd12.c ****   /* Set initialization value */
 133:../Generated_Code/BitIoLdd12.c ****   /* GPIOC_PDOR: PDO&=~0x0200 */
 134:../Generated_Code/BitIoLdd12.c ****   GPIOC_PDOR &= (uint32_t)~(uint32_t)(GPIO_PDOR_PDO(0x0200));
  61              		.loc 1 134 0
  62 001e 0E4B     		ldr	r3, .L3+4
  63 0020 0D4A     		ldr	r2, .L3+4
  64 0022 1268     		ldr	r2, [r2]
  65 0024 22F40072 		bic	r2, r2, #512
  66 0028 1A60     		str	r2, [r3]
 135:../Generated_Code/BitIoLdd12.c ****   /* Initialization of Port Control register */
 136:../Generated_Code/BitIoLdd12.c ****   /* PORTC_PCR9: ISF=0,MUX=1 */
 137:../Generated_Code/BitIoLdd12.c ****   PORTC_PCR9 = (uint32_t)((PORTC_PCR9 & (uint32_t)~(uint32_t)(
  67              		.loc 1 137 0
  68 002a 0C4A     		ldr	r2, .L3+8
  69 002c 0B4B     		ldr	r3, .L3+8
  70 002e 5B6A     		ldr	r3, [r3, #36]
  71 0030 23F08073 		bic	r3, r3, #16777216
  72 0034 23F4E063 		bic	r3, r3, #1792
  73 0038 43F48073 		orr	r3, r3, #256
  74 003c 5362     		str	r3, [r2, #36]
 138:../Generated_Code/BitIoLdd12.c ****                 PORT_PCR_ISF_MASK |
 139:../Generated_Code/BitIoLdd12.c ****                 PORT_PCR_MUX(0x06)
 140:../Generated_Code/BitIoLdd12.c ****                )) | (uint32_t)(
 141:../Generated_Code/BitIoLdd12.c ****                 PORT_PCR_MUX(0x01)
 142:../Generated_Code/BitIoLdd12.c ****                ));
 143:../Generated_Code/BitIoLdd12.c ****   /* Registration of the device structure */
 144:../Generated_Code/BitIoLdd12.c ****   PE_LDD_RegisterDeviceStructure(PE_LDD_COMPONENT_BitIoLdd12_ID,DeviceDataPrv);
  75              		.loc 1 144 0
  76 003e 084B     		ldr	r3, .L3+12
  77 0040 FA68     		ldr	r2, [r7, #12]
  78 0042 5A64     		str	r2, [r3, #68]
 145:../Generated_Code/BitIoLdd12.c ****   return ((LDD_TDeviceData *)DeviceDataPrv);
  79              		.loc 1 145 0
  80 0044 FB68     		ldr	r3, [r7, #12]
 146:../Generated_Code/BitIoLdd12.c **** }
  81              		.loc 1 146 0
  82 0046 1846     		mov	r0, r3
  83 0048 1437     		adds	r7, r7, #20
  84 004a BD46     		mov	sp, r7
  85              		@ sp needed
  86 004c 5DF8047B 		ldr	r7, [sp], #4
  87 0050 7047     		bx	lr
  88              	.L4:
  89 0052 00BF     		.align	2
  90              	.L3:
  91 0054 00000000 		.word	DeviceDataPrv__DEFAULT_RTOS_ALLOC
  92 0058 80F00F40 		.word	1074786432
  93 005c 00B00440 		.word	1074049024
  94 0060 00000000 		.word	PE_LDD_DeviceDataList
  95              		.cfi_endproc
  96              	.LFE0:
  98              		.section	.text.BitIoLdd12_GetVal,"ax",%progbits
  99              		.align	2
 100              		.global	BitIoLdd12_GetVal
 101              		.thumb
 102              		.thumb_func
 104              	BitIoLdd12_GetVal:
 105              	.LFB1:
 147:../Generated_Code/BitIoLdd12.c **** /*
 148:../Generated_Code/BitIoLdd12.c **** ** ===================================================================
 149:../Generated_Code/BitIoLdd12.c **** **     Method      :  BitIoLdd12_GetVal (component BitIO_LDD)
 150:../Generated_Code/BitIoLdd12.c **** */
 151:../Generated_Code/BitIoLdd12.c **** /*!
 152:../Generated_Code/BitIoLdd12.c **** **     @brief
 153:../Generated_Code/BitIoLdd12.c **** **         Returns the input/output value. If the direction is [input]
 154:../Generated_Code/BitIoLdd12.c **** **         then the input value of the pin is read and returned. If the
 155:../Generated_Code/BitIoLdd12.c **** **         direction is [output] then the last written value is read
 156:../Generated_Code/BitIoLdd12.c **** **         and returned (see <Safe mode> property for limitations).
 157:../Generated_Code/BitIoLdd12.c **** **         This method cannot be disabled if direction is [input].
 158:../Generated_Code/BitIoLdd12.c **** **     @param
 159:../Generated_Code/BitIoLdd12.c **** **         DeviceDataPtr   - Device data structure
 160:../Generated_Code/BitIoLdd12.c **** **                           pointer returned by <Init> method.
 161:../Generated_Code/BitIoLdd12.c **** **     @return
 162:../Generated_Code/BitIoLdd12.c **** **                         - Input or output value. Possible values:
 163:../Generated_Code/BitIoLdd12.c **** **                           <false> - logical "0" (Low level)
 164:../Generated_Code/BitIoLdd12.c **** **                           <true> - logical "1" (High level)
 165:../Generated_Code/BitIoLdd12.c **** */
 166:../Generated_Code/BitIoLdd12.c **** /* ===================================================================*/
 167:../Generated_Code/BitIoLdd12.c **** bool BitIoLdd12_GetVal(LDD_TDeviceData *DeviceDataPtr)
 168:../Generated_Code/BitIoLdd12.c **** {
 106              		.loc 1 168 0
 107              		.cfi_startproc
 108              		@ args = 0, pretend = 0, frame = 16
 109              		@ frame_needed = 1, uses_anonymous_args = 0
 110              		@ link register save eliminated.
 111 0000 80B4     		push	{r7}
 112              		.cfi_def_cfa_offset 4
 113              		.cfi_offset 7, -4
 114 0002 85B0     		sub	sp, sp, #20
 115              		.cfi_def_cfa_offset 24
 116 0004 00AF     		add	r7, sp, #0
 117              		.cfi_def_cfa_register 7
 118 0006 7860     		str	r0, [r7, #4]
 169:../Generated_Code/BitIoLdd12.c ****   uint32_t PortData;                   /* Port data masked according to the bit used */
 170:../Generated_Code/BitIoLdd12.c **** 
 171:../Generated_Code/BitIoLdd12.c ****   (void)DeviceDataPtr;                 /* Parameter is not used, suppress unused argument warning *
 172:../Generated_Code/BitIoLdd12.c ****   PortData = GPIO_PDD_GetPortDataOutput(BitIoLdd12_MODULE_BASE_ADDRESS) & BitIoLdd12_PORT_MASK;
 119              		.loc 1 172 0
 120 0008 084B     		ldr	r3, .L7
 121 000a 1B68     		ldr	r3, [r3]
 122 000c 03F40073 		and	r3, r3, #512
 123 0010 FB60     		str	r3, [r7, #12]
 173:../Generated_Code/BitIoLdd12.c ****   return (PortData != 0U) ? (bool)TRUE : (bool)FALSE;
 124              		.loc 1 173 0
 125 0012 FB68     		ldr	r3, [r7, #12]
 126 0014 002B     		cmp	r3, #0
 127 0016 0CBF     		ite	eq
 128 0018 0023     		moveq	r3, #0
 129 001a 0123     		movne	r3, #1
 130 001c DBB2     		uxtb	r3, r3
 174:../Generated_Code/BitIoLdd12.c **** }
 131              		.loc 1 174 0
 132 001e 1846     		mov	r0, r3
 133 0020 1437     		adds	r7, r7, #20
 134 0022 BD46     		mov	sp, r7
 135              		@ sp needed
 136 0024 5DF8047B 		ldr	r7, [sp], #4
 137 0028 7047     		bx	lr
 138              	.L8:
 139 002a 00BF     		.align	2
 140              	.L7:
 141 002c 80F00F40 		.word	1074786432
 142              		.cfi_endproc
 143              	.LFE1:
 145              		.section	.text.BitIoLdd12_PutVal,"ax",%progbits
 146              		.align	2
 147              		.global	BitIoLdd12_PutVal
 148              		.thumb
 149              		.thumb_func
 151              	BitIoLdd12_PutVal:
 152              	.LFB2:
 175:../Generated_Code/BitIoLdd12.c **** 
 176:../Generated_Code/BitIoLdd12.c **** /*
 177:../Generated_Code/BitIoLdd12.c **** ** ===================================================================
 178:../Generated_Code/BitIoLdd12.c **** **     Method      :  BitIoLdd12_PutVal (component BitIO_LDD)
 179:../Generated_Code/BitIoLdd12.c **** */
 180:../Generated_Code/BitIoLdd12.c **** /*!
 181:../Generated_Code/BitIoLdd12.c **** **     @brief
 182:../Generated_Code/BitIoLdd12.c **** **         The specified output value is set. If the direction is <b>
 183:../Generated_Code/BitIoLdd12.c **** **         input</b>, the component saves the value to a memory or a
 184:../Generated_Code/BitIoLdd12.c **** **         register and this value will be written to the pin after
 185:../Generated_Code/BitIoLdd12.c **** **         switching to the output mode (using <tt>SetDir(TRUE)</tt>;
 186:../Generated_Code/BitIoLdd12.c **** **         see <a href="BitIOProperties.html#SafeMode">Safe mode</a>
 187:../Generated_Code/BitIoLdd12.c **** **         property for limitations). If the direction is <b>output</b>,
 188:../Generated_Code/BitIoLdd12.c **** **         it writes the value to the pin. (Method is available only if
 189:../Generated_Code/BitIoLdd12.c **** **         the direction = <u><tt>output</tt></u> or <u><tt>
 190:../Generated_Code/BitIoLdd12.c **** **         input/output</tt></u>).
 191:../Generated_Code/BitIoLdd12.c **** **     @param
 192:../Generated_Code/BitIoLdd12.c **** **         DeviceDataPtr   - Device data structure
 193:../Generated_Code/BitIoLdd12.c **** **                           pointer returned by <Init> method.
 194:../Generated_Code/BitIoLdd12.c **** **     @param
 195:../Generated_Code/BitIoLdd12.c **** **         Val             - Output value. Possible values:
 196:../Generated_Code/BitIoLdd12.c **** **                           <false> - logical "0" (Low level)
 197:../Generated_Code/BitIoLdd12.c **** **                           <true> - logical "1" (High level)
 198:../Generated_Code/BitIoLdd12.c **** */
 199:../Generated_Code/BitIoLdd12.c **** /* ===================================================================*/
 200:../Generated_Code/BitIoLdd12.c **** void BitIoLdd12_PutVal(LDD_TDeviceData *DeviceDataPtr, bool Val)
 201:../Generated_Code/BitIoLdd12.c **** {
 153              		.loc 1 201 0
 154              		.cfi_startproc
 155              		@ args = 0, pretend = 0, frame = 8
 156              		@ frame_needed = 1, uses_anonymous_args = 0
 157              		@ link register save eliminated.
 158 0000 80B4     		push	{r7}
 159              		.cfi_def_cfa_offset 4
 160              		.cfi_offset 7, -4
 161 0002 83B0     		sub	sp, sp, #12
 162              		.cfi_def_cfa_offset 16
 163 0004 00AF     		add	r7, sp, #0
 164              		.cfi_def_cfa_register 7
 165 0006 7860     		str	r0, [r7, #4]
 166 0008 0B46     		mov	r3, r1
 167 000a FB70     		strb	r3, [r7, #3]
 202:../Generated_Code/BitIoLdd12.c ****   (void)DeviceDataPtr;                 /* Parameter is not used, suppress unused argument warning *
 203:../Generated_Code/BitIoLdd12.c ****   if (Val) {
 168              		.loc 1 203 0
 169 000c FB78     		ldrb	r3, [r7, #3]	@ zero_extendqisi2
 170 000e 002B     		cmp	r3, #0
 171 0010 04D0     		beq	.L10
 204:../Generated_Code/BitIoLdd12.c ****     GPIO_PDD_SetPortDataOutputMask(BitIoLdd12_MODULE_BASE_ADDRESS, BitIoLdd12_PORT_MASK);
 172              		.loc 1 204 0
 173 0012 074B     		ldr	r3, .L12
 174 0014 4FF40072 		mov	r2, #512
 175 0018 5A60     		str	r2, [r3, #4]
 176 001a 03E0     		b	.L9
 177              	.L10:
 205:../Generated_Code/BitIoLdd12.c ****   } else { /* !Val */
 206:../Generated_Code/BitIoLdd12.c ****     GPIO_PDD_ClearPortDataOutputMask(BitIoLdd12_MODULE_BASE_ADDRESS, BitIoLdd12_PORT_MASK);
 178              		.loc 1 206 0
 179 001c 044B     		ldr	r3, .L12
 180 001e 4FF40072 		mov	r2, #512
 181 0022 9A60     		str	r2, [r3, #8]
 182              	.L9:
 207:../Generated_Code/BitIoLdd12.c ****   } /* !Val */
 208:../Generated_Code/BitIoLdd12.c **** }
 183              		.loc 1 208 0
 184 0024 0C37     		adds	r7, r7, #12
 185 0026 BD46     		mov	sp, r7
 186              		@ sp needed
 187 0028 5DF8047B 		ldr	r7, [sp], #4
 188 002c 7047     		bx	lr
 189              	.L13:
 190 002e 00BF     		.align	2
 191              	.L12:
 192 0030 80F00F40 		.word	1074786432
 193              		.cfi_endproc
 194              	.LFE2:
 196              		.section	.text.BitIoLdd12_ClrVal,"ax",%progbits
 197              		.align	2
 198              		.global	BitIoLdd12_ClrVal
 199              		.thumb
 200              		.thumb_func
 202              	BitIoLdd12_ClrVal:
 203              	.LFB3:
 209:../Generated_Code/BitIoLdd12.c **** 
 210:../Generated_Code/BitIoLdd12.c **** /*
 211:../Generated_Code/BitIoLdd12.c **** ** ===================================================================
 212:../Generated_Code/BitIoLdd12.c **** **     Method      :  BitIoLdd12_ClrVal (component BitIO_LDD)
 213:../Generated_Code/BitIoLdd12.c **** */
 214:../Generated_Code/BitIoLdd12.c **** /*!
 215:../Generated_Code/BitIoLdd12.c **** **     @brief
 216:../Generated_Code/BitIoLdd12.c **** **         Clears (set to zero) the output value. It is equivalent to
 217:../Generated_Code/BitIoLdd12.c **** **         the [PutVal(FALSE)]. This method is available only if the
 218:../Generated_Code/BitIoLdd12.c **** **         direction = _[output]_ or _[input/output]_.
 219:../Generated_Code/BitIoLdd12.c **** **     @param
 220:../Generated_Code/BitIoLdd12.c **** **         DeviceDataPtr   - Pointer to device data
 221:../Generated_Code/BitIoLdd12.c **** **                           structure returned by <Init> method.
 222:../Generated_Code/BitIoLdd12.c **** */
 223:../Generated_Code/BitIoLdd12.c **** /* ===================================================================*/
 224:../Generated_Code/BitIoLdd12.c **** void BitIoLdd12_ClrVal(LDD_TDeviceData *DeviceDataPtr)
 225:../Generated_Code/BitIoLdd12.c **** {
 204              		.loc 1 225 0
 205              		.cfi_startproc
 206              		@ args = 0, pretend = 0, frame = 8
 207              		@ frame_needed = 1, uses_anonymous_args = 0
 208              		@ link register save eliminated.
 209 0000 80B4     		push	{r7}
 210              		.cfi_def_cfa_offset 4
 211              		.cfi_offset 7, -4
 212 0002 83B0     		sub	sp, sp, #12
 213              		.cfi_def_cfa_offset 16
 214 0004 00AF     		add	r7, sp, #0
 215              		.cfi_def_cfa_register 7
 216 0006 7860     		str	r0, [r7, #4]
 226:../Generated_Code/BitIoLdd12.c ****   (void)DeviceDataPtr;                 /* Parameter is not used, suppress unused argument warning *
 227:../Generated_Code/BitIoLdd12.c ****   GPIO_PDD_ClearPortDataOutputMask(BitIoLdd12_MODULE_BASE_ADDRESS, BitIoLdd12_PORT_MASK);
 217              		.loc 1 227 0
 218 0008 044B     		ldr	r3, .L15
 219 000a 4FF40072 		mov	r2, #512
 220 000e 9A60     		str	r2, [r3, #8]
 228:../Generated_Code/BitIoLdd12.c **** }
 221              		.loc 1 228 0
 222 0010 0C37     		adds	r7, r7, #12
 223 0012 BD46     		mov	sp, r7
 224              		@ sp needed
 225 0014 5DF8047B 		ldr	r7, [sp], #4
 226 0018 7047     		bx	lr
 227              	.L16:
 228 001a 00BF     		.align	2
 229              	.L15:
 230 001c 80F00F40 		.word	1074786432
 231              		.cfi_endproc
 232              	.LFE3:
 234              		.section	.text.BitIoLdd12_SetVal,"ax",%progbits
 235              		.align	2
 236              		.global	BitIoLdd12_SetVal
 237              		.thumb
 238              		.thumb_func
 240              	BitIoLdd12_SetVal:
 241              	.LFB4:
 229:../Generated_Code/BitIoLdd12.c **** 
 230:../Generated_Code/BitIoLdd12.c **** /*
 231:../Generated_Code/BitIoLdd12.c **** ** ===================================================================
 232:../Generated_Code/BitIoLdd12.c **** **     Method      :  BitIoLdd12_SetVal (component BitIO_LDD)
 233:../Generated_Code/BitIoLdd12.c **** */
 234:../Generated_Code/BitIoLdd12.c **** /*!
 235:../Generated_Code/BitIoLdd12.c **** **     @brief
 236:../Generated_Code/BitIoLdd12.c **** **         Sets (to one) the output value. It is equivalent to the
 237:../Generated_Code/BitIoLdd12.c **** **         [PutVal(TRUE)]. This method is available only if the
 238:../Generated_Code/BitIoLdd12.c **** **         direction = _[output]_ or _[input/output]_.
 239:../Generated_Code/BitIoLdd12.c **** **     @param
 240:../Generated_Code/BitIoLdd12.c **** **         DeviceDataPtr   - Pointer to device data
 241:../Generated_Code/BitIoLdd12.c **** **                           structure returned by <Init> method.
 242:../Generated_Code/BitIoLdd12.c **** */
 243:../Generated_Code/BitIoLdd12.c **** /* ===================================================================*/
 244:../Generated_Code/BitIoLdd12.c **** void BitIoLdd12_SetVal(LDD_TDeviceData *DeviceDataPtr)
 245:../Generated_Code/BitIoLdd12.c **** {
 242              		.loc 1 245 0
 243              		.cfi_startproc
 244              		@ args = 0, pretend = 0, frame = 8
 245              		@ frame_needed = 1, uses_anonymous_args = 0
 246              		@ link register save eliminated.
 247 0000 80B4     		push	{r7}
 248              		.cfi_def_cfa_offset 4
 249              		.cfi_offset 7, -4
 250 0002 83B0     		sub	sp, sp, #12
 251              		.cfi_def_cfa_offset 16
 252 0004 00AF     		add	r7, sp, #0
 253              		.cfi_def_cfa_register 7
 254 0006 7860     		str	r0, [r7, #4]
 246:../Generated_Code/BitIoLdd12.c ****   (void)DeviceDataPtr;                 /* Parameter is not used, suppress unused argument warning *
 247:../Generated_Code/BitIoLdd12.c ****   GPIO_PDD_SetPortDataOutputMask(BitIoLdd12_MODULE_BASE_ADDRESS, BitIoLdd12_PORT_MASK);
 255              		.loc 1 247 0
 256 0008 044B     		ldr	r3, .L18
 257 000a 4FF40072 		mov	r2, #512
 258 000e 5A60     		str	r2, [r3, #4]
 248:../Generated_Code/BitIoLdd12.c **** }
 259              		.loc 1 248 0
 260 0010 0C37     		adds	r7, r7, #12
 261 0012 BD46     		mov	sp, r7
 262              		@ sp needed
 263 0014 5DF8047B 		ldr	r7, [sp], #4
 264 0018 7047     		bx	lr
 265              	.L19:
 266 001a 00BF     		.align	2
 267              	.L18:
 268 001c 80F00F40 		.word	1074786432
 269              		.cfi_endproc
 270              	.LFE4:
 272              		.text
 273              	.Letext0:
 274              		.file 2 "c:\\freescale\\kds_v3\\toolchain\\arm-none-eabi\\include\\machine\\_default_types.h"
 275              		.file 3 "c:\\freescale\\kds_v3\\toolchain\\arm-none-eabi\\include\\stdint.h"
 276              		.file 4 "../Generated_Code/PE_Types.h"
 277              		.file 5 "C:/INTRO_HS18/IntroAronAlex/TEAM_Robot/Static_Code/IO_Map/MK22F12.h"