   1              		.syntax unified
   2              		.cpu cortex-m4
   3              		.eabi_attribute 27, 3
   4              		.eabi_attribute 28, 1
   5              		.fpu fpv4-sp-d16
   6              		.eabi_attribute 20, 1
   7              		.eabi_attribute 21, 1
   8              		.eabi_attribute 23, 3
   9              		.eabi_attribute 24, 1
  10              		.eabi_attribute 25, 1
  11              		.eabi_attribute 26, 1
  12              		.eabi_attribute 30, 6
  13              		.eabi_attribute 34, 1
  14              		.eabi_attribute 18, 4
  15              		.thumb
  16              		.file	"Cpu.c"
  17              		.text
  18              	.Ltext0:
  19              		.cfi_sections	.debug_frame
  20              		.section	.rodata.TmDt1_DefaultTime,"a",%progbits
  21              		.align	2
  24              	TmDt1_DefaultTime:
  25 0000 11       		.byte	17
  26 0001 33       		.byte	51
  27 0002 1F       		.byte	31
  28 0003 00       		.byte	0
  29              		.section	.rodata.TmDt1_DefaultDate,"a",%progbits
  30              		.align	2
  33              	TmDt1_DefaultDate:
  34 0000 DC07     		.short	2012
  35 0002 07       		.byte	7
  36 0003 16       		.byte	22
  37              		.comm	SR_reg,1,1
  38              		.global	SR_lock
  39              		.section	.bss.SR_lock,"aw",%nobits
  42              	SR_lock:
  43 0000 00       		.space	1
  44              		.section	.text.Cpu_INT_NMIInterrupt,"ax",%progbits
  45              		.align	2
  46              		.global	Cpu_INT_NMIInterrupt
  47              		.thumb
  48              		.thumb_func
  50              	Cpu_INT_NMIInterrupt:
  51              	.LFB0:
  52              		.file 1 "../Generated_Code/Cpu.c"
   1:../Generated_Code/Cpu.c **** /* ###################################################################
   2:../Generated_Code/Cpu.c **** **     This component module is generated by Processor Expert. Do not modify it.
   3:../Generated_Code/Cpu.c **** **     Filename    : Cpu.c
   4:../Generated_Code/Cpu.c **** **     Project     : TEAM_Robot
   5:../Generated_Code/Cpu.c **** **     Processor   : MK22FX512VLK12
   6:../Generated_Code/Cpu.c **** **     Component   : MK22FN1M0LK12
   7:../Generated_Code/Cpu.c **** **     Version     : Component 01.014, Driver 01.04, CPU db: 3.00.000
   8:../Generated_Code/Cpu.c **** **     Repository  : Kinetis
   9:../Generated_Code/Cpu.c **** **     Datasheet   : K22P144M100SF5RM, Rev.2, Apr 2013
  10:../Generated_Code/Cpu.c **** **     Compiler    : GNU C Compiler
  11:../Generated_Code/Cpu.c **** **     Date/Time   : 2018-09-28, 15:03, # CodeGen: 0
  12:../Generated_Code/Cpu.c **** **     Abstract    :
  13:../Generated_Code/Cpu.c **** **
  14:../Generated_Code/Cpu.c **** **     Settings    :
  15:../Generated_Code/Cpu.c **** **          Component name                                 : Cpu
  16:../Generated_Code/Cpu.c **** **          CPU type                                       : MK22FX512VLK12
  17:../Generated_Code/Cpu.c **** **          CPU                                            : CPU
  18:../Generated_Code/Cpu.c **** **          MemModelDev                                    : MemModel_FlexMem
  19:../Generated_Code/Cpu.c **** **          Clock settings                                 : 
  20:../Generated_Code/Cpu.c **** **            Internal oscillator                          : 
  21:../Generated_Code/Cpu.c **** **              Slow internal reference clock [kHz]        : 32.768
  22:../Generated_Code/Cpu.c **** **              Initialize slow trim value                 : no
  23:../Generated_Code/Cpu.c **** **              Fast internal reference clock [MHz]        : 4
  24:../Generated_Code/Cpu.c **** **              Initialize fast trim value                 : no
  25:../Generated_Code/Cpu.c **** **            RTC oscillator                               : Disabled
  26:../Generated_Code/Cpu.c **** **            System oscillator 0                          : Enabled
  27:../Generated_Code/Cpu.c **** **              Clock source                               : External crystal
  28:../Generated_Code/Cpu.c **** **                Clock input pin                          : 
  29:../Generated_Code/Cpu.c **** **                  Pin name                               : EXTAL0/PTA18/FTM0_FLT2/FTM_CLKIN0
  30:../Generated_Code/Cpu.c **** **                  Pin signal                             : EXTAL
  31:../Generated_Code/Cpu.c **** **                Clock output pin                         : 
  32:../Generated_Code/Cpu.c **** **                  Pin name                               : XTAL0/PTA19/FTM1_FLT0/FTM_CLKIN1/LPTMR
  33:../Generated_Code/Cpu.c **** **                  Pin signal                             : XTAL
  34:../Generated_Code/Cpu.c **** **                Clock frequency [MHz]                    : 8
  35:../Generated_Code/Cpu.c **** **                Capacitor load                           : 0pF
  36:../Generated_Code/Cpu.c **** **                Oscillator operating mode                : Low power
  37:../Generated_Code/Cpu.c **** **            Clock source settings                        : 1
  38:../Generated_Code/Cpu.c **** **              Clock source setting 0                     : 
  39:../Generated_Code/Cpu.c **** **                Internal reference clock                 : 
  40:../Generated_Code/Cpu.c **** **                  MCGIRCLK clock                         : Enabled
  41:../Generated_Code/Cpu.c **** **                  MCGIRCLK in stop                       : Disabled
  42:../Generated_Code/Cpu.c **** **                  MCGIRCLK source                        : Slow
  43:../Generated_Code/Cpu.c **** **                  MCGIRCLK clock [MHz]                   : 0.032768
  44:../Generated_Code/Cpu.c **** **                External reference clock                 : 
  45:../Generated_Code/Cpu.c **** **                  OSC0ERCLK clock                        : Enabled
  46:../Generated_Code/Cpu.c **** **                  OSC0ERCLK in stop                      : Disabled
  47:../Generated_Code/Cpu.c **** **                  OSC0ERCLK clock [MHz]                  : 8
  48:../Generated_Code/Cpu.c **** **                  ERCLK32K clock source                  : Auto select
  49:../Generated_Code/Cpu.c **** **                  ERCLK32K. clock [kHz]                  : 0.001
  50:../Generated_Code/Cpu.c **** **                MCG settings                             : 
  51:../Generated_Code/Cpu.c **** **                  MCG mode                               : PEE
  52:../Generated_Code/Cpu.c **** **                  MCG output clock                       : PLL clock
  53:../Generated_Code/Cpu.c **** **                  MCG output [MHz]                       : 120
  54:../Generated_Code/Cpu.c **** **                  MCG external ref. clock source         : System oscillator 0
  55:../Generated_Code/Cpu.c **** **                  MCG external ref. clock [MHz]          : 8
  56:../Generated_Code/Cpu.c **** **                  Clock monitor                          : Disabled
  57:../Generated_Code/Cpu.c **** **                  FLL settings                           : 
  58:../Generated_Code/Cpu.c **** **                    FLL module                           : Disabled
  59:../Generated_Code/Cpu.c **** **                    FLL output [MHz]                     : 0
  60:../Generated_Code/Cpu.c **** **                    MCGFFCLK clock [kHz]                 : 31.25
  61:../Generated_Code/Cpu.c **** **                    Reference clock source               : External clock
  62:../Generated_Code/Cpu.c **** **                      Reference clock divider            : Auto select
  63:../Generated_Code/Cpu.c **** **                    FLL reference clock [kHz]            : 31.25
  64:../Generated_Code/Cpu.c **** **                    Multiplication factor                : Auto select
  65:../Generated_Code/Cpu.c **** **                  PLL 0 settings                         : 
  66:../Generated_Code/Cpu.c **** **                    PLL module                           : Enabled
  67:../Generated_Code/Cpu.c **** **                    PLL module in Stop                   : Disabled
  68:../Generated_Code/Cpu.c **** **                    PLL output [MHz]                     : 120
  69:../Generated_Code/Cpu.c **** **                    Reference clock divider              : Auto select
  70:../Generated_Code/Cpu.c **** **                    PLL reference clock [MHz]            : 4
  71:../Generated_Code/Cpu.c **** **                    Multiplication factor                : Auto select
  72:../Generated_Code/Cpu.c **** **                    Loss of lock interrupt               : Disabled
  73:../Generated_Code/Cpu.c **** **          Initialization priority                        : minimal priority
  74:../Generated_Code/Cpu.c **** **          Watchdog disable                               : yes
  75:../Generated_Code/Cpu.c **** **          Internal peripherals                           : 
  76:../Generated_Code/Cpu.c **** **            NMI pin                                      : Enabled
  77:../Generated_Code/Cpu.c **** **              NMI Pin                                    : PTA4/LLWU_P3/FTM0_CH1/NMI_b/EZP_CS_b
  78:../Generated_Code/Cpu.c **** **              NMI Pin signal                             : 
  79:../Generated_Code/Cpu.c **** **            Reset control                                : Enabled
  80:../Generated_Code/Cpu.c **** **              Reset pin                                  : RESET_b
  81:../Generated_Code/Cpu.c **** **              Reset pin signal                           : 
  82:../Generated_Code/Cpu.c **** **              Filter in STOP                             : Disabled
  83:../Generated_Code/Cpu.c **** **              Filter in RUN/WAIT                         : Disabled
  84:../Generated_Code/Cpu.c **** **              Filter width                               : 1
  85:../Generated_Code/Cpu.c **** **            Debug interface (JTAG)                       : 
  86:../Generated_Code/Cpu.c **** **              JTAG Mode                                  : cJTAG/SWD
  87:../Generated_Code/Cpu.c **** **                TDO                                      : Disabled
  88:../Generated_Code/Cpu.c **** **                TCK                                      : Enabled
  89:../Generated_Code/Cpu.c **** **                  TCK Pin                                : PTA0/UART0_CTS_b/UART0_COL_b/FTM0_CH5/
  90:../Generated_Code/Cpu.c **** **                  TCK Pin signal                         : 
  91:../Generated_Code/Cpu.c **** **                TMS                                      : Enabled
  92:../Generated_Code/Cpu.c **** **                  TMS Pin                                : PTA3/UART0_RTS_b/FTM0_CH0/JTAG_TMS/SWD
  93:../Generated_Code/Cpu.c **** **                  TMS Pin signal                         : 
  94:../Generated_Code/Cpu.c **** **            Flash memory organization                    : 
  95:../Generated_Code/Cpu.c **** **              FlexNVM settings                           : Partition code: 0xFFFF
  96:../Generated_Code/Cpu.c **** **                FlexNVM size                             : 128 KB
  97:../Generated_Code/Cpu.c **** **                DFlash size                              : 128 KB
  98:../Generated_Code/Cpu.c **** **                EEPROM size                              : 0 bytes
  99:../Generated_Code/Cpu.c **** **                  Start                                  : 0x10000000
 100:../Generated_Code/Cpu.c **** **                  Size                                   : 0x0
 101:../Generated_Code/Cpu.c **** **                  Start                                  : 0x14000000
 102:../Generated_Code/Cpu.c **** **                  Size                                   : 0x0
 103:../Generated_Code/Cpu.c **** **                  FlexRAM                                : Disabled
 104:../Generated_Code/Cpu.c **** **              Flash blocks                               : 2
 105:../Generated_Code/Cpu.c **** **                Flash block 0                            : PFlash
 106:../Generated_Code/Cpu.c **** **                  Address                                : 0x0
 107:../Generated_Code/Cpu.c **** **                  Size                                   : 524288
 108:../Generated_Code/Cpu.c **** **                  Write unit size                        : 8
 109:../Generated_Code/Cpu.c **** **                  Erase unit size                        : 4096
 110:../Generated_Code/Cpu.c **** **                  Protection unit size                   : 16384
 111:../Generated_Code/Cpu.c **** **                Flash block 1                            : DFlash
 112:../Generated_Code/Cpu.c **** **                  Address                                : 0x10000000
 113:../Generated_Code/Cpu.c **** **                  Size                                   : 131072
 114:../Generated_Code/Cpu.c **** **                  Write unit size                        : 8
 115:../Generated_Code/Cpu.c **** **                  Erase unit size                        : 4096
 116:../Generated_Code/Cpu.c **** **                  Protection unit size                   : 16384
 117:../Generated_Code/Cpu.c **** **            Flexible memory controller                   : Disabled
 118:../Generated_Code/Cpu.c **** **            Flash configuration field                    : Enabled
 119:../Generated_Code/Cpu.c **** **              Security settings                          : 
 120:../Generated_Code/Cpu.c **** **                Flash security                           : Disabled
 121:../Generated_Code/Cpu.c **** **                Freescale failure analysis access        : Enabled
 122:../Generated_Code/Cpu.c **** **                Mass erase                               : Enabled
 123:../Generated_Code/Cpu.c **** **                Backdoor key security                    : Disabled
 124:../Generated_Code/Cpu.c **** **                Backdoor key 0                           : 255
 125:../Generated_Code/Cpu.c **** **                Backdoor key 1                           : 255
 126:../Generated_Code/Cpu.c **** **                Backdoor key 2                           : 255
 127:../Generated_Code/Cpu.c **** **                Backdoor key 3                           : 255
 128:../Generated_Code/Cpu.c **** **                Backdoor key 4                           : 255
 129:../Generated_Code/Cpu.c **** **                Backdoor key 5                           : 255
 130:../Generated_Code/Cpu.c **** **                Backdoor key 6                           : 255
 131:../Generated_Code/Cpu.c **** **                Backdoor key 7                           : 255
 132:../Generated_Code/Cpu.c **** **              Protection regions                         : 
 133:../Generated_Code/Cpu.c **** **                P-Flash protection settings              : 
 134:../Generated_Code/Cpu.c **** **                  Protection region size                 : 16384
 135:../Generated_Code/Cpu.c **** **                  P-Flash protection                     : 0xFFFFFFFF
 136:../Generated_Code/Cpu.c **** **                  Protection regions                     : 
 137:../Generated_Code/Cpu.c **** **                    Protection region 0                  : Unprotected
 138:../Generated_Code/Cpu.c **** **                    Protection region 1                  : Unprotected
 139:../Generated_Code/Cpu.c **** **                    Protection region 2                  : Unprotected
 140:../Generated_Code/Cpu.c **** **                    Protection region 3                  : Unprotected
 141:../Generated_Code/Cpu.c **** **                    Protection region 4                  : Unprotected
 142:../Generated_Code/Cpu.c **** **                    Protection region 5                  : Unprotected
 143:../Generated_Code/Cpu.c **** **                    Protection region 6                  : Unprotected
 144:../Generated_Code/Cpu.c **** **                    Protection region 7                  : Unprotected
 145:../Generated_Code/Cpu.c **** **                    Protection region 8                  : Unprotected
 146:../Generated_Code/Cpu.c **** **                    Protection region 9                  : Unprotected
 147:../Generated_Code/Cpu.c **** **                    Protection region 10                 : Unprotected
 148:../Generated_Code/Cpu.c **** **                    Protection region 11                 : Unprotected
 149:../Generated_Code/Cpu.c **** **                    Protection region 12                 : Unprotected
 150:../Generated_Code/Cpu.c **** **                    Protection region 13                 : Unprotected
 151:../Generated_Code/Cpu.c **** **                    Protection region 14                 : Unprotected
 152:../Generated_Code/Cpu.c **** **                    Protection region 15                 : Unprotected
 153:../Generated_Code/Cpu.c **** **                    Protection region 16                 : Unprotected
 154:../Generated_Code/Cpu.c **** **                    Protection region 17                 : Unprotected
 155:../Generated_Code/Cpu.c **** **                    Protection region 18                 : Unprotected
 156:../Generated_Code/Cpu.c **** **                    Protection region 19                 : Unprotected
 157:../Generated_Code/Cpu.c **** **                    Protection region 20                 : Unprotected
 158:../Generated_Code/Cpu.c **** **                    Protection region 21                 : Unprotected
 159:../Generated_Code/Cpu.c **** **                    Protection region 22                 : Unprotected
 160:../Generated_Code/Cpu.c **** **                    Protection region 23                 : Unprotected
 161:../Generated_Code/Cpu.c **** **                    Protection region 24                 : Unprotected
 162:../Generated_Code/Cpu.c **** **                    Protection region 25                 : Unprotected
 163:../Generated_Code/Cpu.c **** **                    Protection region 26                 : Unprotected
 164:../Generated_Code/Cpu.c **** **                    Protection region 27                 : Unprotected
 165:../Generated_Code/Cpu.c **** **                    Protection region 28                 : Unprotected
 166:../Generated_Code/Cpu.c **** **                    Protection region 29                 : Unprotected
 167:../Generated_Code/Cpu.c **** **                    Protection region 30                 : Unprotected
 168:../Generated_Code/Cpu.c **** **                    Protection region 31                 : Unprotected
 169:../Generated_Code/Cpu.c **** **                D-Flash protection settings              : 
 170:../Generated_Code/Cpu.c **** **                  Protection region size                 : 16384
 171:../Generated_Code/Cpu.c **** **                  D-Flash protection                     : 0xFF
 172:../Generated_Code/Cpu.c **** **                  Protection regions                     : 
 173:../Generated_Code/Cpu.c **** **                    Protection region 0                  : Unprotected
 174:../Generated_Code/Cpu.c **** **                    Protection region 1                  : Unprotected
 175:../Generated_Code/Cpu.c **** **                    Protection region 2                  : Unprotected
 176:../Generated_Code/Cpu.c **** **                    Protection region 3                  : Unprotected
 177:../Generated_Code/Cpu.c **** **                    Protection region 4                  : Unprotected
 178:../Generated_Code/Cpu.c **** **                    Protection region 5                  : Unprotected
 179:../Generated_Code/Cpu.c **** **                    Protection region 6                  : Unprotected
 180:../Generated_Code/Cpu.c **** **                    Protection region 7                  : Unprotected
 181:../Generated_Code/Cpu.c **** **                Eeprom protection settings               : 
 182:../Generated_Code/Cpu.c **** **                  Protection region size                 : 0
 183:../Generated_Code/Cpu.c **** **                  Eeprom protection                      : 0xFF
 184:../Generated_Code/Cpu.c **** **                  Protection regions                     : 
 185:../Generated_Code/Cpu.c **** **                    Protection region 0                  : Unprotected
 186:../Generated_Code/Cpu.c **** **                    Protection region 1                  : Unprotected
 187:../Generated_Code/Cpu.c **** **                    Protection region 2                  : Unprotected
 188:../Generated_Code/Cpu.c **** **                    Protection region 3                  : Unprotected
 189:../Generated_Code/Cpu.c **** **                    Protection region 4                  : Unprotected
 190:../Generated_Code/Cpu.c **** **                    Protection region 5                  : Unprotected
 191:../Generated_Code/Cpu.c **** **                    Protection region 6                  : Unprotected
 192:../Generated_Code/Cpu.c **** **                    Protection region 7                  : Unprotected
 193:../Generated_Code/Cpu.c **** **              Peripheral settings                        : 
 194:../Generated_Code/Cpu.c **** **                NMI function                             : Enabled
 195:../Generated_Code/Cpu.c **** **                EzPort operation at boot                 : Enabled
 196:../Generated_Code/Cpu.c **** **                Low power boot                           : Disabled
 197:../Generated_Code/Cpu.c **** **            MPU settings                                 : Enabled
 198:../Generated_Code/Cpu.c **** **              MPU module                                 : Disabled
 199:../Generated_Code/Cpu.c **** **            AXBS settings                                : Disabled
 200:../Generated_Code/Cpu.c **** **            MCM settings                                 : Disabled
 201:../Generated_Code/Cpu.c **** **            System control block settings                : Disabled
 202:../Generated_Code/Cpu.c **** **            Power management controller                  : 
 203:../Generated_Code/Cpu.c **** **              LVD reset                                  : Enabled
 204:../Generated_Code/Cpu.c **** **              LVD voltage treshold                       : Low
 205:../Generated_Code/Cpu.c **** **              LVW voltage treshold                       : Low
 206:../Generated_Code/Cpu.c **** **              Bandgap buffer                             : Disabled
 207:../Generated_Code/Cpu.c **** **              Bandgap buffer in VLPx                     : Disabled
 208:../Generated_Code/Cpu.c **** **              LVD interrupt                              : 
 209:../Generated_Code/Cpu.c **** **                Interrupt                                : INT_LVD_LVW
 210:../Generated_Code/Cpu.c **** **                Interrupt request                        : Disabled
 211:../Generated_Code/Cpu.c **** **                Interrupt priority                       : 0 (Highest)
 212:../Generated_Code/Cpu.c **** **                LVD interrupt                            : Disabled
 213:../Generated_Code/Cpu.c **** **                LVW interrupt                            : Disabled
 214:../Generated_Code/Cpu.c **** **            System Integration Module                    : 
 215:../Generated_Code/Cpu.c **** **              CLKOUT pin control                         : Disabled
 216:../Generated_Code/Cpu.c **** **              Clock gating control                       : Disabled
 217:../Generated_Code/Cpu.c **** **          CPU interrupts/resets                          : 
 218:../Generated_Code/Cpu.c **** **            NMI interrupt                                : Enabled
 219:../Generated_Code/Cpu.c **** **              Interrupt                                  : INT_NMI
 220:../Generated_Code/Cpu.c **** **            Hard Fault                                   : Disabled
 221:../Generated_Code/Cpu.c **** **            Bus Fault                                    : Disabled
 222:../Generated_Code/Cpu.c **** **            Usage Fault                                  : Disabled
 223:../Generated_Code/Cpu.c **** **            Supervisor Call                              : Disabled
 224:../Generated_Code/Cpu.c **** **            Pendable Service                             : Disabled
 225:../Generated_Code/Cpu.c **** **            MCG                                          : Disabled
 226:../Generated_Code/Cpu.c **** **          External Bus                                   : Disabled
 227:../Generated_Code/Cpu.c **** **          Low power mode settings                        : 
 228:../Generated_Code/Cpu.c **** **            Allowed power modes                          : 
 229:../Generated_Code/Cpu.c **** **              Very low power modes                       : Not allowed
 230:../Generated_Code/Cpu.c **** **              Low leakage stop mode                      : Not allowed
 231:../Generated_Code/Cpu.c **** **              Very low leakage stop mode                 : Not allowed
 232:../Generated_Code/Cpu.c **** **            LLWU settings                                : Disabled
 233:../Generated_Code/Cpu.c **** **            Operation mode settings                      : 
 234:../Generated_Code/Cpu.c **** **              WAIT operation mode                        : 
 235:../Generated_Code/Cpu.c **** **                Return to wait after ISR                 : no
 236:../Generated_Code/Cpu.c **** **              SLEEP operation mode                       : 
 237:../Generated_Code/Cpu.c **** **                Return to stop after ISR                 : no
 238:../Generated_Code/Cpu.c **** **              STOP operation mode                        : Disabled
 239:../Generated_Code/Cpu.c **** **          Clock configurations                           : 1
 240:../Generated_Code/Cpu.c **** **            Clock configuration 0                        : 
 241:../Generated_Code/Cpu.c **** **              __IRC_32kHz                                : 0.032768
 242:../Generated_Code/Cpu.c **** **              __IRC_4MHz                                 : 2
 243:../Generated_Code/Cpu.c **** **              __SYSTEM_OSC                               : 8
 244:../Generated_Code/Cpu.c **** **              __RTC_OSC                                  : 0
 245:../Generated_Code/Cpu.c **** **              Very low power mode                        : Disabled
 246:../Generated_Code/Cpu.c **** **              Clock source setting                       : configuration 0
 247:../Generated_Code/Cpu.c **** **                MCG mode                                 : PEE
 248:../Generated_Code/Cpu.c **** **                MCG output [MHz]                         : 120
 249:../Generated_Code/Cpu.c **** **                MCGIRCLK clock [MHz]                     : 0.032768
 250:../Generated_Code/Cpu.c **** **                OSCERCLK clock [MHz]                     : 8
 251:../Generated_Code/Cpu.c **** **                ERCLK32K. clock [kHz]                    : 0.001
 252:../Generated_Code/Cpu.c **** **                MCGFFCLK [kHz]                           : 31.25
 253:../Generated_Code/Cpu.c **** **              System clocks                              : 
 254:../Generated_Code/Cpu.c **** **                Core clock prescaler                     : Auto select
 255:../Generated_Code/Cpu.c **** **                Core clock                               : 120
 256:../Generated_Code/Cpu.c **** **                Bus clock prescaler                      : Auto select
 257:../Generated_Code/Cpu.c **** **                Bus clock                                : 60
 258:../Generated_Code/Cpu.c **** **                External clock prescaler                 : Auto select
 259:../Generated_Code/Cpu.c **** **                External bus clock                       : 60
 260:../Generated_Code/Cpu.c **** **                Flash clock prescaler                    : Auto select
 261:../Generated_Code/Cpu.c **** **                Flash clock                              : 24
 262:../Generated_Code/Cpu.c **** **                PLL/FLL clock selection                  : PLL clock
 263:../Generated_Code/Cpu.c **** **                  Clock frequency [MHz]                  : 120
 264:../Generated_Code/Cpu.c **** **     Contents    :
 265:../Generated_Code/Cpu.c **** **         EnableInt  - void Cpu_EnableInt(void);
 266:../Generated_Code/Cpu.c **** **         DisableInt - void Cpu_DisableInt(void);
 267:../Generated_Code/Cpu.c **** **
 268:../Generated_Code/Cpu.c **** **     Copyright : 1997 - 2015 Freescale Semiconductor, Inc. 
 269:../Generated_Code/Cpu.c **** **     All Rights Reserved.
 270:../Generated_Code/Cpu.c **** **     
 271:../Generated_Code/Cpu.c **** **     Redistribution and use in source and binary forms, with or without modification,
 272:../Generated_Code/Cpu.c **** **     are permitted provided that the following conditions are met:
 273:../Generated_Code/Cpu.c **** **     
 274:../Generated_Code/Cpu.c **** **     o Redistributions of source code must retain the above copyright notice, this list
 275:../Generated_Code/Cpu.c **** **       of conditions and the following disclaimer.
 276:../Generated_Code/Cpu.c **** **     
 277:../Generated_Code/Cpu.c **** **     o Redistributions in binary form must reproduce the above copyright notice, this
 278:../Generated_Code/Cpu.c **** **       list of conditions and the following disclaimer in the documentation and/or
 279:../Generated_Code/Cpu.c **** **       other materials provided with the distribution.
 280:../Generated_Code/Cpu.c **** **     
 281:../Generated_Code/Cpu.c **** **     o Neither the name of Freescale Semiconductor, Inc. nor the names of its
 282:../Generated_Code/Cpu.c **** **       contributors may be used to endorse or promote products derived from this
 283:../Generated_Code/Cpu.c **** **       software without specific prior written permission.
 284:../Generated_Code/Cpu.c **** **     
 285:../Generated_Code/Cpu.c **** **     THIS SOFTWARE IS PROVIDED BY THE COPYRIGHT HOLDERS AND CONTRIBUTORS "AS IS" AND
 286:../Generated_Code/Cpu.c **** **     ANY EXPRESS OR IMPLIED WARRANTIES, INCLUDING, BUT NOT LIMITED TO, THE IMPLIED
 287:../Generated_Code/Cpu.c **** **     WARRANTIES OF MERCHANTABILITY AND FITNESS FOR A PARTICULAR PURPOSE ARE
 288:../Generated_Code/Cpu.c **** **     DISCLAIMED. IN NO EVENT SHALL THE COPYRIGHT HOLDER OR CONTRIBUTORS BE LIABLE FOR
 289:../Generated_Code/Cpu.c **** **     ANY DIRECT, INDIRECT, INCIDENTAL, SPECIAL, EXEMPLARY, OR CONSEQUENTIAL DAMAGES
 290:../Generated_Code/Cpu.c **** **     (INCLUDING, BUT NOT LIMITED TO, PROCUREMENT OF SUBSTITUTE GOODS OR SERVICES;
 291:../Generated_Code/Cpu.c **** **     LOSS OF USE, DATA, OR PROFITS; OR BUSINESS INTERRUPTION) HOWEVER CAUSED AND ON
 292:../Generated_Code/Cpu.c **** **     ANY THEORY OF LIABILITY, WHETHER IN CONTRACT, STRICT LIABILITY, OR TORT
 293:../Generated_Code/Cpu.c **** **     (INCLUDING NEGLIGENCE OR OTHERWISE) ARISING IN ANY WAY OUT OF THE USE OF THIS
 294:../Generated_Code/Cpu.c **** **     SOFTWARE, EVEN IF ADVISED OF THE POSSIBILITY OF SUCH DAMAGE.
 295:../Generated_Code/Cpu.c **** **     
 296:../Generated_Code/Cpu.c **** **     http: www.freescale.com
 297:../Generated_Code/Cpu.c **** **     mail: support@freescale.com
 298:../Generated_Code/Cpu.c **** ** ###################################################################*/
 299:../Generated_Code/Cpu.c **** /*!
 300:../Generated_Code/Cpu.c **** ** @file Cpu.c
 301:../Generated_Code/Cpu.c **** ** @version 01.04
 302:../Generated_Code/Cpu.c **** ** @brief
 303:../Generated_Code/Cpu.c **** **
 304:../Generated_Code/Cpu.c **** */         
 305:../Generated_Code/Cpu.c **** /*!
 306:../Generated_Code/Cpu.c **** **  @addtogroup Cpu_module Cpu module documentation
 307:../Generated_Code/Cpu.c **** **  @{
 308:../Generated_Code/Cpu.c **** */         
 309:../Generated_Code/Cpu.c **** 
 310:../Generated_Code/Cpu.c **** /* MODULE Cpu. */
 311:../Generated_Code/Cpu.c **** 
 312:../Generated_Code/Cpu.c **** /* {Default RTOS Adapter} No RTOS includes */
 313:../Generated_Code/Cpu.c **** #include "CLS1.h"
 314:../Generated_Code/Cpu.c **** #include "MCUC1.h"
 315:../Generated_Code/Cpu.c **** #include "WAIT1.h"
 316:../Generated_Code/Cpu.c **** #include "CS1.h"
 317:../Generated_Code/Cpu.c **** #include "HF1.h"
 318:../Generated_Code/Cpu.c **** #include "XF1.h"
 319:../Generated_Code/Cpu.c **** #include "KIN1.h"
 320:../Generated_Code/Cpu.c **** #include "UTIL1.h"
 321:../Generated_Code/Cpu.c **** #include "LEDPin1.h"
 322:../Generated_Code/Cpu.c **** #include "BitIoLdd1.h"
 323:../Generated_Code/Cpu.c **** #include "LEDPin2.h"
 324:../Generated_Code/Cpu.c **** #include "BitIoLdd2.h"
 325:../Generated_Code/Cpu.c **** #include "SW1.h"
 326:../Generated_Code/Cpu.c **** #include "BitIoLdd3.h"
 327:../Generated_Code/Cpu.c **** #include "BUZ1.h"
 328:../Generated_Code/Cpu.c **** #include "BitIoLdd4.h"
 329:../Generated_Code/Cpu.c **** #include "RTT1.h"
 330:../Generated_Code/Cpu.c **** #include "LED_IR.h"
 331:../Generated_Code/Cpu.c **** #include "LEDpin3.h"
 332:../Generated_Code/Cpu.c **** #include "BitIoLdd5.h"
 333:../Generated_Code/Cpu.c **** #include "RefCnt.h"
 334:../Generated_Code/Cpu.c **** #include "IR1.h"
 335:../Generated_Code/Cpu.c **** #include "BitIoLdd6.h"
 336:../Generated_Code/Cpu.c **** #include "IR2.h"
 337:../Generated_Code/Cpu.c **** #include "BitIoLdd7.h"
 338:../Generated_Code/Cpu.c **** #include "IR3.h"
 339:../Generated_Code/Cpu.c **** #include "BitIoLdd8.h"
 340:../Generated_Code/Cpu.c **** #include "IR4.h"
 341:../Generated_Code/Cpu.c **** #include "BitIoLdd9.h"
 342:../Generated_Code/Cpu.c **** #include "IR5.h"
 343:../Generated_Code/Cpu.c **** #include "BitIoLdd10.h"
 344:../Generated_Code/Cpu.c **** #include "IR6.h"
 345:../Generated_Code/Cpu.c **** #include "BitIoLdd11.h"
 346:../Generated_Code/Cpu.c **** #include "Q4CLeft.h"
 347:../Generated_Code/Cpu.c **** #include "C12.h"
 348:../Generated_Code/Cpu.c **** #include "BitIoLdd16.h"
 349:../Generated_Code/Cpu.c **** #include "C23.h"
 350:../Generated_Code/Cpu.c **** #include "BitIoLdd17.h"
 351:../Generated_Code/Cpu.c **** #include "Q4CRight.h"
 352:../Generated_Code/Cpu.c **** #include "C13.h"
 353:../Generated_Code/Cpu.c **** #include "BitIoLdd18.h"
 354:../Generated_Code/Cpu.c **** #include "C25.h"
 355:../Generated_Code/Cpu.c **** #include "BitIoLdd19.h"
 356:../Generated_Code/Cpu.c **** #include "MOTTU.h"
 357:../Generated_Code/Cpu.c **** #include "DIRL.h"
 358:../Generated_Code/Cpu.c **** #include "BitIoLdd12.h"
 359:../Generated_Code/Cpu.c **** #include "PWMR.h"
 360:../Generated_Code/Cpu.c **** #include "PwmLdd2.h"
 361:../Generated_Code/Cpu.c **** #include "DIRR.h"
 362:../Generated_Code/Cpu.c **** #include "BitIoLdd13.h"
 363:../Generated_Code/Cpu.c **** #include "PWML.h"
 364:../Generated_Code/Cpu.c **** #include "PwmLdd3.h"
 365:../Generated_Code/Cpu.c **** #include "QuadInt.h"
 366:../Generated_Code/Cpu.c **** #include "TimerIntLdd2.h"
 367:../Generated_Code/Cpu.c **** #include "TU_QuadInt.h"
 368:../Generated_Code/Cpu.c **** #include "TMOUT1.h"
 369:../Generated_Code/Cpu.c **** #include "USB1.h"
 370:../Generated_Code/Cpu.c **** #include "CDC1.h"
 371:../Generated_Code/Cpu.c **** #include "Tx1.h"
 372:../Generated_Code/Cpu.c **** #include "Rx1.h"
 373:../Generated_Code/Cpu.c **** #include "IFsh1.h"
 374:../Generated_Code/Cpu.c **** #include "IntFlashLdd1.h"
 375:../Generated_Code/Cpu.c **** #include "USB0.h"
 376:../Generated_Code/Cpu.c **** #include "ADC_Bat.h"
 377:../Generated_Code/Cpu.c **** #include "TmDt1.h"
 378:../Generated_Code/Cpu.c **** #include "PE_Types.h"
 379:../Generated_Code/Cpu.c **** #include "PE_Error.h"
 380:../Generated_Code/Cpu.c **** #include "PE_Const.h"
 381:../Generated_Code/Cpu.c **** #include "IO_Map.h"
 382:../Generated_Code/Cpu.c **** #include "Events.h"
 383:../Generated_Code/Cpu.c **** #include "Cpu.h"
 384:../Generated_Code/Cpu.c **** 
 385:../Generated_Code/Cpu.c **** #ifdef __cplusplus
 386:../Generated_Code/Cpu.c **** extern "C" {
 387:../Generated_Code/Cpu.c **** #endif
 388:../Generated_Code/Cpu.c **** 
 389:../Generated_Code/Cpu.c **** /* Global variables */
 390:../Generated_Code/Cpu.c **** volatile uint8_t SR_reg;               /* Current value of the FAULTMASK register */
 391:../Generated_Code/Cpu.c **** volatile uint8_t SR_lock = 0x00U;      /* Lock */
 392:../Generated_Code/Cpu.c **** 
 393:../Generated_Code/Cpu.c **** /*
 394:../Generated_Code/Cpu.c **** ** ===================================================================
 395:../Generated_Code/Cpu.c **** **     Method      :  Cpu_SetBASEPRI (component MK22FN1M0LK12)
 396:../Generated_Code/Cpu.c **** **
 397:../Generated_Code/Cpu.c **** **     Description :
 398:../Generated_Code/Cpu.c **** **         This method sets the BASEPRI core register.
 399:../Generated_Code/Cpu.c **** **         This method is internal. It is used by Processor Expert only.
 400:../Generated_Code/Cpu.c **** ** ===================================================================
 401:../Generated_Code/Cpu.c **** */
 402:../Generated_Code/Cpu.c **** void Cpu_SetBASEPRI(uint32_t Level);
 403:../Generated_Code/Cpu.c **** 
 404:../Generated_Code/Cpu.c **** /*
 405:../Generated_Code/Cpu.c **** ** ===================================================================
 406:../Generated_Code/Cpu.c **** **     Method      :  Cpu_INT_NMIInterrupt (component MK22FN1M0LK12)
 407:../Generated_Code/Cpu.c **** **
 408:../Generated_Code/Cpu.c **** **     Description :
 409:../Generated_Code/Cpu.c **** **         This ISR services the Non Maskable Interrupt interrupt.
 410:../Generated_Code/Cpu.c **** **         This method is internal. It is used by Processor Expert only.
 411:../Generated_Code/Cpu.c **** ** ===================================================================
 412:../Generated_Code/Cpu.c **** */
 413:../Generated_Code/Cpu.c **** PE_ISR(Cpu_INT_NMIInterrupt)
 414:../Generated_Code/Cpu.c **** {
  53              		.loc 1 414 0
  54              		.cfi_startproc
  55              		@ Stack Align: May be called with mis-aligned SP.
  56              		@ args = 0, pretend = 0, frame = 0
  57              		@ frame_needed = 1, uses_anonymous_args = 0
  58 0000 6846     		mov	r0, sp
  59              		.cfi_register 13, 0
  60 0002 20F00701 		bic	r1, r0, #7
  61 0006 8D46     		mov	sp, r1
  62 0008 89B5     		push	{r0, r3, r7, lr}
  63              		.cfi_def_cfa_offset 16
  64              		.cfi_offset 13, -16
  65              		.cfi_offset 3, -12
  66              		.cfi_offset 7, -8
  67              		.cfi_offset 14, -4
  68 000a 00AF     		add	r7, sp, #0
  69              		.cfi_def_cfa_register 7
 415:../Generated_Code/Cpu.c ****   Cpu_OnNMIINT();
  70              		.loc 1 415 0
  71 000c FFF7FEFF 		bl	Cpu_OnNMIINT
 416:../Generated_Code/Cpu.c **** }
  72              		.loc 1 416 0
  73 0010 BD46     		mov	sp, r7
  74              		@ sp needed
  75 0012 BDE88940 		pop	{r0, r3, r7, lr}
  76 0016 8546     		mov	sp, r0
  77 0018 7047     		bx	lr
  78              		.cfi_endproc
  79              	.LFE0:
  81 001a 00BF     		.section	.text.Cpu_ivINT_Mem_Manage_Fault,"ax",%progbits
  82              		.align	2
  83              		.global	Cpu_ivINT_Mem_Manage_Fault
  84              		.thumb
  85              		.thumb_func
  87              	Cpu_ivINT_Mem_Manage_Fault:
  88              	.LFB1:
 417:../Generated_Code/Cpu.c **** 
 418:../Generated_Code/Cpu.c **** /*
 419:../Generated_Code/Cpu.c **** ** ===================================================================
 420:../Generated_Code/Cpu.c **** **     Method      :  Cpu_Cpu_ivINT_Mem_Manage_Fault (component MK22FN1M0LK12)
 421:../Generated_Code/Cpu.c **** **
 422:../Generated_Code/Cpu.c **** **     Description :
 423:../Generated_Code/Cpu.c **** **         This ISR services an unused interrupt/exception vector.
 424:../Generated_Code/Cpu.c **** **         This method is internal. It is used by Processor Expert only.
 425:../Generated_Code/Cpu.c **** ** ===================================================================
 426:../Generated_Code/Cpu.c **** */
 427:../Generated_Code/Cpu.c **** PE_ISR(Cpu_ivINT_Mem_Manage_Fault)
 428:../Generated_Code/Cpu.c **** {
  89              		.loc 1 428 0
  90              		.cfi_startproc
  91              		@ Stack Align: May be called with mis-aligned SP.
  92              		@ args = 0, pretend = 0, frame = 0
  93              		@ frame_needed = 1, uses_anonymous_args = 0
  94              		@ link register save eliminated.
  95 0000 6846     		mov	r0, sp
  96              		.cfi_register 13, 0
  97 0002 20F00701 		bic	r1, r0, #7
  98 0006 8D46     		mov	sp, r1
  99 0008 81B4     		push	{r0, r7}
 100              		.cfi_def_cfa_offset 8
 101              		.cfi_offset 13, -8
 102              		.cfi_offset 7, -4
 103 000a 00AF     		add	r7, sp, #0
 104              		.cfi_def_cfa_register 7
 429:../Generated_Code/Cpu.c ****   /* This code can be changed using the CPU component property "Build Options / Unhandled int code"
 430:../Generated_Code/Cpu.c ****   PE_DEBUGHALT();
 105              		.loc 1 430 0
 106              	@ 430 "../Generated_Code/Cpu.c" 1
 107 000c FFBE     		BKPT 255
 108              	@ 0 "" 2
 431:../Generated_Code/Cpu.c **** }
 109              		.loc 1 431 0
 110              		.thumb
 111 000e BD46     		mov	sp, r7
 112              		@ sp needed
 113 0010 81BC     		pop	{r0, r7}
 114 0012 8546     		mov	sp, r0
 115 0014 7047     		bx	lr
 116              		.cfi_endproc
 117              	.LFE1:
 119 0016 00BF     		.section	.text.Cpu_ivINT_Bus_Fault,"ax",%progbits
 120              		.align	2
 121              		.global	Cpu_ivINT_Bus_Fault
 122              		.thumb
 123              		.thumb_func
 125              	Cpu_ivINT_Bus_Fault:
 126              	.LFB2:
 432:../Generated_Code/Cpu.c **** 
 433:../Generated_Code/Cpu.c **** /*
 434:../Generated_Code/Cpu.c **** ** ===================================================================
 435:../Generated_Code/Cpu.c **** **     Method      :  Cpu_Cpu_ivINT_Bus_Fault (component MK22FN1M0LK12)
 436:../Generated_Code/Cpu.c **** **
 437:../Generated_Code/Cpu.c **** **     Description :
 438:../Generated_Code/Cpu.c **** **         This ISR services an unused interrupt/exception vector.
 439:../Generated_Code/Cpu.c **** **         This method is internal. It is used by Processor Expert only.
 440:../Generated_Code/Cpu.c **** ** ===================================================================
 441:../Generated_Code/Cpu.c **** */
 442:../Generated_Code/Cpu.c **** PE_ISR(Cpu_ivINT_Bus_Fault)
 443:../Generated_Code/Cpu.c **** {
 127              		.loc 1 443 0
 128              		.cfi_startproc
 129              		@ Stack Align: May be called with mis-aligned SP.
 130              		@ args = 0, pretend = 0, frame = 0
 131              		@ frame_needed = 1, uses_anonymous_args = 0
 132              		@ link register save eliminated.
 133 0000 6846     		mov	r0, sp
 134              		.cfi_register 13, 0
 135 0002 20F00701 		bic	r1, r0, #7
 136 0006 8D46     		mov	sp, r1
 137 0008 81B4     		push	{r0, r7}
 138              		.cfi_def_cfa_offset 8
 139              		.cfi_offset 13, -8
 140              		.cfi_offset 7, -4
 141 000a 00AF     		add	r7, sp, #0
 142              		.cfi_def_cfa_register 7
 444:../Generated_Code/Cpu.c ****   /* This code can be changed using the CPU component property "Build Options / Unhandled int code"
 445:../Generated_Code/Cpu.c ****   PE_DEBUGHALT();
 143              		.loc 1 445 0
 144              	@ 445 "../Generated_Code/Cpu.c" 1
 145 000c FFBE     		BKPT 255
 146              	@ 0 "" 2
 446:../Generated_Code/Cpu.c **** }
 147              		.loc 1 446 0
 148              		.thumb
 149 000e BD46     		mov	sp, r7
 150              		@ sp needed
 151 0010 81BC     		pop	{r0, r7}
 152 0012 8546     		mov	sp, r0
 153 0014 7047     		bx	lr
 154              		.cfi_endproc
 155              	.LFE2:
 157 0016 00BF     		.section	.text.Cpu_ivINT_Usage_Fault,"ax",%progbits
 158              		.align	2
 159              		.global	Cpu_ivINT_Usage_Fault
 160              		.thumb
 161              		.thumb_func
 163              	Cpu_ivINT_Usage_Fault:
 164              	.LFB3:
 447:../Generated_Code/Cpu.c **** 
 448:../Generated_Code/Cpu.c **** /*
 449:../Generated_Code/Cpu.c **** ** ===================================================================
 450:../Generated_Code/Cpu.c **** **     Method      :  Cpu_Cpu_ivINT_Usage_Fault (component MK22FN1M0LK12)
 451:../Generated_Code/Cpu.c **** **
 452:../Generated_Code/Cpu.c **** **     Description :
 453:../Generated_Code/Cpu.c **** **         This ISR services an unused interrupt/exception vector.
 454:../Generated_Code/Cpu.c **** **         This method is internal. It is used by Processor Expert only.
 455:../Generated_Code/Cpu.c **** ** ===================================================================
 456:../Generated_Code/Cpu.c **** */
 457:../Generated_Code/Cpu.c **** PE_ISR(Cpu_ivINT_Usage_Fault)
 458:../Generated_Code/Cpu.c **** {
 165              		.loc 1 458 0
 166              		.cfi_startproc
 167              		@ Stack Align: May be called with mis-aligned SP.
 168              		@ args = 0, pretend = 0, frame = 0
 169              		@ frame_needed = 1, uses_anonymous_args = 0
 170              		@ link register save eliminated.
 171 0000 6846     		mov	r0, sp
 172              		.cfi_register 13, 0
 173 0002 20F00701 		bic	r1, r0, #7
 174 0006 8D46     		mov	sp, r1
 175 0008 81B4     		push	{r0, r7}
 176              		.cfi_def_cfa_offset 8
 177              		.cfi_offset 13, -8
 178              		.cfi_offset 7, -4
 179 000a 00AF     		add	r7, sp, #0
 180              		.cfi_def_cfa_register 7
 459:../Generated_Code/Cpu.c ****   /* This code can be changed using the CPU component property "Build Options / Unhandled int code"
 460:../Generated_Code/Cpu.c ****   PE_DEBUGHALT();
 181              		.loc 1 460 0
 182              	@ 460 "../Generated_Code/Cpu.c" 1
 183 000c FFBE     		BKPT 255
 184              	@ 0 "" 2
 461:../Generated_Code/Cpu.c **** }
 185              		.loc 1 461 0
 186              		.thumb
 187 000e BD46     		mov	sp, r7
 188              		@ sp needed
 189 0010 81BC     		pop	{r0, r7}
 190 0012 8546     		mov	sp, r0
 191 0014 7047     		bx	lr
 192              		.cfi_endproc
 193              	.LFE3:
 195 0016 00BF     		.section	.text.Cpu_ivINT_Reserved7,"ax",%progbits
 196              		.align	2
 197              		.global	Cpu_ivINT_Reserved7
 198              		.thumb
 199              		.thumb_func
 201              	Cpu_ivINT_Reserved7:
 202              	.LFB4:
 462:../Generated_Code/Cpu.c **** 
 463:../Generated_Code/Cpu.c **** /*
 464:../Generated_Code/Cpu.c **** ** ===================================================================
 465:../Generated_Code/Cpu.c **** **     Method      :  Cpu_Cpu_ivINT_Reserved7 (component MK22FN1M0LK12)
 466:../Generated_Code/Cpu.c **** **
 467:../Generated_Code/Cpu.c **** **     Description :
 468:../Generated_Code/Cpu.c **** **         This ISR services an unused interrupt/exception vector.
 469:../Generated_Code/Cpu.c **** **         This method is internal. It is used by Processor Expert only.
 470:../Generated_Code/Cpu.c **** ** ===================================================================
 471:../Generated_Code/Cpu.c **** */
 472:../Generated_Code/Cpu.c **** PE_ISR(Cpu_ivINT_Reserved7)
 473:../Generated_Code/Cpu.c **** {
 203              		.loc 1 473 0
 204              		.cfi_startproc
 205              		@ Stack Align: May be called with mis-aligned SP.
 206              		@ args = 0, pretend = 0, frame = 0
 207              		@ frame_needed = 1, uses_anonymous_args = 0
 208              		@ link register save eliminated.
 209 0000 6846     		mov	r0, sp
 210              		.cfi_register 13, 0
 211 0002 20F00701 		bic	r1, r0, #7
 212 0006 8D46     		mov	sp, r1
 213 0008 81B4     		push	{r0, r7}
 214              		.cfi_def_cfa_offset 8
 215              		.cfi_offset 13, -8
 216              		.cfi_offset 7, -4
 217 000a 00AF     		add	r7, sp, #0
 218              		.cfi_def_cfa_register 7
 474:../Generated_Code/Cpu.c ****   /* This code can be changed using the CPU component property "Build Options / Unhandled int code"
 475:../Generated_Code/Cpu.c ****   PE_DEBUGHALT();
 219              		.loc 1 475 0
 220              	@ 475 "../Generated_Code/Cpu.c" 1
 221 000c FFBE     		BKPT 255
 222              	@ 0 "" 2
 476:../Generated_Code/Cpu.c **** }
 223              		.loc 1 476 0
 224              		.thumb
 225 000e BD46     		mov	sp, r7
 226              		@ sp needed
 227 0010 81BC     		pop	{r0, r7}
 228 0012 8546     		mov	sp, r0
 229 0014 7047     		bx	lr
 230              		.cfi_endproc
 231              	.LFE4:
 233 0016 00BF     		.section	.text.Cpu_ivINT_Reserved8,"ax",%progbits
 234              		.align	2
 235              		.global	Cpu_ivINT_Reserved8
 236              		.thumb
 237              		.thumb_func
 239              	Cpu_ivINT_Reserved8:
 240              	.LFB5:
 477:../Generated_Code/Cpu.c **** 
 478:../Generated_Code/Cpu.c **** /*
 479:../Generated_Code/Cpu.c **** ** ===================================================================
 480:../Generated_Code/Cpu.c **** **     Method      :  Cpu_Cpu_ivINT_Reserved8 (component MK22FN1M0LK12)
 481:../Generated_Code/Cpu.c **** **
 482:../Generated_Code/Cpu.c **** **     Description :
 483:../Generated_Code/Cpu.c **** **         This ISR services an unused interrupt/exception vector.
 484:../Generated_Code/Cpu.c **** **         This method is internal. It is used by Processor Expert only.
 485:../Generated_Code/Cpu.c **** ** ===================================================================
 486:../Generated_Code/Cpu.c **** */
 487:../Generated_Code/Cpu.c **** PE_ISR(Cpu_ivINT_Reserved8)
 488:../Generated_Code/Cpu.c **** {
 241              		.loc 1 488 0
 242              		.cfi_startproc
 243              		@ Stack Align: May be called with mis-aligned SP.
 244              		@ args = 0, pretend = 0, frame = 0
 245              		@ frame_needed = 1, uses_anonymous_args = 0
 246              		@ link register save eliminated.
 247 0000 6846     		mov	r0, sp
 248              		.cfi_register 13, 0
 249 0002 20F00701 		bic	r1, r0, #7
 250 0006 8D46     		mov	sp, r1
 251 0008 81B4     		push	{r0, r7}
 252              		.cfi_def_cfa_offset 8
 253              		.cfi_offset 13, -8
 254              		.cfi_offset 7, -4
 255 000a 00AF     		add	r7, sp, #0
 256              		.cfi_def_cfa_register 7
 489:../Generated_Code/Cpu.c ****   /* This code can be changed using the CPU component property "Build Options / Unhandled int code"
 490:../Generated_Code/Cpu.c ****   PE_DEBUGHALT();
 257              		.loc 1 490 0
 258              	@ 490 "../Generated_Code/Cpu.c" 1
 259 000c FFBE     		BKPT 255
 260              	@ 0 "" 2
 491:../Generated_Code/Cpu.c **** }
 261              		.loc 1 491 0
 262              		.thumb
 263 000e BD46     		mov	sp, r7
 264              		@ sp needed
 265 0010 81BC     		pop	{r0, r7}
 266 0012 8546     		mov	sp, r0
 267 0014 7047     		bx	lr
 268              		.cfi_endproc
 269              	.LFE5:
 271 0016 00BF     		.section	.text.Cpu_ivINT_Reserved9,"ax",%progbits
 272              		.align	2
 273              		.global	Cpu_ivINT_Reserved9
 274              		.thumb
 275              		.thumb_func
 277              	Cpu_ivINT_Reserved9:
 278              	.LFB6:
 492:../Generated_Code/Cpu.c **** 
 493:../Generated_Code/Cpu.c **** /*
 494:../Generated_Code/Cpu.c **** ** ===================================================================
 495:../Generated_Code/Cpu.c **** **     Method      :  Cpu_Cpu_ivINT_Reserved9 (component MK22FN1M0LK12)
 496:../Generated_Code/Cpu.c **** **
 497:../Generated_Code/Cpu.c **** **     Description :
 498:../Generated_Code/Cpu.c **** **         This ISR services an unused interrupt/exception vector.
 499:../Generated_Code/Cpu.c **** **         This method is internal. It is used by Processor Expert only.
 500:../Generated_Code/Cpu.c **** ** ===================================================================
 501:../Generated_Code/Cpu.c **** */
 502:../Generated_Code/Cpu.c **** PE_ISR(Cpu_ivINT_Reserved9)
 503:../Generated_Code/Cpu.c **** {
 279              		.loc 1 503 0
 280              		.cfi_startproc
 281              		@ Stack Align: May be called with mis-aligned SP.
 282              		@ args = 0, pretend = 0, frame = 0
 283              		@ frame_needed = 1, uses_anonymous_args = 0
 284              		@ link register save eliminated.
 285 0000 6846     		mov	r0, sp
 286              		.cfi_register 13, 0
 287 0002 20F00701 		bic	r1, r0, #7
 288 0006 8D46     		mov	sp, r1
 289 0008 81B4     		push	{r0, r7}
 290              		.cfi_def_cfa_offset 8
 291              		.cfi_offset 13, -8
 292              		.cfi_offset 7, -4
 293 000a 00AF     		add	r7, sp, #0
 294              		.cfi_def_cfa_register 7
 504:../Generated_Code/Cpu.c ****   /* This code can be changed using the CPU component property "Build Options / Unhandled int code"
 505:../Generated_Code/Cpu.c ****   PE_DEBUGHALT();
 295              		.loc 1 505 0
 296              	@ 505 "../Generated_Code/Cpu.c" 1
 297 000c FFBE     		BKPT 255
 298              	@ 0 "" 2
 506:../Generated_Code/Cpu.c **** }
 299              		.loc 1 506 0
 300              		.thumb
 301 000e BD46     		mov	sp, r7
 302              		@ sp needed
 303 0010 81BC     		pop	{r0, r7}
 304 0012 8546     		mov	sp, r0
 305 0014 7047     		bx	lr
 306              		.cfi_endproc
 307              	.LFE6:
 309 0016 00BF     		.section	.text.Cpu_ivINT_Reserved10,"ax",%progbits
 310              		.align	2
 311              		.global	Cpu_ivINT_Reserved10
 312              		.thumb
 313              		.thumb_func
 315              	Cpu_ivINT_Reserved10:
 316              	.LFB7:
 507:../Generated_Code/Cpu.c **** 
 508:../Generated_Code/Cpu.c **** /*
 509:../Generated_Code/Cpu.c **** ** ===================================================================
 510:../Generated_Code/Cpu.c **** **     Method      :  Cpu_Cpu_ivINT_Reserved10 (component MK22FN1M0LK12)
 511:../Generated_Code/Cpu.c **** **
 512:../Generated_Code/Cpu.c **** **     Description :
 513:../Generated_Code/Cpu.c **** **         This ISR services an unused interrupt/exception vector.
 514:../Generated_Code/Cpu.c **** **         This method is internal. It is used by Processor Expert only.
 515:../Generated_Code/Cpu.c **** ** ===================================================================
 516:../Generated_Code/Cpu.c **** */
 517:../Generated_Code/Cpu.c **** PE_ISR(Cpu_ivINT_Reserved10)
 518:../Generated_Code/Cpu.c **** {
 317              		.loc 1 518 0
 318              		.cfi_startproc
 319              		@ Stack Align: May be called with mis-aligned SP.
 320              		@ args = 0, pretend = 0, frame = 0
 321              		@ frame_needed = 1, uses_anonymous_args = 0
 322              		@ link register save eliminated.
 323 0000 6846     		mov	r0, sp
 324              		.cfi_register 13, 0
 325 0002 20F00701 		bic	r1, r0, #7
 326 0006 8D46     		mov	sp, r1
 327 0008 81B4     		push	{r0, r7}
 328              		.cfi_def_cfa_offset 8
 329              		.cfi_offset 13, -8
 330              		.cfi_offset 7, -4
 331 000a 00AF     		add	r7, sp, #0
 332              		.cfi_def_cfa_register 7
 519:../Generated_Code/Cpu.c ****   /* This code can be changed using the CPU component property "Build Options / Unhandled int code"
 520:../Generated_Code/Cpu.c ****   PE_DEBUGHALT();
 333              		.loc 1 520 0
 334              	@ 520 "../Generated_Code/Cpu.c" 1
 335 000c FFBE     		BKPT 255
 336              	@ 0 "" 2
 521:../Generated_Code/Cpu.c **** }
 337              		.loc 1 521 0
 338              		.thumb
 339 000e BD46     		mov	sp, r7
 340              		@ sp needed
 341 0010 81BC     		pop	{r0, r7}
 342 0012 8546     		mov	sp, r0
 343 0014 7047     		bx	lr
 344              		.cfi_endproc
 345              	.LFE7:
 347 0016 00BF     		.section	.text.Cpu_ivINT_SVCall,"ax",%progbits
 348              		.align	2
 349              		.global	Cpu_ivINT_SVCall
 350              		.thumb
 351              		.thumb_func
 353              	Cpu_ivINT_SVCall:
 354              	.LFB8:
 522:../Generated_Code/Cpu.c **** 
 523:../Generated_Code/Cpu.c **** /*
 524:../Generated_Code/Cpu.c **** ** ===================================================================
 525:../Generated_Code/Cpu.c **** **     Method      :  Cpu_Cpu_ivINT_SVCall (component MK22FN1M0LK12)
 526:../Generated_Code/Cpu.c **** **
 527:../Generated_Code/Cpu.c **** **     Description :
 528:../Generated_Code/Cpu.c **** **         This ISR services an unused interrupt/exception vector.
 529:../Generated_Code/Cpu.c **** **         This method is internal. It is used by Processor Expert only.
 530:../Generated_Code/Cpu.c **** ** ===================================================================
 531:../Generated_Code/Cpu.c **** */
 532:../Generated_Code/Cpu.c **** PE_ISR(Cpu_ivINT_SVCall)
 533:../Generated_Code/Cpu.c **** {
 355              		.loc 1 533 0
 356              		.cfi_startproc
 357              		@ Stack Align: May be called with mis-aligned SP.
 358              		@ args = 0, pretend = 0, frame = 0
 359              		@ frame_needed = 1, uses_anonymous_args = 0
 360              		@ link register save eliminated.
 361 0000 6846     		mov	r0, sp
 362              		.cfi_register 13, 0
 363 0002 20F00701 		bic	r1, r0, #7
 364 0006 8D46     		mov	sp, r1
 365 0008 81B4     		push	{r0, r7}
 366              		.cfi_def_cfa_offset 8
 367              		.cfi_offset 13, -8
 368              		.cfi_offset 7, -4
 369 000a 00AF     		add	r7, sp, #0
 370              		.cfi_def_cfa_register 7
 534:../Generated_Code/Cpu.c ****   /* This code can be changed using the CPU component property "Build Options / Unhandled int code"
 535:../Generated_Code/Cpu.c ****   PE_DEBUGHALT();
 371              		.loc 1 535 0
 372              	@ 535 "../Generated_Code/Cpu.c" 1
 373 000c FFBE     		BKPT 255
 374              	@ 0 "" 2
 536:../Generated_Code/Cpu.c **** }
 375              		.loc 1 536 0
 376              		.thumb
 377 000e BD46     		mov	sp, r7
 378              		@ sp needed
 379 0010 81BC     		pop	{r0, r7}
 380 0012 8546     		mov	sp, r0
 381 0014 7047     		bx	lr
 382              		.cfi_endproc
 383              	.LFE8:
 385 0016 00BF     		.section	.text.Cpu_ivINT_DebugMonitor,"ax",%progbits
 386              		.align	2
 387              		.global	Cpu_ivINT_DebugMonitor
 388              		.thumb
 389              		.thumb_func
 391              	Cpu_ivINT_DebugMonitor:
 392              	.LFB9:
 537:../Generated_Code/Cpu.c **** 
 538:../Generated_Code/Cpu.c **** /*
 539:../Generated_Code/Cpu.c **** ** ===================================================================
 540:../Generated_Code/Cpu.c **** **     Method      :  Cpu_Cpu_ivINT_DebugMonitor (component MK22FN1M0LK12)
 541:../Generated_Code/Cpu.c **** **
 542:../Generated_Code/Cpu.c **** **     Description :
 543:../Generated_Code/Cpu.c **** **         This ISR services an unused interrupt/exception vector.
 544:../Generated_Code/Cpu.c **** **         This method is internal. It is used by Processor Expert only.
 545:../Generated_Code/Cpu.c **** ** ===================================================================
 546:../Generated_Code/Cpu.c **** */
 547:../Generated_Code/Cpu.c **** PE_ISR(Cpu_ivINT_DebugMonitor)
 548:../Generated_Code/Cpu.c **** {
 393              		.loc 1 548 0
 394              		.cfi_startproc
 395              		@ Stack Align: May be called with mis-aligned SP.
 396              		@ args = 0, pretend = 0, frame = 0
 397              		@ frame_needed = 1, uses_anonymous_args = 0
 398              		@ link register save eliminated.
 399 0000 6846     		mov	r0, sp
 400              		.cfi_register 13, 0
 401 0002 20F00701 		bic	r1, r0, #7
 402 0006 8D46     		mov	sp, r1
 403 0008 81B4     		push	{r0, r7}
 404              		.cfi_def_cfa_offset 8
 405              		.cfi_offset 13, -8
 406              		.cfi_offset 7, -4
 407 000a 00AF     		add	r7, sp, #0
 408              		.cfi_def_cfa_register 7
 549:../Generated_Code/Cpu.c ****   /* This code can be changed using the CPU component property "Build Options / Unhandled int code"
 550:../Generated_Code/Cpu.c ****   PE_DEBUGHALT();
 409              		.loc 1 550 0
 410              	@ 550 "../Generated_Code/Cpu.c" 1
 411 000c FFBE     		BKPT 255
 412              	@ 0 "" 2
 551:../Generated_Code/Cpu.c **** }
 413              		.loc 1 551 0
 414              		.thumb
 415 000e BD46     		mov	sp, r7
 416              		@ sp needed
 417 0010 81BC     		pop	{r0, r7}
 418 0012 8546     		mov	sp, r0
 419 0014 7047     		bx	lr
 420              		.cfi_endproc
 421              	.LFE9:
 423 0016 00BF     		.section	.text.Cpu_ivINT_Reserved13,"ax",%progbits
 424              		.align	2
 425              		.global	Cpu_ivINT_Reserved13
 426              		.thumb
 427              		.thumb_func
 429              	Cpu_ivINT_Reserved13:
 430              	.LFB10:
 552:../Generated_Code/Cpu.c **** 
 553:../Generated_Code/Cpu.c **** /*
 554:../Generated_Code/Cpu.c **** ** ===================================================================
 555:../Generated_Code/Cpu.c **** **     Method      :  Cpu_Cpu_ivINT_Reserved13 (component MK22FN1M0LK12)
 556:../Generated_Code/Cpu.c **** **
 557:../Generated_Code/Cpu.c **** **     Description :
 558:../Generated_Code/Cpu.c **** **         This ISR services an unused interrupt/exception vector.
 559:../Generated_Code/Cpu.c **** **         This method is internal. It is used by Processor Expert only.
 560:../Generated_Code/Cpu.c **** ** ===================================================================
 561:../Generated_Code/Cpu.c **** */
 562:../Generated_Code/Cpu.c **** PE_ISR(Cpu_ivINT_Reserved13)
 563:../Generated_Code/Cpu.c **** {
 431              		.loc 1 563 0
 432              		.cfi_startproc
 433              		@ Stack Align: May be called with mis-aligned SP.
 434              		@ args = 0, pretend = 0, frame = 0
 435              		@ frame_needed = 1, uses_anonymous_args = 0
 436              		@ link register save eliminated.
 437 0000 6846     		mov	r0, sp
 438              		.cfi_register 13, 0
 439 0002 20F00701 		bic	r1, r0, #7
 440 0006 8D46     		mov	sp, r1
 441 0008 81B4     		push	{r0, r7}
 442              		.cfi_def_cfa_offset 8
 443              		.cfi_offset 13, -8
 444              		.cfi_offset 7, -4
 445 000a 00AF     		add	r7, sp, #0
 446              		.cfi_def_cfa_register 7
 564:../Generated_Code/Cpu.c ****   /* This code can be changed using the CPU component property "Build Options / Unhandled int code"
 565:../Generated_Code/Cpu.c ****   PE_DEBUGHALT();
 447              		.loc 1 565 0
 448              	@ 565 "../Generated_Code/Cpu.c" 1
 449 000c FFBE     		BKPT 255
 450              	@ 0 "" 2
 566:../Generated_Code/Cpu.c **** }
 451              		.loc 1 566 0
 452              		.thumb
 453 000e BD46     		mov	sp, r7
 454              		@ sp needed
 455 0010 81BC     		pop	{r0, r7}
 456 0012 8546     		mov	sp, r0
 457 0014 7047     		bx	lr
 458              		.cfi_endproc
 459              	.LFE10:
 461 0016 00BF     		.section	.text.Cpu_ivINT_PendableSrvReq,"ax",%progbits
 462              		.align	2
 463              		.global	Cpu_ivINT_PendableSrvReq
 464              		.thumb
 465              		.thumb_func
 467              	Cpu_ivINT_PendableSrvReq:
 468              	.LFB11:
 567:../Generated_Code/Cpu.c **** 
 568:../Generated_Code/Cpu.c **** /*
 569:../Generated_Code/Cpu.c **** ** ===================================================================
 570:../Generated_Code/Cpu.c **** **     Method      :  Cpu_Cpu_ivINT_PendableSrvReq (component MK22FN1M0LK12)
 571:../Generated_Code/Cpu.c **** **
 572:../Generated_Code/Cpu.c **** **     Description :
 573:../Generated_Code/Cpu.c **** **         This ISR services an unused interrupt/exception vector.
 574:../Generated_Code/Cpu.c **** **         This method is internal. It is used by Processor Expert only.
 575:../Generated_Code/Cpu.c **** ** ===================================================================
 576:../Generated_Code/Cpu.c **** */
 577:../Generated_Code/Cpu.c **** PE_ISR(Cpu_ivINT_PendableSrvReq)
 578:../Generated_Code/Cpu.c **** {
 469              		.loc 1 578 0
 470              		.cfi_startproc
 471              		@ Stack Align: May be called with mis-aligned SP.
 472              		@ args = 0, pretend = 0, frame = 0
 473              		@ frame_needed = 1, uses_anonymous_args = 0
 474              		@ link register save eliminated.
 475 0000 6846     		mov	r0, sp
 476              		.cfi_register 13, 0
 477 0002 20F00701 		bic	r1, r0, #7
 478 0006 8D46     		mov	sp, r1
 479 0008 81B4     		push	{r0, r7}
 480              		.cfi_def_cfa_offset 8
 481              		.cfi_offset 13, -8
 482              		.cfi_offset 7, -4
 483 000a 00AF     		add	r7, sp, #0
 484              		.cfi_def_cfa_register 7
 579:../Generated_Code/Cpu.c ****   /* This code can be changed using the CPU component property "Build Options / Unhandled int code"
 580:../Generated_Code/Cpu.c ****   PE_DEBUGHALT();
 485              		.loc 1 580 0
 486              	@ 580 "../Generated_Code/Cpu.c" 1
 487 000c FFBE     		BKPT 255
 488              	@ 0 "" 2
 581:../Generated_Code/Cpu.c **** }
 489              		.loc 1 581 0
 490              		.thumb
 491 000e BD46     		mov	sp, r7
 492              		@ sp needed
 493 0010 81BC     		pop	{r0, r7}
 494 0012 8546     		mov	sp, r0
 495 0014 7047     		bx	lr
 496              		.cfi_endproc
 497              	.LFE11:
 499 0016 00BF     		.section	.text.Cpu_ivINT_SysTick,"ax",%progbits
 500              		.align	2
 501              		.global	Cpu_ivINT_SysTick
 502              		.thumb
 503              		.thumb_func
 505              	Cpu_ivINT_SysTick:
 506              	.LFB12:
 582:../Generated_Code/Cpu.c **** 
 583:../Generated_Code/Cpu.c **** /*
 584:../Generated_Code/Cpu.c **** ** ===================================================================
 585:../Generated_Code/Cpu.c **** **     Method      :  Cpu_Cpu_ivINT_SysTick (component MK22FN1M0LK12)
 586:../Generated_Code/Cpu.c **** **
 587:../Generated_Code/Cpu.c **** **     Description :
 588:../Generated_Code/Cpu.c **** **         This ISR services an unused interrupt/exception vector.
 589:../Generated_Code/Cpu.c **** **         This method is internal. It is used by Processor Expert only.
 590:../Generated_Code/Cpu.c **** ** ===================================================================
 591:../Generated_Code/Cpu.c **** */
 592:../Generated_Code/Cpu.c **** PE_ISR(Cpu_ivINT_SysTick)
 593:../Generated_Code/Cpu.c **** {
 507              		.loc 1 593 0
 508              		.cfi_startproc
 509              		@ Stack Align: May be called with mis-aligned SP.
 510              		@ args = 0, pretend = 0, frame = 0
 511              		@ frame_needed = 1, uses_anonymous_args = 0
 512              		@ link register save eliminated.
 513 0000 6846     		mov	r0, sp
 514              		.cfi_register 13, 0
 515 0002 20F00701 		bic	r1, r0, #7
 516 0006 8D46     		mov	sp, r1
 517 0008 81B4     		push	{r0, r7}
 518              		.cfi_def_cfa_offset 8
 519              		.cfi_offset 13, -8
 520              		.cfi_offset 7, -4
 521 000a 00AF     		add	r7, sp, #0
 522              		.cfi_def_cfa_register 7
 594:../Generated_Code/Cpu.c ****   /* This code can be changed using the CPU component property "Build Options / Unhandled int code"
 595:../Generated_Code/Cpu.c ****   PE_DEBUGHALT();
 523              		.loc 1 595 0
 524              	@ 595 "../Generated_Code/Cpu.c" 1
 525 000c FFBE     		BKPT 255
 526              	@ 0 "" 2
 596:../Generated_Code/Cpu.c **** }
 527              		.loc 1 596 0
 528              		.thumb
 529 000e BD46     		mov	sp, r7
 530              		@ sp needed
 531 0010 81BC     		pop	{r0, r7}
 532 0012 8546     		mov	sp, r0
 533 0014 7047     		bx	lr
 534              		.cfi_endproc
 535              	.LFE12:
 537 0016 00BF     		.section	.text.Cpu_ivINT_DMA0,"ax",%progbits
 538              		.align	2
 539              		.global	Cpu_ivINT_DMA0
 540              		.thumb
 541              		.thumb_func
 543              	Cpu_ivINT_DMA0:
 544              	.LFB13:
 597:../Generated_Code/Cpu.c **** 
 598:../Generated_Code/Cpu.c **** /*
 599:../Generated_Code/Cpu.c **** ** ===================================================================
 600:../Generated_Code/Cpu.c **** **     Method      :  Cpu_Cpu_ivINT_DMA0 (component MK22FN1M0LK12)
 601:../Generated_Code/Cpu.c **** **
 602:../Generated_Code/Cpu.c **** **     Description :
 603:../Generated_Code/Cpu.c **** **         This ISR services an unused interrupt/exception vector.
 604:../Generated_Code/Cpu.c **** **         This method is internal. It is used by Processor Expert only.
 605:../Generated_Code/Cpu.c **** ** ===================================================================
 606:../Generated_Code/Cpu.c **** */
 607:../Generated_Code/Cpu.c **** PE_ISR(Cpu_ivINT_DMA0)
 608:../Generated_Code/Cpu.c **** {
 545              		.loc 1 608 0
 546              		.cfi_startproc
 547              		@ Stack Align: May be called with mis-aligned SP.
 548              		@ args = 0, pretend = 0, frame = 0
 549              		@ frame_needed = 1, uses_anonymous_args = 0
 550              		@ link register save eliminated.
 551 0000 6846     		mov	r0, sp
 552              		.cfi_register 13, 0
 553 0002 20F00701 		bic	r1, r0, #7
 554 0006 8D46     		mov	sp, r1
 555 0008 81B4     		push	{r0, r7}
 556              		.cfi_def_cfa_offset 8
 557              		.cfi_offset 13, -8
 558              		.cfi_offset 7, -4
 559 000a 00AF     		add	r7, sp, #0
 560              		.cfi_def_cfa_register 7
 609:../Generated_Code/Cpu.c ****   /* This code can be changed using the CPU component property "Build Options / Unhandled int code"
 610:../Generated_Code/Cpu.c ****   PE_DEBUGHALT();
 561              		.loc 1 610 0
 562              	@ 610 "../Generated_Code/Cpu.c" 1
 563 000c FFBE     		BKPT 255
 564              	@ 0 "" 2
 611:../Generated_Code/Cpu.c **** }
 565              		.loc 1 611 0
 566              		.thumb
 567 000e BD46     		mov	sp, r7
 568              		@ sp needed
 569 0010 81BC     		pop	{r0, r7}
 570 0012 8546     		mov	sp, r0
 571 0014 7047     		bx	lr
 572              		.cfi_endproc
 573              	.LFE13:
 575 0016 00BF     		.section	.text.Cpu_ivINT_DMA1,"ax",%progbits
 576              		.align	2
 577              		.global	Cpu_ivINT_DMA1
 578              		.thumb
 579              		.thumb_func
 581              	Cpu_ivINT_DMA1:
 582              	.LFB14:
 612:../Generated_Code/Cpu.c **** 
 613:../Generated_Code/Cpu.c **** /*
 614:../Generated_Code/Cpu.c **** ** ===================================================================
 615:../Generated_Code/Cpu.c **** **     Method      :  Cpu_Cpu_ivINT_DMA1 (component MK22FN1M0LK12)
 616:../Generated_Code/Cpu.c **** **
 617:../Generated_Code/Cpu.c **** **     Description :
 618:../Generated_Code/Cpu.c **** **         This ISR services an unused interrupt/exception vector.
 619:../Generated_Code/Cpu.c **** **         This method is internal. It is used by Processor Expert only.
 620:../Generated_Code/Cpu.c **** ** ===================================================================
 621:../Generated_Code/Cpu.c **** */
 622:../Generated_Code/Cpu.c **** PE_ISR(Cpu_ivINT_DMA1)
 623:../Generated_Code/Cpu.c **** {
 583              		.loc 1 623 0
 584              		.cfi_startproc
 585              		@ Stack Align: May be called with mis-aligned SP.
 586              		@ args = 0, pretend = 0, frame = 0
 587              		@ frame_needed = 1, uses_anonymous_args = 0
 588              		@ link register save eliminated.
 589 0000 6846     		mov	r0, sp
 590              		.cfi_register 13, 0
 591 0002 20F00701 		bic	r1, r0, #7
 592 0006 8D46     		mov	sp, r1
 593 0008 81B4     		push	{r0, r7}
 594              		.cfi_def_cfa_offset 8
 595              		.cfi_offset 13, -8
 596              		.cfi_offset 7, -4
 597 000a 00AF     		add	r7, sp, #0
 598              		.cfi_def_cfa_register 7
 624:../Generated_Code/Cpu.c ****   /* This code can be changed using the CPU component property "Build Options / Unhandled int code"
 625:../Generated_Code/Cpu.c ****   PE_DEBUGHALT();
 599              		.loc 1 625 0
 600              	@ 625 "../Generated_Code/Cpu.c" 1
 601 000c FFBE     		BKPT 255
 602              	@ 0 "" 2
 626:../Generated_Code/Cpu.c **** }
 603              		.loc 1 626 0
 604              		.thumb
 605 000e BD46     		mov	sp, r7
 606              		@ sp needed
 607 0010 81BC     		pop	{r0, r7}
 608 0012 8546     		mov	sp, r0
 609 0014 7047     		bx	lr
 610              		.cfi_endproc
 611              	.LFE14:
 613 0016 00BF     		.section	.text.Cpu_ivINT_DMA2,"ax",%progbits
 614              		.align	2
 615              		.global	Cpu_ivINT_DMA2
 616              		.thumb
 617              		.thumb_func
 619              	Cpu_ivINT_DMA2:
 620              	.LFB15:
 627:../Generated_Code/Cpu.c **** 
 628:../Generated_Code/Cpu.c **** /*
 629:../Generated_Code/Cpu.c **** ** ===================================================================
 630:../Generated_Code/Cpu.c **** **     Method      :  Cpu_Cpu_ivINT_DMA2 (component MK22FN1M0LK12)
 631:../Generated_Code/Cpu.c **** **
 632:../Generated_Code/Cpu.c **** **     Description :
 633:../Generated_Code/Cpu.c **** **         This ISR services an unused interrupt/exception vector.
 634:../Generated_Code/Cpu.c **** **         This method is internal. It is used by Processor Expert only.
 635:../Generated_Code/Cpu.c **** ** ===================================================================
 636:../Generated_Code/Cpu.c **** */
 637:../Generated_Code/Cpu.c **** PE_ISR(Cpu_ivINT_DMA2)
 638:../Generated_Code/Cpu.c **** {
 621              		.loc 1 638 0
 622              		.cfi_startproc
 623              		@ Stack Align: May be called with mis-aligned SP.
 624              		@ args = 0, pretend = 0, frame = 0
 625              		@ frame_needed = 1, uses_anonymous_args = 0
 626              		@ link register save eliminated.
 627 0000 6846     		mov	r0, sp
 628              		.cfi_register 13, 0
 629 0002 20F00701 		bic	r1, r0, #7
 630 0006 8D46     		mov	sp, r1
 631 0008 81B4     		push	{r0, r7}
 632              		.cfi_def_cfa_offset 8
 633              		.cfi_offset 13, -8
 634              		.cfi_offset 7, -4
 635 000a 00AF     		add	r7, sp, #0
 636              		.cfi_def_cfa_register 7
 639:../Generated_Code/Cpu.c ****   /* This code can be changed using the CPU component property "Build Options / Unhandled int code"
 640:../Generated_Code/Cpu.c ****   PE_DEBUGHALT();
 637              		.loc 1 640 0
 638              	@ 640 "../Generated_Code/Cpu.c" 1
 639 000c FFBE     		BKPT 255
 640              	@ 0 "" 2
 641:../Generated_Code/Cpu.c **** }
 641              		.loc 1 641 0
 642              		.thumb
 643 000e BD46     		mov	sp, r7
 644              		@ sp needed
 645 0010 81BC     		pop	{r0, r7}
 646 0012 8546     		mov	sp, r0
 647 0014 7047     		bx	lr
 648              		.cfi_endproc
 649              	.LFE15:
 651 0016 00BF     		.section	.text.Cpu_ivINT_DMA3,"ax",%progbits
 652              		.align	2
 653              		.global	Cpu_ivINT_DMA3
 654              		.thumb
 655              		.thumb_func
 657              	Cpu_ivINT_DMA3:
 658              	.LFB16:
 642:../Generated_Code/Cpu.c **** 
 643:../Generated_Code/Cpu.c **** /*
 644:../Generated_Code/Cpu.c **** ** ===================================================================
 645:../Generated_Code/Cpu.c **** **     Method      :  Cpu_Cpu_ivINT_DMA3 (component MK22FN1M0LK12)
 646:../Generated_Code/Cpu.c **** **
 647:../Generated_Code/Cpu.c **** **     Description :
 648:../Generated_Code/Cpu.c **** **         This ISR services an unused interrupt/exception vector.
 649:../Generated_Code/Cpu.c **** **         This method is internal. It is used by Processor Expert only.
 650:../Generated_Code/Cpu.c **** ** ===================================================================
 651:../Generated_Code/Cpu.c **** */
 652:../Generated_Code/Cpu.c **** PE_ISR(Cpu_ivINT_DMA3)
 653:../Generated_Code/Cpu.c **** {
 659              		.loc 1 653 0
 660              		.cfi_startproc
 661              		@ Stack Align: May be called with mis-aligned SP.
 662              		@ args = 0, pretend = 0, frame = 0
 663              		@ frame_needed = 1, uses_anonymous_args = 0
 664              		@ link register save eliminated.
 665 0000 6846     		mov	r0, sp
 666              		.cfi_register 13, 0
 667 0002 20F00701 		bic	r1, r0, #7
 668 0006 8D46     		mov	sp, r1
 669 0008 81B4     		push	{r0, r7}
 670              		.cfi_def_cfa_offset 8
 671              		.cfi_offset 13, -8
 672              		.cfi_offset 7, -4
 673 000a 00AF     		add	r7, sp, #0
 674              		.cfi_def_cfa_register 7
 654:../Generated_Code/Cpu.c ****   /* This code can be changed using the CPU component property "Build Options / Unhandled int code"
 655:../Generated_Code/Cpu.c ****   PE_DEBUGHALT();
 675              		.loc 1 655 0
 676              	@ 655 "../Generated_Code/Cpu.c" 1
 677 000c FFBE     		BKPT 255
 678              	@ 0 "" 2
 656:../Generated_Code/Cpu.c **** }
 679              		.loc 1 656 0
 680              		.thumb
 681 000e BD46     		mov	sp, r7
 682              		@ sp needed
 683 0010 81BC     		pop	{r0, r7}
 684 0012 8546     		mov	sp, r0
 685 0014 7047     		bx	lr
 686              		.cfi_endproc
 687              	.LFE16:
 689 0016 00BF     		.section	.text.Cpu_ivINT_DMA4,"ax",%progbits
 690              		.align	2
 691              		.global	Cpu_ivINT_DMA4
 692              		.thumb
 693              		.thumb_func
 695              	Cpu_ivINT_DMA4:
 696              	.LFB17:
 657:../Generated_Code/Cpu.c **** 
 658:../Generated_Code/Cpu.c **** /*
 659:../Generated_Code/Cpu.c **** ** ===================================================================
 660:../Generated_Code/Cpu.c **** **     Method      :  Cpu_Cpu_ivINT_DMA4 (component MK22FN1M0LK12)
 661:../Generated_Code/Cpu.c **** **
 662:../Generated_Code/Cpu.c **** **     Description :
 663:../Generated_Code/Cpu.c **** **         This ISR services an unused interrupt/exception vector.
 664:../Generated_Code/Cpu.c **** **         This method is internal. It is used by Processor Expert only.
 665:../Generated_Code/Cpu.c **** ** ===================================================================
 666:../Generated_Code/Cpu.c **** */
 667:../Generated_Code/Cpu.c **** PE_ISR(Cpu_ivINT_DMA4)
 668:../Generated_Code/Cpu.c **** {
 697              		.loc 1 668 0
 698              		.cfi_startproc
 699              		@ Stack Align: May be called with mis-aligned SP.
 700              		@ args = 0, pretend = 0, frame = 0
 701              		@ frame_needed = 1, uses_anonymous_args = 0
 702              		@ link register save eliminated.
 703 0000 6846     		mov	r0, sp
 704              		.cfi_register 13, 0
 705 0002 20F00701 		bic	r1, r0, #7
 706 0006 8D46     		mov	sp, r1
 707 0008 81B4     		push	{r0, r7}
 708              		.cfi_def_cfa_offset 8
 709              		.cfi_offset 13, -8
 710              		.cfi_offset 7, -4
 711 000a 00AF     		add	r7, sp, #0
 712              		.cfi_def_cfa_register 7
 669:../Generated_Code/Cpu.c ****   /* This code can be changed using the CPU component property "Build Options / Unhandled int code"
 670:../Generated_Code/Cpu.c ****   PE_DEBUGHALT();
 713              		.loc 1 670 0
 714              	@ 670 "../Generated_Code/Cpu.c" 1
 715 000c FFBE     		BKPT 255
 716              	@ 0 "" 2
 671:../Generated_Code/Cpu.c **** }
 717              		.loc 1 671 0
 718              		.thumb
 719 000e BD46     		mov	sp, r7
 720              		@ sp needed
 721 0010 81BC     		pop	{r0, r7}
 722 0012 8546     		mov	sp, r0
 723 0014 7047     		bx	lr
 724              		.cfi_endproc
 725              	.LFE17:
 727 0016 00BF     		.section	.text.Cpu_ivINT_DMA5,"ax",%progbits
 728              		.align	2
 729              		.global	Cpu_ivINT_DMA5
 730              		.thumb
 731              		.thumb_func
 733              	Cpu_ivINT_DMA5:
 734              	.LFB18:
 672:../Generated_Code/Cpu.c **** 
 673:../Generated_Code/Cpu.c **** /*
 674:../Generated_Code/Cpu.c **** ** ===================================================================
 675:../Generated_Code/Cpu.c **** **     Method      :  Cpu_Cpu_ivINT_DMA5 (component MK22FN1M0LK12)
 676:../Generated_Code/Cpu.c **** **
 677:../Generated_Code/Cpu.c **** **     Description :
 678:../Generated_Code/Cpu.c **** **         This ISR services an unused interrupt/exception vector.
 679:../Generated_Code/Cpu.c **** **         This method is internal. It is used by Processor Expert only.
 680:../Generated_Code/Cpu.c **** ** ===================================================================
 681:../Generated_Code/Cpu.c **** */
 682:../Generated_Code/Cpu.c **** PE_ISR(Cpu_ivINT_DMA5)
 683:../Generated_Code/Cpu.c **** {
 735              		.loc 1 683 0
 736              		.cfi_startproc
 737              		@ Stack Align: May be called with mis-aligned SP.
 738              		@ args = 0, pretend = 0, frame = 0
 739              		@ frame_needed = 1, uses_anonymous_args = 0
 740              		@ link register save eliminated.
 741 0000 6846     		mov	r0, sp
 742              		.cfi_register 13, 0
 743 0002 20F00701 		bic	r1, r0, #7
 744 0006 8D46     		mov	sp, r1
 745 0008 81B4     		push	{r0, r7}
 746              		.cfi_def_cfa_offset 8
 747              		.cfi_offset 13, -8
 748              		.cfi_offset 7, -4
 749 000a 00AF     		add	r7, sp, #0
 750              		.cfi_def_cfa_register 7
 684:../Generated_Code/Cpu.c ****   /* This code can be changed using the CPU component property "Build Options / Unhandled int code"
 685:../Generated_Code/Cpu.c ****   PE_DEBUGHALT();
 751              		.loc 1 685 0
 752              	@ 685 "../Generated_Code/Cpu.c" 1
 753 000c FFBE     		BKPT 255
 754              	@ 0 "" 2
 686:../Generated_Code/Cpu.c **** }
 755              		.loc 1 686 0
 756              		.thumb
 757 000e BD46     		mov	sp, r7
 758              		@ sp needed
 759 0010 81BC     		pop	{r0, r7}
 760 0012 8546     		mov	sp, r0
 761 0014 7047     		bx	lr
 762              		.cfi_endproc
 763              	.LFE18:
 765 0016 00BF     		.section	.text.Cpu_ivINT_DMA6,"ax",%progbits
 766              		.align	2
 767              		.global	Cpu_ivINT_DMA6
 768              		.thumb
 769              		.thumb_func
 771              	Cpu_ivINT_DMA6:
 772              	.LFB19:
 687:../Generated_Code/Cpu.c **** 
 688:../Generated_Code/Cpu.c **** /*
 689:../Generated_Code/Cpu.c **** ** ===================================================================
 690:../Generated_Code/Cpu.c **** **     Method      :  Cpu_Cpu_ivINT_DMA6 (component MK22FN1M0LK12)
 691:../Generated_Code/Cpu.c **** **
 692:../Generated_Code/Cpu.c **** **     Description :
 693:../Generated_Code/Cpu.c **** **         This ISR services an unused interrupt/exception vector.
 694:../Generated_Code/Cpu.c **** **         This method is internal. It is used by Processor Expert only.
 695:../Generated_Code/Cpu.c **** ** ===================================================================
 696:../Generated_Code/Cpu.c **** */
 697:../Generated_Code/Cpu.c **** PE_ISR(Cpu_ivINT_DMA6)
 698:../Generated_Code/Cpu.c **** {
 773              		.loc 1 698 0
 774              		.cfi_startproc
 775              		@ Stack Align: May be called with mis-aligned SP.
 776              		@ args = 0, pretend = 0, frame = 0
 777              		@ frame_needed = 1, uses_anonymous_args = 0
 778              		@ link register save eliminated.
 779 0000 6846     		mov	r0, sp
 780              		.cfi_register 13, 0
 781 0002 20F00701 		bic	r1, r0, #7
 782 0006 8D46     		mov	sp, r1
 783 0008 81B4     		push	{r0, r7}
 784              		.cfi_def_cfa_offset 8
 785              		.cfi_offset 13, -8
 786              		.cfi_offset 7, -4
 787 000a 00AF     		add	r7, sp, #0
 788              		.cfi_def_cfa_register 7
 699:../Generated_Code/Cpu.c ****   /* This code can be changed using the CPU component property "Build Options / Unhandled int code"
 700:../Generated_Code/Cpu.c ****   PE_DEBUGHALT();
 789              		.loc 1 700 0
 790              	@ 700 "../Generated_Code/Cpu.c" 1
 791 000c FFBE     		BKPT 255
 792              	@ 0 "" 2
 701:../Generated_Code/Cpu.c **** }
 793              		.loc 1 701 0
 794              		.thumb
 795 000e BD46     		mov	sp, r7
 796              		@ sp needed
 797 0010 81BC     		pop	{r0, r7}
 798 0012 8546     		mov	sp, r0
 799 0014 7047     		bx	lr
 800              		.cfi_endproc
 801              	.LFE19:
 803 0016 00BF     		.section	.text.Cpu_ivINT_DMA7,"ax",%progbits
 804              		.align	2
 805              		.global	Cpu_ivINT_DMA7
 806              		.thumb
 807              		.thumb_func
 809              	Cpu_ivINT_DMA7:
 810              	.LFB20:
 702:../Generated_Code/Cpu.c **** 
 703:../Generated_Code/Cpu.c **** /*
 704:../Generated_Code/Cpu.c **** ** ===================================================================
 705:../Generated_Code/Cpu.c **** **     Method      :  Cpu_Cpu_ivINT_DMA7 (component MK22FN1M0LK12)
 706:../Generated_Code/Cpu.c **** **
 707:../Generated_Code/Cpu.c **** **     Description :
 708:../Generated_Code/Cpu.c **** **         This ISR services an unused interrupt/exception vector.
 709:../Generated_Code/Cpu.c **** **         This method is internal. It is used by Processor Expert only.
 710:../Generated_Code/Cpu.c **** ** ===================================================================
 711:../Generated_Code/Cpu.c **** */
 712:../Generated_Code/Cpu.c **** PE_ISR(Cpu_ivINT_DMA7)
 713:../Generated_Code/Cpu.c **** {
 811              		.loc 1 713 0
 812              		.cfi_startproc
 813              		@ Stack Align: May be called with mis-aligned SP.
 814              		@ args = 0, pretend = 0, frame = 0
 815              		@ frame_needed = 1, uses_anonymous_args = 0
 816              		@ link register save eliminated.
 817 0000 6846     		mov	r0, sp
 818              		.cfi_register 13, 0
 819 0002 20F00701 		bic	r1, r0, #7
 820 0006 8D46     		mov	sp, r1
 821 0008 81B4     		push	{r0, r7}
 822              		.cfi_def_cfa_offset 8
 823              		.cfi_offset 13, -8
 824              		.cfi_offset 7, -4
 825 000a 00AF     		add	r7, sp, #0
 826              		.cfi_def_cfa_register 7
 714:../Generated_Code/Cpu.c ****   /* This code can be changed using the CPU component property "Build Options / Unhandled int code"
 715:../Generated_Code/Cpu.c ****   PE_DEBUGHALT();
 827              		.loc 1 715 0
 828              	@ 715 "../Generated_Code/Cpu.c" 1
 829 000c FFBE     		BKPT 255
 830              	@ 0 "" 2
 716:../Generated_Code/Cpu.c **** }
 831              		.loc 1 716 0
 832              		.thumb
 833 000e BD46     		mov	sp, r7
 834              		@ sp needed
 835 0010 81BC     		pop	{r0, r7}
 836 0012 8546     		mov	sp, r0
 837 0014 7047     		bx	lr
 838              		.cfi_endproc
 839              	.LFE20:
 841 0016 00BF     		.section	.text.Cpu_ivINT_DMA8,"ax",%progbits
 842              		.align	2
 843              		.global	Cpu_ivINT_DMA8
 844              		.thumb
 845              		.thumb_func
 847              	Cpu_ivINT_DMA8:
 848              	.LFB21:
 717:../Generated_Code/Cpu.c **** 
 718:../Generated_Code/Cpu.c **** /*
 719:../Generated_Code/Cpu.c **** ** ===================================================================
 720:../Generated_Code/Cpu.c **** **     Method      :  Cpu_Cpu_ivINT_DMA8 (component MK22FN1M0LK12)
 721:../Generated_Code/Cpu.c **** **
 722:../Generated_Code/Cpu.c **** **     Description :
 723:../Generated_Code/Cpu.c **** **         This ISR services an unused interrupt/exception vector.
 724:../Generated_Code/Cpu.c **** **         This method is internal. It is used by Processor Expert only.
 725:../Generated_Code/Cpu.c **** ** ===================================================================
 726:../Generated_Code/Cpu.c **** */
 727:../Generated_Code/Cpu.c **** PE_ISR(Cpu_ivINT_DMA8)
 728:../Generated_Code/Cpu.c **** {
 849              		.loc 1 728 0
 850              		.cfi_startproc
 851              		@ Stack Align: May be called with mis-aligned SP.
 852              		@ args = 0, pretend = 0, frame = 0
 853              		@ frame_needed = 1, uses_anonymous_args = 0
 854              		@ link register save eliminated.
 855 0000 6846     		mov	r0, sp
 856              		.cfi_register 13, 0
 857 0002 20F00701 		bic	r1, r0, #7
 858 0006 8D46     		mov	sp, r1
 859 0008 81B4     		push	{r0, r7}
 860              		.cfi_def_cfa_offset 8
 861              		.cfi_offset 13, -8
 862              		.cfi_offset 7, -4
 863 000a 00AF     		add	r7, sp, #0
 864              		.cfi_def_cfa_register 7
 729:../Generated_Code/Cpu.c ****   /* This code can be changed using the CPU component property "Build Options / Unhandled int code"
 730:../Generated_Code/Cpu.c ****   PE_DEBUGHALT();
 865              		.loc 1 730 0
 866              	@ 730 "../Generated_Code/Cpu.c" 1
 867 000c FFBE     		BKPT 255
 868              	@ 0 "" 2
 731:../Generated_Code/Cpu.c **** }
 869              		.loc 1 731 0
 870              		.thumb
 871 000e BD46     		mov	sp, r7
 872              		@ sp needed
 873 0010 81BC     		pop	{r0, r7}
 874 0012 8546     		mov	sp, r0
 875 0014 7047     		bx	lr
 876              		.cfi_endproc
 877              	.LFE21:
 879 0016 00BF     		.section	.text.Cpu_ivINT_DMA9,"ax",%progbits
 880              		.align	2
 881              		.global	Cpu_ivINT_DMA9
 882              		.thumb
 883              		.thumb_func
 885              	Cpu_ivINT_DMA9:
 886              	.LFB22:
 732:../Generated_Code/Cpu.c **** 
 733:../Generated_Code/Cpu.c **** /*
 734:../Generated_Code/Cpu.c **** ** ===================================================================
 735:../Generated_Code/Cpu.c **** **     Method      :  Cpu_Cpu_ivINT_DMA9 (component MK22FN1M0LK12)
 736:../Generated_Code/Cpu.c **** **
 737:../Generated_Code/Cpu.c **** **     Description :
 738:../Generated_Code/Cpu.c **** **         This ISR services an unused interrupt/exception vector.
 739:../Generated_Code/Cpu.c **** **         This method is internal. It is used by Processor Expert only.
 740:../Generated_Code/Cpu.c **** ** ===================================================================
 741:../Generated_Code/Cpu.c **** */
 742:../Generated_Code/Cpu.c **** PE_ISR(Cpu_ivINT_DMA9)
 743:../Generated_Code/Cpu.c **** {
 887              		.loc 1 743 0
 888              		.cfi_startproc
 889              		@ Stack Align: May be called with mis-aligned SP.
 890              		@ args = 0, pretend = 0, frame = 0
 891              		@ frame_needed = 1, uses_anonymous_args = 0
 892              		@ link register save eliminated.
 893 0000 6846     		mov	r0, sp
 894              		.cfi_register 13, 0
 895 0002 20F00701 		bic	r1, r0, #7
 896 0006 8D46     		mov	sp, r1
 897 0008 81B4     		push	{r0, r7}
 898              		.cfi_def_cfa_offset 8
 899              		.cfi_offset 13, -8
 900              		.cfi_offset 7, -4
 901 000a 00AF     		add	r7, sp, #0
 902              		.cfi_def_cfa_register 7
 744:../Generated_Code/Cpu.c ****   /* This code can be changed using the CPU component property "Build Options / Unhandled int code"
 745:../Generated_Code/Cpu.c ****   PE_DEBUGHALT();
 903              		.loc 1 745 0
 904              	@ 745 "../Generated_Code/Cpu.c" 1
 905 000c FFBE     		BKPT 255
 906              	@ 0 "" 2
 746:../Generated_Code/Cpu.c **** }
 907              		.loc 1 746 0
 908              		.thumb
 909 000e BD46     		mov	sp, r7
 910              		@ sp needed
 911 0010 81BC     		pop	{r0, r7}
 912 0012 8546     		mov	sp, r0
 913 0014 7047     		bx	lr
 914              		.cfi_endproc
 915              	.LFE22:
 917 0016 00BF     		.section	.text.Cpu_ivINT_DMA10,"ax",%progbits
 918              		.align	2
 919              		.global	Cpu_ivINT_DMA10
 920              		.thumb
 921              		.thumb_func
 923              	Cpu_ivINT_DMA10:
 924              	.LFB23:
 747:../Generated_Code/Cpu.c **** 
 748:../Generated_Code/Cpu.c **** /*
 749:../Generated_Code/Cpu.c **** ** ===================================================================
 750:../Generated_Code/Cpu.c **** **     Method      :  Cpu_Cpu_ivINT_DMA10 (component MK22FN1M0LK12)
 751:../Generated_Code/Cpu.c **** **
 752:../Generated_Code/Cpu.c **** **     Description :
 753:../Generated_Code/Cpu.c **** **         This ISR services an unused interrupt/exception vector.
 754:../Generated_Code/Cpu.c **** **         This method is internal. It is used by Processor Expert only.
 755:../Generated_Code/Cpu.c **** ** ===================================================================
 756:../Generated_Code/Cpu.c **** */
 757:../Generated_Code/Cpu.c **** PE_ISR(Cpu_ivINT_DMA10)
 758:../Generated_Code/Cpu.c **** {
 925              		.loc 1 758 0
 926              		.cfi_startproc
 927              		@ Stack Align: May be called with mis-aligned SP.
 928              		@ args = 0, pretend = 0, frame = 0
 929              		@ frame_needed = 1, uses_anonymous_args = 0
 930              		@ link register save eliminated.
 931 0000 6846     		mov	r0, sp
 932              		.cfi_register 13, 0
 933 0002 20F00701 		bic	r1, r0, #7
 934 0006 8D46     		mov	sp, r1
 935 0008 81B4     		push	{r0, r7}
 936              		.cfi_def_cfa_offset 8
 937              		.cfi_offset 13, -8
 938              		.cfi_offset 7, -4
 939 000a 00AF     		add	r7, sp, #0
 940              		.cfi_def_cfa_register 7
 759:../Generated_Code/Cpu.c ****   /* This code can be changed using the CPU component property "Build Options / Unhandled int code"
 760:../Generated_Code/Cpu.c ****   PE_DEBUGHALT();
 941              		.loc 1 760 0
 942              	@ 760 "../Generated_Code/Cpu.c" 1
 943 000c FFBE     		BKPT 255
 944              	@ 0 "" 2
 761:../Generated_Code/Cpu.c **** }
 945              		.loc 1 761 0
 946              		.thumb
 947 000e BD46     		mov	sp, r7
 948              		@ sp needed
 949 0010 81BC     		pop	{r0, r7}
 950 0012 8546     		mov	sp, r0
 951 0014 7047     		bx	lr
 952              		.cfi_endproc
 953              	.LFE23:
 955 0016 00BF     		.section	.text.Cpu_ivINT_DMA11,"ax",%progbits
 956              		.align	2
 957              		.global	Cpu_ivINT_DMA11
 958              		.thumb
 959              		.thumb_func
 961              	Cpu_ivINT_DMA11:
 962              	.LFB24:
 762:../Generated_Code/Cpu.c **** 
 763:../Generated_Code/Cpu.c **** /*
 764:../Generated_Code/Cpu.c **** ** ===================================================================
 765:../Generated_Code/Cpu.c **** **     Method      :  Cpu_Cpu_ivINT_DMA11 (component MK22FN1M0LK12)
 766:../Generated_Code/Cpu.c **** **
 767:../Generated_Code/Cpu.c **** **     Description :
 768:../Generated_Code/Cpu.c **** **         This ISR services an unused interrupt/exception vector.
 769:../Generated_Code/Cpu.c **** **         This method is internal. It is used by Processor Expert only.
 770:../Generated_Code/Cpu.c **** ** ===================================================================
 771:../Generated_Code/Cpu.c **** */
 772:../Generated_Code/Cpu.c **** PE_ISR(Cpu_ivINT_DMA11)
 773:../Generated_Code/Cpu.c **** {
 963              		.loc 1 773 0
 964              		.cfi_startproc
 965              		@ Stack Align: May be called with mis-aligned SP.
 966              		@ args = 0, pretend = 0, frame = 0
 967              		@ frame_needed = 1, uses_anonymous_args = 0
 968              		@ link register save eliminated.
 969 0000 6846     		mov	r0, sp
 970              		.cfi_register 13, 0
 971 0002 20F00701 		bic	r1, r0, #7
 972 0006 8D46     		mov	sp, r1
 973 0008 81B4     		push	{r0, r7}
 974              		.cfi_def_cfa_offset 8
 975              		.cfi_offset 13, -8
 976              		.cfi_offset 7, -4
 977 000a 00AF     		add	r7, sp, #0
 978              		.cfi_def_cfa_register 7
 774:../Generated_Code/Cpu.c ****   /* This code can be changed using the CPU component property "Build Options / Unhandled int code"
 775:../Generated_Code/Cpu.c ****   PE_DEBUGHALT();
 979              		.loc 1 775 0
 980              	@ 775 "../Generated_Code/Cpu.c" 1
 981 000c FFBE     		BKPT 255
 982              	@ 0 "" 2
 776:../Generated_Code/Cpu.c **** }
 983              		.loc 1 776 0
 984              		.thumb
 985 000e BD46     		mov	sp, r7
 986              		@ sp needed
 987 0010 81BC     		pop	{r0, r7}
 988 0012 8546     		mov	sp, r0
 989 0014 7047     		bx	lr
 990              		.cfi_endproc
 991              	.LFE24:
 993 0016 00BF     		.section	.text.Cpu_ivINT_DMA12,"ax",%progbits
 994              		.align	2
 995              		.global	Cpu_ivINT_DMA12
 996              		.thumb
 997              		.thumb_func
 999              	Cpu_ivINT_DMA12:
 1000              	.LFB25:
 777:../Generated_Code/Cpu.c **** 
 778:../Generated_Code/Cpu.c **** /*
 779:../Generated_Code/Cpu.c **** ** ===================================================================
 780:../Generated_Code/Cpu.c **** **     Method      :  Cpu_Cpu_ivINT_DMA12 (component MK22FN1M0LK12)
 781:../Generated_Code/Cpu.c **** **
 782:../Generated_Code/Cpu.c **** **     Description :
 783:../Generated_Code/Cpu.c **** **         This ISR services an unused interrupt/exception vector.
 784:../Generated_Code/Cpu.c **** **         This method is internal. It is used by Processor Expert only.
 785:../Generated_Code/Cpu.c **** ** ===================================================================
 786:../Generated_Code/Cpu.c **** */
 787:../Generated_Code/Cpu.c **** PE_ISR(Cpu_ivINT_DMA12)
 788:../Generated_Code/Cpu.c **** {
 1001              		.loc 1 788 0
 1002              		.cfi_startproc
 1003              		@ Stack Align: May be called with mis-aligned SP.
 1004              		@ args = 0, pretend = 0, frame = 0
 1005              		@ frame_needed = 1, uses_anonymous_args = 0
 1006              		@ link register save eliminated.
 1007 0000 6846     		mov	r0, sp
 1008              		.cfi_register 13, 0
 1009 0002 20F00701 		bic	r1, r0, #7
 1010 0006 8D46     		mov	sp, r1
 1011 0008 81B4     		push	{r0, r7}
 1012              		.cfi_def_cfa_offset 8
 1013              		.cfi_offset 13, -8
 1014              		.cfi_offset 7, -4
 1015 000a 00AF     		add	r7, sp, #0
 1016              		.cfi_def_cfa_register 7
 789:../Generated_Code/Cpu.c ****   /* This code can be changed using the CPU component property "Build Options / Unhandled int code"
 790:../Generated_Code/Cpu.c ****   PE_DEBUGHALT();
 1017              		.loc 1 790 0
 1018              	@ 790 "../Generated_Code/Cpu.c" 1
 1019 000c FFBE     		BKPT 255
 1020              	@ 0 "" 2
 791:../Generated_Code/Cpu.c **** }
 1021              		.loc 1 791 0
 1022              		.thumb
 1023 000e BD46     		mov	sp, r7
 1024              		@ sp needed
 1025 0010 81BC     		pop	{r0, r7}
 1026 0012 8546     		mov	sp, r0
 1027 0014 7047     		bx	lr
 1028              		.cfi_endproc
 1029              	.LFE25:
 1031 0016 00BF     		.section	.text.Cpu_ivINT_DMA13,"ax",%progbits
 1032              		.align	2
 1033              		.global	Cpu_ivINT_DMA13
 1034              		.thumb
 1035              		.thumb_func
 1037              	Cpu_ivINT_DMA13:
 1038              	.LFB26:
 792:../Generated_Code/Cpu.c **** 
 793:../Generated_Code/Cpu.c **** /*
 794:../Generated_Code/Cpu.c **** ** ===================================================================
 795:../Generated_Code/Cpu.c **** **     Method      :  Cpu_Cpu_ivINT_DMA13 (component MK22FN1M0LK12)
 796:../Generated_Code/Cpu.c **** **
 797:../Generated_Code/Cpu.c **** **     Description :
 798:../Generated_Code/Cpu.c **** **         This ISR services an unused interrupt/exception vector.
 799:../Generated_Code/Cpu.c **** **         This method is internal. It is used by Processor Expert only.
 800:../Generated_Code/Cpu.c **** ** ===================================================================
 801:../Generated_Code/Cpu.c **** */
 802:../Generated_Code/Cpu.c **** PE_ISR(Cpu_ivINT_DMA13)
 803:../Generated_Code/Cpu.c **** {
 1039              		.loc 1 803 0
 1040              		.cfi_startproc
 1041              		@ Stack Align: May be called with mis-aligned SP.
 1042              		@ args = 0, pretend = 0, frame = 0
 1043              		@ frame_needed = 1, uses_anonymous_args = 0
 1044              		@ link register save eliminated.
 1045 0000 6846     		mov	r0, sp
 1046              		.cfi_register 13, 0
 1047 0002 20F00701 		bic	r1, r0, #7
 1048 0006 8D46     		mov	sp, r1
 1049 0008 81B4     		push	{r0, r7}
 1050              		.cfi_def_cfa_offset 8
 1051              		.cfi_offset 13, -8
 1052              		.cfi_offset 7, -4
 1053 000a 00AF     		add	r7, sp, #0
 1054              		.cfi_def_cfa_register 7
 804:../Generated_Code/Cpu.c ****   /* This code can be changed using the CPU component property "Build Options / Unhandled int code"
 805:../Generated_Code/Cpu.c ****   PE_DEBUGHALT();
 1055              		.loc 1 805 0
 1056              	@ 805 "../Generated_Code/Cpu.c" 1
 1057 000c FFBE     		BKPT 255
 1058              	@ 0 "" 2
 806:../Generated_Code/Cpu.c **** }
 1059              		.loc 1 806 0
 1060              		.thumb
 1061 000e BD46     		mov	sp, r7
 1062              		@ sp needed
 1063 0010 81BC     		pop	{r0, r7}
 1064 0012 8546     		mov	sp, r0
 1065 0014 7047     		bx	lr
 1066              		.cfi_endproc
 1067              	.LFE26:
 1069 0016 00BF     		.section	.text.Cpu_ivINT_DMA14,"ax",%progbits
 1070              		.align	2
 1071              		.global	Cpu_ivINT_DMA14
 1072              		.thumb
 1073              		.thumb_func
 1075              	Cpu_ivINT_DMA14:
 1076              	.LFB27:
 807:../Generated_Code/Cpu.c **** 
 808:../Generated_Code/Cpu.c **** /*
 809:../Generated_Code/Cpu.c **** ** ===================================================================
 810:../Generated_Code/Cpu.c **** **     Method      :  Cpu_Cpu_ivINT_DMA14 (component MK22FN1M0LK12)
 811:../Generated_Code/Cpu.c **** **
 812:../Generated_Code/Cpu.c **** **     Description :
 813:../Generated_Code/Cpu.c **** **         This ISR services an unused interrupt/exception vector.
 814:../Generated_Code/Cpu.c **** **         This method is internal. It is used by Processor Expert only.
 815:../Generated_Code/Cpu.c **** ** ===================================================================
 816:../Generated_Code/Cpu.c **** */
 817:../Generated_Code/Cpu.c **** PE_ISR(Cpu_ivINT_DMA14)
 818:../Generated_Code/Cpu.c **** {
 1077              		.loc 1 818 0
 1078              		.cfi_startproc
 1079              		@ Stack Align: May be called with mis-aligned SP.
 1080              		@ args = 0, pretend = 0, frame = 0
 1081              		@ frame_needed = 1, uses_anonymous_args = 0
 1082              		@ link register save eliminated.
 1083 0000 6846     		mov	r0, sp
 1084              		.cfi_register 13, 0
 1085 0002 20F00701 		bic	r1, r0, #7
 1086 0006 8D46     		mov	sp, r1
 1087 0008 81B4     		push	{r0, r7}
 1088              		.cfi_def_cfa_offset 8
 1089              		.cfi_offset 13, -8
 1090              		.cfi_offset 7, -4
 1091 000a 00AF     		add	r7, sp, #0
 1092              		.cfi_def_cfa_register 7
 819:../Generated_Code/Cpu.c ****   /* This code can be changed using the CPU component property "Build Options / Unhandled int code"
 820:../Generated_Code/Cpu.c ****   PE_DEBUGHALT();
 1093              		.loc 1 820 0
 1094              	@ 820 "../Generated_Code/Cpu.c" 1
 1095 000c FFBE     		BKPT 255
 1096              	@ 0 "" 2
 821:../Generated_Code/Cpu.c **** }
 1097              		.loc 1 821 0
 1098              		.thumb
 1099 000e BD46     		mov	sp, r7
 1100              		@ sp needed
 1101 0010 81BC     		pop	{r0, r7}
 1102 0012 8546     		mov	sp, r0
 1103 0014 7047     		bx	lr
 1104              		.cfi_endproc
 1105              	.LFE27:
 1107 0016 00BF     		.section	.text.Cpu_ivINT_DMA15,"ax",%progbits
 1108              		.align	2
 1109              		.global	Cpu_ivINT_DMA15
 1110              		.thumb
 1111              		.thumb_func
 1113              	Cpu_ivINT_DMA15:
 1114              	.LFB28:
 822:../Generated_Code/Cpu.c **** 
 823:../Generated_Code/Cpu.c **** /*
 824:../Generated_Code/Cpu.c **** ** ===================================================================
 825:../Generated_Code/Cpu.c **** **     Method      :  Cpu_Cpu_ivINT_DMA15 (component MK22FN1M0LK12)
 826:../Generated_Code/Cpu.c **** **
 827:../Generated_Code/Cpu.c **** **     Description :
 828:../Generated_Code/Cpu.c **** **         This ISR services an unused interrupt/exception vector.
 829:../Generated_Code/Cpu.c **** **         This method is internal. It is used by Processor Expert only.
 830:../Generated_Code/Cpu.c **** ** ===================================================================
 831:../Generated_Code/Cpu.c **** */
 832:../Generated_Code/Cpu.c **** PE_ISR(Cpu_ivINT_DMA15)
 833:../Generated_Code/Cpu.c **** {
 1115              		.loc 1 833 0
 1116              		.cfi_startproc
 1117              		@ Stack Align: May be called with mis-aligned SP.
 1118              		@ args = 0, pretend = 0, frame = 0
 1119              		@ frame_needed = 1, uses_anonymous_args = 0
 1120              		@ link register save eliminated.
 1121 0000 6846     		mov	r0, sp
 1122              		.cfi_register 13, 0
 1123 0002 20F00701 		bic	r1, r0, #7
 1124 0006 8D46     		mov	sp, r1
 1125 0008 81B4     		push	{r0, r7}
 1126              		.cfi_def_cfa_offset 8
 1127              		.cfi_offset 13, -8
 1128              		.cfi_offset 7, -4
 1129 000a 00AF     		add	r7, sp, #0
 1130              		.cfi_def_cfa_register 7
 834:../Generated_Code/Cpu.c ****   /* This code can be changed using the CPU component property "Build Options / Unhandled int code"
 835:../Generated_Code/Cpu.c ****   PE_DEBUGHALT();
 1131              		.loc 1 835 0
 1132              	@ 835 "../Generated_Code/Cpu.c" 1
 1133 000c FFBE     		BKPT 255
 1134              	@ 0 "" 2
 836:../Generated_Code/Cpu.c **** }
 1135              		.loc 1 836 0
 1136              		.thumb
 1137 000e BD46     		mov	sp, r7
 1138              		@ sp needed
 1139 0010 81BC     		pop	{r0, r7}
 1140 0012 8546     		mov	sp, r0
 1141 0014 7047     		bx	lr
 1142              		.cfi_endproc
 1143              	.LFE28:
 1145 0016 00BF     		.section	.text.Cpu_ivINT_DMA_Error,"ax",%progbits
 1146              		.align	2
 1147              		.global	Cpu_ivINT_DMA_Error
 1148              		.thumb
 1149              		.thumb_func
 1151              	Cpu_ivINT_DMA_Error:
 1152              	.LFB29:
 837:../Generated_Code/Cpu.c **** 
 838:../Generated_Code/Cpu.c **** /*
 839:../Generated_Code/Cpu.c **** ** ===================================================================
 840:../Generated_Code/Cpu.c **** **     Method      :  Cpu_Cpu_ivINT_DMA_Error (component MK22FN1M0LK12)
 841:../Generated_Code/Cpu.c **** **
 842:../Generated_Code/Cpu.c **** **     Description :
 843:../Generated_Code/Cpu.c **** **         This ISR services an unused interrupt/exception vector.
 844:../Generated_Code/Cpu.c **** **         This method is internal. It is used by Processor Expert only.
 845:../Generated_Code/Cpu.c **** ** ===================================================================
 846:../Generated_Code/Cpu.c **** */
 847:../Generated_Code/Cpu.c **** PE_ISR(Cpu_ivINT_DMA_Error)
 848:../Generated_Code/Cpu.c **** {
 1153              		.loc 1 848 0
 1154              		.cfi_startproc
 1155              		@ Stack Align: May be called with mis-aligned SP.
 1156              		@ args = 0, pretend = 0, frame = 0
 1157              		@ frame_needed = 1, uses_anonymous_args = 0
 1158              		@ link register save eliminated.
 1159 0000 6846     		mov	r0, sp
 1160              		.cfi_register 13, 0
 1161 0002 20F00701 		bic	r1, r0, #7
 1162 0006 8D46     		mov	sp, r1
 1163 0008 81B4     		push	{r0, r7}
 1164              		.cfi_def_cfa_offset 8
 1165              		.cfi_offset 13, -8
 1166              		.cfi_offset 7, -4
 1167 000a 00AF     		add	r7, sp, #0
 1168              		.cfi_def_cfa_register 7
 849:../Generated_Code/Cpu.c ****   /* This code can be changed using the CPU component property "Build Options / Unhandled int code"
 850:../Generated_Code/Cpu.c ****   PE_DEBUGHALT();
 1169              		.loc 1 850 0
 1170              	@ 850 "../Generated_Code/Cpu.c" 1
 1171 000c FFBE     		BKPT 255
 1172              	@ 0 "" 2
 851:../Generated_Code/Cpu.c **** }
 1173              		.loc 1 851 0
 1174              		.thumb
 1175 000e BD46     		mov	sp, r7
 1176              		@ sp needed
 1177 0010 81BC     		pop	{r0, r7}
 1178 0012 8546     		mov	sp, r0
 1179 0014 7047     		bx	lr
 1180              		.cfi_endproc
 1181              	.LFE29:
 1183 0016 00BF     		.section	.text.Cpu_ivINT_MCM,"ax",%progbits
 1184              		.align	2
 1185              		.global	Cpu_ivINT_MCM
 1186              		.thumb
 1187              		.thumb_func
 1189              	Cpu_ivINT_MCM:
 1190              	.LFB30:
 852:../Generated_Code/Cpu.c **** 
 853:../Generated_Code/Cpu.c **** /*
 854:../Generated_Code/Cpu.c **** ** ===================================================================
 855:../Generated_Code/Cpu.c **** **     Method      :  Cpu_Cpu_ivINT_MCM (component MK22FN1M0LK12)
 856:../Generated_Code/Cpu.c **** **
 857:../Generated_Code/Cpu.c **** **     Description :
 858:../Generated_Code/Cpu.c **** **         This ISR services an unused interrupt/exception vector.
 859:../Generated_Code/Cpu.c **** **         This method is internal. It is used by Processor Expert only.
 860:../Generated_Code/Cpu.c **** ** ===================================================================
 861:../Generated_Code/Cpu.c **** */
 862:../Generated_Code/Cpu.c **** PE_ISR(Cpu_ivINT_MCM)
 863:../Generated_Code/Cpu.c **** {
 1191              		.loc 1 863 0
 1192              		.cfi_startproc
 1193              		@ Stack Align: May be called with mis-aligned SP.
 1194              		@ args = 0, pretend = 0, frame = 0
 1195              		@ frame_needed = 1, uses_anonymous_args = 0
 1196              		@ link register save eliminated.
 1197 0000 6846     		mov	r0, sp
 1198              		.cfi_register 13, 0
 1199 0002 20F00701 		bic	r1, r0, #7
 1200 0006 8D46     		mov	sp, r1
 1201 0008 81B4     		push	{r0, r7}
 1202              		.cfi_def_cfa_offset 8
 1203              		.cfi_offset 13, -8
 1204              		.cfi_offset 7, -4
 1205 000a 00AF     		add	r7, sp, #0
 1206              		.cfi_def_cfa_register 7
 864:../Generated_Code/Cpu.c ****   /* This code can be changed using the CPU component property "Build Options / Unhandled int code"
 865:../Generated_Code/Cpu.c ****   PE_DEBUGHALT();
 1207              		.loc 1 865 0
 1208              	@ 865 "../Generated_Code/Cpu.c" 1
 1209 000c FFBE     		BKPT 255
 1210              	@ 0 "" 2
 866:../Generated_Code/Cpu.c **** }
 1211              		.loc 1 866 0
 1212              		.thumb
 1213 000e BD46     		mov	sp, r7
 1214              		@ sp needed
 1215 0010 81BC     		pop	{r0, r7}
 1216 0012 8546     		mov	sp, r0
 1217 0014 7047     		bx	lr
 1218              		.cfi_endproc
 1219              	.LFE30:
 1221 0016 00BF     		.section	.text.Cpu_ivINT_FTFE,"ax",%progbits
 1222              		.align	2
 1223              		.global	Cpu_ivINT_FTFE
 1224              		.thumb
 1225              		.thumb_func
 1227              	Cpu_ivINT_FTFE:
 1228              	.LFB31:
 867:../Generated_Code/Cpu.c **** 
 868:../Generated_Code/Cpu.c **** /*
 869:../Generated_Code/Cpu.c **** ** ===================================================================
 870:../Generated_Code/Cpu.c **** **     Method      :  Cpu_Cpu_ivINT_FTFE (component MK22FN1M0LK12)
 871:../Generated_Code/Cpu.c **** **
 872:../Generated_Code/Cpu.c **** **     Description :
 873:../Generated_Code/Cpu.c **** **         This ISR services an unused interrupt/exception vector.
 874:../Generated_Code/Cpu.c **** **         This method is internal. It is used by Processor Expert only.
 875:../Generated_Code/Cpu.c **** ** ===================================================================
 876:../Generated_Code/Cpu.c **** */
 877:../Generated_Code/Cpu.c **** PE_ISR(Cpu_ivINT_FTFE)
 878:../Generated_Code/Cpu.c **** {
 1229              		.loc 1 878 0
 1230              		.cfi_startproc
 1231              		@ Stack Align: May be called with mis-aligned SP.
 1232              		@ args = 0, pretend = 0, frame = 0
 1233              		@ frame_needed = 1, uses_anonymous_args = 0
 1234              		@ link register save eliminated.
 1235 0000 6846     		mov	r0, sp
 1236              		.cfi_register 13, 0
 1237 0002 20F00701 		bic	r1, r0, #7
 1238 0006 8D46     		mov	sp, r1
 1239 0008 81B4     		push	{r0, r7}
 1240              		.cfi_def_cfa_offset 8
 1241              		.cfi_offset 13, -8
 1242              		.cfi_offset 7, -4
 1243 000a 00AF     		add	r7, sp, #0
 1244              		.cfi_def_cfa_register 7
 879:../Generated_Code/Cpu.c ****   /* This code can be changed using the CPU component property "Build Options / Unhandled int code"
 880:../Generated_Code/Cpu.c ****   PE_DEBUGHALT();
 1245              		.loc 1 880 0
 1246              	@ 880 "../Generated_Code/Cpu.c" 1
 1247 000c FFBE     		BKPT 255
 1248              	@ 0 "" 2
 881:../Generated_Code/Cpu.c **** }
 1249              		.loc 1 881 0
 1250              		.thumb
 1251 000e BD46     		mov	sp, r7
 1252              		@ sp needed
 1253 0010 81BC     		pop	{r0, r7}
 1254 0012 8546     		mov	sp, r0
 1255 0014 7047     		bx	lr
 1256              		.cfi_endproc
 1257              	.LFE31:
 1259 0016 00BF     		.section	.text.Cpu_ivINT_Read_Collision,"ax",%progbits
 1260              		.align	2
 1261              		.global	Cpu_ivINT_Read_Collision
 1262              		.thumb
 1263              		.thumb_func
 1265              	Cpu_ivINT_Read_Collision:
 1266              	.LFB32:
 882:../Generated_Code/Cpu.c **** 
 883:../Generated_Code/Cpu.c **** /*
 884:../Generated_Code/Cpu.c **** ** ===================================================================
 885:../Generated_Code/Cpu.c **** **     Method      :  Cpu_Cpu_ivINT_Read_Collision (component MK22FN1M0LK12)
 886:../Generated_Code/Cpu.c **** **
 887:../Generated_Code/Cpu.c **** **     Description :
 888:../Generated_Code/Cpu.c **** **         This ISR services an unused interrupt/exception vector.
 889:../Generated_Code/Cpu.c **** **         This method is internal. It is used by Processor Expert only.
 890:../Generated_Code/Cpu.c **** ** ===================================================================
 891:../Generated_Code/Cpu.c **** */
 892:../Generated_Code/Cpu.c **** PE_ISR(Cpu_ivINT_Read_Collision)
 893:../Generated_Code/Cpu.c **** {
 1267              		.loc 1 893 0
 1268              		.cfi_startproc
 1269              		@ Stack Align: May be called with mis-aligned SP.
 1270              		@ args = 0, pretend = 0, frame = 0
 1271              		@ frame_needed = 1, uses_anonymous_args = 0
 1272              		@ link register save eliminated.
 1273 0000 6846     		mov	r0, sp
 1274              		.cfi_register 13, 0
 1275 0002 20F00701 		bic	r1, r0, #7
 1276 0006 8D46     		mov	sp, r1
 1277 0008 81B4     		push	{r0, r7}
 1278              		.cfi_def_cfa_offset 8
 1279              		.cfi_offset 13, -8
 1280              		.cfi_offset 7, -4
 1281 000a 00AF     		add	r7, sp, #0
 1282              		.cfi_def_cfa_register 7
 894:../Generated_Code/Cpu.c ****   /* This code can be changed using the CPU component property "Build Options / Unhandled int code"
 895:../Generated_Code/Cpu.c ****   PE_DEBUGHALT();
 1283              		.loc 1 895 0
 1284              	@ 895 "../Generated_Code/Cpu.c" 1
 1285 000c FFBE     		BKPT 255
 1286              	@ 0 "" 2
 896:../Generated_Code/Cpu.c **** }
 1287              		.loc 1 896 0
 1288              		.thumb
 1289 000e BD46     		mov	sp, r7
 1290              		@ sp needed
 1291 0010 81BC     		pop	{r0, r7}
 1292 0012 8546     		mov	sp, r0
 1293 0014 7047     		bx	lr
 1294              		.cfi_endproc
 1295              	.LFE32:
 1297 0016 00BF     		.section	.text.Cpu_ivINT_LVD_LVW,"ax",%progbits
 1298              		.align	2
 1299              		.global	Cpu_ivINT_LVD_LVW
 1300              		.thumb
 1301              		.thumb_func
 1303              	Cpu_ivINT_LVD_LVW:
 1304              	.LFB33:
 897:../Generated_Code/Cpu.c **** 
 898:../Generated_Code/Cpu.c **** /*
 899:../Generated_Code/Cpu.c **** ** ===================================================================
 900:../Generated_Code/Cpu.c **** **     Method      :  Cpu_Cpu_ivINT_LVD_LVW (component MK22FN1M0LK12)
 901:../Generated_Code/Cpu.c **** **
 902:../Generated_Code/Cpu.c **** **     Description :
 903:../Generated_Code/Cpu.c **** **         This ISR services an unused interrupt/exception vector.
 904:../Generated_Code/Cpu.c **** **         This method is internal. It is used by Processor Expert only.
 905:../Generated_Code/Cpu.c **** ** ===================================================================
 906:../Generated_Code/Cpu.c **** */
 907:../Generated_Code/Cpu.c **** PE_ISR(Cpu_ivINT_LVD_LVW)
 908:../Generated_Code/Cpu.c **** {
 1305              		.loc 1 908 0
 1306              		.cfi_startproc
 1307              		@ Stack Align: May be called with mis-aligned SP.
 1308              		@ args = 0, pretend = 0, frame = 0
 1309              		@ frame_needed = 1, uses_anonymous_args = 0
 1310              		@ link register save eliminated.
 1311 0000 6846     		mov	r0, sp
 1312              		.cfi_register 13, 0
 1313 0002 20F00701 		bic	r1, r0, #7
 1314 0006 8D46     		mov	sp, r1
 1315 0008 81B4     		push	{r0, r7}
 1316              		.cfi_def_cfa_offset 8
 1317              		.cfi_offset 13, -8
 1318              		.cfi_offset 7, -4
 1319 000a 00AF     		add	r7, sp, #0
 1320              		.cfi_def_cfa_register 7
 909:../Generated_Code/Cpu.c ****   /* This code can be changed using the CPU component property "Build Options / Unhandled int code"
 910:../Generated_Code/Cpu.c ****   PE_DEBUGHALT();
 1321              		.loc 1 910 0
 1322              	@ 910 "../Generated_Code/Cpu.c" 1
 1323 000c FFBE     		BKPT 255
 1324              	@ 0 "" 2
 911:../Generated_Code/Cpu.c **** }
 1325              		.loc 1 911 0
 1326              		.thumb
 1327 000e BD46     		mov	sp, r7
 1328              		@ sp needed
 1329 0010 81BC     		pop	{r0, r7}
 1330 0012 8546     		mov	sp, r0
 1331 0014 7047     		bx	lr
 1332              		.cfi_endproc
 1333              	.LFE33:
 1335 0016 00BF     		.section	.text.Cpu_ivINT_LLWU,"ax",%progbits
 1336              		.align	2
 1337              		.global	Cpu_ivINT_LLWU
 1338              		.thumb
 1339              		.thumb_func
 1341              	Cpu_ivINT_LLWU:
 1342              	.LFB34:
 912:../Generated_Code/Cpu.c **** 
 913:../Generated_Code/Cpu.c **** /*
 914:../Generated_Code/Cpu.c **** ** ===================================================================
 915:../Generated_Code/Cpu.c **** **     Method      :  Cpu_Cpu_ivINT_LLWU (component MK22FN1M0LK12)
 916:../Generated_Code/Cpu.c **** **
 917:../Generated_Code/Cpu.c **** **     Description :
 918:../Generated_Code/Cpu.c **** **         This ISR services an unused interrupt/exception vector.
 919:../Generated_Code/Cpu.c **** **         This method is internal. It is used by Processor Expert only.
 920:../Generated_Code/Cpu.c **** ** ===================================================================
 921:../Generated_Code/Cpu.c **** */
 922:../Generated_Code/Cpu.c **** PE_ISR(Cpu_ivINT_LLWU)
 923:../Generated_Code/Cpu.c **** {
 1343              		.loc 1 923 0
 1344              		.cfi_startproc
 1345              		@ Stack Align: May be called with mis-aligned SP.
 1346              		@ args = 0, pretend = 0, frame = 0
 1347              		@ frame_needed = 1, uses_anonymous_args = 0
 1348              		@ link register save eliminated.
 1349 0000 6846     		mov	r0, sp
 1350              		.cfi_register 13, 0
 1351 0002 20F00701 		bic	r1, r0, #7
 1352 0006 8D46     		mov	sp, r1
 1353 0008 81B4     		push	{r0, r7}
 1354              		.cfi_def_cfa_offset 8
 1355              		.cfi_offset 13, -8
 1356              		.cfi_offset 7, -4
 1357 000a 00AF     		add	r7, sp, #0
 1358              		.cfi_def_cfa_register 7
 924:../Generated_Code/Cpu.c ****   /* This code can be changed using the CPU component property "Build Options / Unhandled int code"
 925:../Generated_Code/Cpu.c ****   PE_DEBUGHALT();
 1359              		.loc 1 925 0
 1360              	@ 925 "../Generated_Code/Cpu.c" 1
 1361 000c FFBE     		BKPT 255
 1362              	@ 0 "" 2
 926:../Generated_Code/Cpu.c **** }
 1363              		.loc 1 926 0
 1364              		.thumb
 1365 000e BD46     		mov	sp, r7
 1366              		@ sp needed
 1367 0010 81BC     		pop	{r0, r7}
 1368 0012 8546     		mov	sp, r0
 1369 0014 7047     		bx	lr
 1370              		.cfi_endproc
 1371              	.LFE34:
 1373 0016 00BF     		.section	.text.Cpu_ivINT_WDOG_EWM,"ax",%progbits
 1374              		.align	2
 1375              		.global	Cpu_ivINT_WDOG_EWM
 1376              		.thumb
 1377              		.thumb_func
 1379              	Cpu_ivINT_WDOG_EWM:
 1380              	.LFB35:
 927:../Generated_Code/Cpu.c **** 
 928:../Generated_Code/Cpu.c **** /*
 929:../Generated_Code/Cpu.c **** ** ===================================================================
 930:../Generated_Code/Cpu.c **** **     Method      :  Cpu_Cpu_ivINT_WDOG_EWM (component MK22FN1M0LK12)
 931:../Generated_Code/Cpu.c **** **
 932:../Generated_Code/Cpu.c **** **     Description :
 933:../Generated_Code/Cpu.c **** **         This ISR services an unused interrupt/exception vector.
 934:../Generated_Code/Cpu.c **** **         This method is internal. It is used by Processor Expert only.
 935:../Generated_Code/Cpu.c **** ** ===================================================================
 936:../Generated_Code/Cpu.c **** */
 937:../Generated_Code/Cpu.c **** PE_ISR(Cpu_ivINT_WDOG_EWM)
 938:../Generated_Code/Cpu.c **** {
 1381              		.loc 1 938 0
 1382              		.cfi_startproc
 1383              		@ Stack Align: May be called with mis-aligned SP.
 1384              		@ args = 0, pretend = 0, frame = 0
 1385              		@ frame_needed = 1, uses_anonymous_args = 0
 1386              		@ link register save eliminated.
 1387 0000 6846     		mov	r0, sp
 1388              		.cfi_register 13, 0
 1389 0002 20F00701 		bic	r1, r0, #7
 1390 0006 8D46     		mov	sp, r1
 1391 0008 81B4     		push	{r0, r7}
 1392              		.cfi_def_cfa_offset 8
 1393              		.cfi_offset 13, -8
 1394              		.cfi_offset 7, -4
 1395 000a 00AF     		add	r7, sp, #0
 1396              		.cfi_def_cfa_register 7
 939:../Generated_Code/Cpu.c ****   /* This code can be changed using the CPU component property "Build Options / Unhandled int code"
 940:../Generated_Code/Cpu.c ****   PE_DEBUGHALT();
 1397              		.loc 1 940 0
 1398              	@ 940 "../Generated_Code/Cpu.c" 1
 1399 000c FFBE     		BKPT 255
 1400              	@ 0 "" 2
 941:../Generated_Code/Cpu.c **** }
 1401              		.loc 1 941 0
 1402              		.thumb
 1403 000e BD46     		mov	sp, r7
 1404              		@ sp needed
 1405 0010 81BC     		pop	{r0, r7}
 1406 0012 8546     		mov	sp, r0
 1407 0014 7047     		bx	lr
 1408              		.cfi_endproc
 1409              	.LFE35:
 1411 0016 00BF     		.section	.text.Cpu_ivINT_Reserved39,"ax",%progbits
 1412              		.align	2
 1413              		.global	Cpu_ivINT_Reserved39
 1414              		.thumb
 1415              		.thumb_func
 1417              	Cpu_ivINT_Reserved39:
 1418              	.LFB36:
 942:../Generated_Code/Cpu.c **** 
 943:../Generated_Code/Cpu.c **** /*
 944:../Generated_Code/Cpu.c **** ** ===================================================================
 945:../Generated_Code/Cpu.c **** **     Method      :  Cpu_Cpu_ivINT_Reserved39 (component MK22FN1M0LK12)
 946:../Generated_Code/Cpu.c **** **
 947:../Generated_Code/Cpu.c **** **     Description :
 948:../Generated_Code/Cpu.c **** **         This ISR services an unused interrupt/exception vector.
 949:../Generated_Code/Cpu.c **** **         This method is internal. It is used by Processor Expert only.
 950:../Generated_Code/Cpu.c **** ** ===================================================================
 951:../Generated_Code/Cpu.c **** */
 952:../Generated_Code/Cpu.c **** PE_ISR(Cpu_ivINT_Reserved39)
 953:../Generated_Code/Cpu.c **** {
 1419              		.loc 1 953 0
 1420              		.cfi_startproc
 1421              		@ Stack Align: May be called with mis-aligned SP.
 1422              		@ args = 0, pretend = 0, frame = 0
 1423              		@ frame_needed = 1, uses_anonymous_args = 0
 1424              		@ link register save eliminated.
 1425 0000 6846     		mov	r0, sp
 1426              		.cfi_register 13, 0
 1427 0002 20F00701 		bic	r1, r0, #7
 1428 0006 8D46     		mov	sp, r1
 1429 0008 81B4     		push	{r0, r7}
 1430              		.cfi_def_cfa_offset 8
 1431              		.cfi_offset 13, -8
 1432              		.cfi_offset 7, -4
 1433 000a 00AF     		add	r7, sp, #0
 1434              		.cfi_def_cfa_register 7
 954:../Generated_Code/Cpu.c ****   /* This code can be changed using the CPU component property "Build Options / Unhandled int code"
 955:../Generated_Code/Cpu.c ****   PE_DEBUGHALT();
 1435              		.loc 1 955 0
 1436              	@ 955 "../Generated_Code/Cpu.c" 1
 1437 000c FFBE     		BKPT 255
 1438              	@ 0 "" 2
 956:../Generated_Code/Cpu.c **** }
 1439              		.loc 1 956 0
 1440              		.thumb
 1441 000e BD46     		mov	sp, r7
 1442              		@ sp needed
 1443 0010 81BC     		pop	{r0, r7}
 1444 0012 8546     		mov	sp, r0
 1445 0014 7047     		bx	lr
 1446              		.cfi_endproc
 1447              	.LFE36:
 1449 0016 00BF     		.section	.text.Cpu_ivINT_I2C0,"ax",%progbits
 1450              		.align	2
 1451              		.global	Cpu_ivINT_I2C0
 1452              		.thumb
 1453              		.thumb_func
 1455              	Cpu_ivINT_I2C0:
 1456              	.LFB37:
 957:../Generated_Code/Cpu.c **** 
 958:../Generated_Code/Cpu.c **** /*
 959:../Generated_Code/Cpu.c **** ** ===================================================================
 960:../Generated_Code/Cpu.c **** **     Method      :  Cpu_Cpu_ivINT_I2C0 (component MK22FN1M0LK12)
 961:../Generated_Code/Cpu.c **** **
 962:../Generated_Code/Cpu.c **** **     Description :
 963:../Generated_Code/Cpu.c **** **         This ISR services an unused interrupt/exception vector.
 964:../Generated_Code/Cpu.c **** **         This method is internal. It is used by Processor Expert only.
 965:../Generated_Code/Cpu.c **** ** ===================================================================
 966:../Generated_Code/Cpu.c **** */
 967:../Generated_Code/Cpu.c **** PE_ISR(Cpu_ivINT_I2C0)
 968:../Generated_Code/Cpu.c **** {
 1457              		.loc 1 968 0
 1458              		.cfi_startproc
 1459              		@ Stack Align: May be called with mis-aligned SP.
 1460              		@ args = 0, pretend = 0, frame = 0
 1461              		@ frame_needed = 1, uses_anonymous_args = 0
 1462              		@ link register save eliminated.
 1463 0000 6846     		mov	r0, sp
 1464              		.cfi_register 13, 0
 1465 0002 20F00701 		bic	r1, r0, #7
 1466 0006 8D46     		mov	sp, r1
 1467 0008 81B4     		push	{r0, r7}
 1468              		.cfi_def_cfa_offset 8
 1469              		.cfi_offset 13, -8
 1470              		.cfi_offset 7, -4
 1471 000a 00AF     		add	r7, sp, #0
 1472              		.cfi_def_cfa_register 7
 969:../Generated_Code/Cpu.c ****   /* This code can be changed using the CPU component property "Build Options / Unhandled int code"
 970:../Generated_Code/Cpu.c ****   PE_DEBUGHALT();
 1473              		.loc 1 970 0
 1474              	@ 970 "../Generated_Code/Cpu.c" 1
 1475 000c FFBE     		BKPT 255
 1476              	@ 0 "" 2
 971:../Generated_Code/Cpu.c **** }
 1477              		.loc 1 971 0
 1478              		.thumb
 1479 000e BD46     		mov	sp, r7
 1480              		@ sp needed
 1481 0010 81BC     		pop	{r0, r7}
 1482 0012 8546     		mov	sp, r0
 1483 0014 7047     		bx	lr
 1484              		.cfi_endproc
 1485              	.LFE37:
 1487 0016 00BF     		.section	.text.Cpu_ivINT_I2C1,"ax",%progbits
 1488              		.align	2
 1489              		.global	Cpu_ivINT_I2C1
 1490              		.thumb
 1491              		.thumb_func
 1493              	Cpu_ivINT_I2C1:
 1494              	.LFB38:
 972:../Generated_Code/Cpu.c **** 
 973:../Generated_Code/Cpu.c **** /*
 974:../Generated_Code/Cpu.c **** ** ===================================================================
 975:../Generated_Code/Cpu.c **** **     Method      :  Cpu_Cpu_ivINT_I2C1 (component MK22FN1M0LK12)
 976:../Generated_Code/Cpu.c **** **
 977:../Generated_Code/Cpu.c **** **     Description :
 978:../Generated_Code/Cpu.c **** **         This ISR services an unused interrupt/exception vector.
 979:../Generated_Code/Cpu.c **** **         This method is internal. It is used by Processor Expert only.
 980:../Generated_Code/Cpu.c **** ** ===================================================================
 981:../Generated_Code/Cpu.c **** */
 982:../Generated_Code/Cpu.c **** PE_ISR(Cpu_ivINT_I2C1)
 983:../Generated_Code/Cpu.c **** {
 1495              		.loc 1 983 0
 1496              		.cfi_startproc
 1497              		@ Stack Align: May be called with mis-aligned SP.
 1498              		@ args = 0, pretend = 0, frame = 0
 1499              		@ frame_needed = 1, uses_anonymous_args = 0
 1500              		@ link register save eliminated.
 1501 0000 6846     		mov	r0, sp
 1502              		.cfi_register 13, 0
 1503 0002 20F00701 		bic	r1, r0, #7
 1504 0006 8D46     		mov	sp, r1
 1505 0008 81B4     		push	{r0, r7}
 1506              		.cfi_def_cfa_offset 8
 1507              		.cfi_offset 13, -8
 1508              		.cfi_offset 7, -4
 1509 000a 00AF     		add	r7, sp, #0
 1510              		.cfi_def_cfa_register 7
 984:../Generated_Code/Cpu.c ****   /* This code can be changed using the CPU component property "Build Options / Unhandled int code"
 985:../Generated_Code/Cpu.c ****   PE_DEBUGHALT();
 1511              		.loc 1 985 0
 1512              	@ 985 "../Generated_Code/Cpu.c" 1
 1513 000c FFBE     		BKPT 255
 1514              	@ 0 "" 2
 986:../Generated_Code/Cpu.c **** }
 1515              		.loc 1 986 0
 1516              		.thumb
 1517 000e BD46     		mov	sp, r7
 1518              		@ sp needed
 1519 0010 81BC     		pop	{r0, r7}
 1520 0012 8546     		mov	sp, r0
 1521 0014 7047     		bx	lr
 1522              		.cfi_endproc
 1523              	.LFE38:
 1525 0016 00BF     		.section	.text.Cpu_ivINT_SPI0,"ax",%progbits
 1526              		.align	2
 1527              		.global	Cpu_ivINT_SPI0
 1528              		.thumb
 1529              		.thumb_func
 1531              	Cpu_ivINT_SPI0:
 1532              	.LFB39:
 987:../Generated_Code/Cpu.c **** 
 988:../Generated_Code/Cpu.c **** /*
 989:../Generated_Code/Cpu.c **** ** ===================================================================
 990:../Generated_Code/Cpu.c **** **     Method      :  Cpu_Cpu_ivINT_SPI0 (component MK22FN1M0LK12)
 991:../Generated_Code/Cpu.c **** **
 992:../Generated_Code/Cpu.c **** **     Description :
 993:../Generated_Code/Cpu.c **** **         This ISR services an unused interrupt/exception vector.
 994:../Generated_Code/Cpu.c **** **         This method is internal. It is used by Processor Expert only.
 995:../Generated_Code/Cpu.c **** ** ===================================================================
 996:../Generated_Code/Cpu.c **** */
 997:../Generated_Code/Cpu.c **** PE_ISR(Cpu_ivINT_SPI0)
 998:../Generated_Code/Cpu.c **** {
 1533              		.loc 1 998 0
 1534              		.cfi_startproc
 1535              		@ Stack Align: May be called with mis-aligned SP.
 1536              		@ args = 0, pretend = 0, frame = 0
 1537              		@ frame_needed = 1, uses_anonymous_args = 0
 1538              		@ link register save eliminated.
 1539 0000 6846     		mov	r0, sp
 1540              		.cfi_register 13, 0
 1541 0002 20F00701 		bic	r1, r0, #7
 1542 0006 8D46     		mov	sp, r1
 1543 0008 81B4     		push	{r0, r7}
 1544              		.cfi_def_cfa_offset 8
 1545              		.cfi_offset 13, -8
 1546              		.cfi_offset 7, -4
 1547 000a 00AF     		add	r7, sp, #0
 1548              		.cfi_def_cfa_register 7
 999:../Generated_Code/Cpu.c ****   /* This code can be changed using the CPU component property "Build Options / Unhandled int code"
1000:../Generated_Code/Cpu.c ****   PE_DEBUGHALT();
 1549              		.loc 1 1000 0
 1550              	@ 1000 "../Generated_Code/Cpu.c" 1
 1551 000c FFBE     		BKPT 255
 1552              	@ 0 "" 2
1001:../Generated_Code/Cpu.c **** }
 1553              		.loc 1 1001 0
 1554              		.thumb
 1555 000e BD46     		mov	sp, r7
 1556              		@ sp needed
 1557 0010 81BC     		pop	{r0, r7}
 1558 0012 8546     		mov	sp, r0
 1559 0014 7047     		bx	lr
 1560              		.cfi_endproc
 1561              	.LFE39:
 1563 0016 00BF     		.section	.text.Cpu_ivINT_SPI1,"ax",%progbits
 1564              		.align	2
 1565              		.global	Cpu_ivINT_SPI1
 1566              		.thumb
 1567              		.thumb_func
 1569              	Cpu_ivINT_SPI1:
 1570              	.LFB40:
1002:../Generated_Code/Cpu.c **** 
1003:../Generated_Code/Cpu.c **** /*
1004:../Generated_Code/Cpu.c **** ** ===================================================================
1005:../Generated_Code/Cpu.c **** **     Method      :  Cpu_Cpu_ivINT_SPI1 (component MK22FN1M0LK12)
1006:../Generated_Code/Cpu.c **** **
1007:../Generated_Code/Cpu.c **** **     Description :
1008:../Generated_Code/Cpu.c **** **         This ISR services an unused interrupt/exception vector.
1009:../Generated_Code/Cpu.c **** **         This method is internal. It is used by Processor Expert only.
1010:../Generated_Code/Cpu.c **** ** ===================================================================
1011:../Generated_Code/Cpu.c **** */
1012:../Generated_Code/Cpu.c **** PE_ISR(Cpu_ivINT_SPI1)
1013:../Generated_Code/Cpu.c **** {
 1571              		.loc 1 1013 0
 1572              		.cfi_startproc
 1573              		@ Stack Align: May be called with mis-aligned SP.
 1574              		@ args = 0, pretend = 0, frame = 0
 1575              		@ frame_needed = 1, uses_anonymous_args = 0
 1576              		@ link register save eliminated.
 1577 0000 6846     		mov	r0, sp
 1578              		.cfi_register 13, 0
 1579 0002 20F00701 		bic	r1, r0, #7
 1580 0006 8D46     		mov	sp, r1
 1581 0008 81B4     		push	{r0, r7}
 1582              		.cfi_def_cfa_offset 8
 1583              		.cfi_offset 13, -8
 1584              		.cfi_offset 7, -4
 1585 000a 00AF     		add	r7, sp, #0
 1586              		.cfi_def_cfa_register 7
1014:../Generated_Code/Cpu.c ****   /* This code can be changed using the CPU component property "Build Options / Unhandled int code"
1015:../Generated_Code/Cpu.c ****   PE_DEBUGHALT();
 1587              		.loc 1 1015 0
 1588              	@ 1015 "../Generated_Code/Cpu.c" 1
 1589 000c FFBE     		BKPT 255
 1590              	@ 0 "" 2
1016:../Generated_Code/Cpu.c **** }
 1591              		.loc 1 1016 0
 1592              		.thumb
 1593 000e BD46     		mov	sp, r7
 1594              		@ sp needed
 1595 0010 81BC     		pop	{r0, r7}
 1596 0012 8546     		mov	sp, r0
 1597 0014 7047     		bx	lr
 1598              		.cfi_endproc
 1599              	.LFE40:
 1601 0016 00BF     		.section	.text.Cpu_ivINT_I2S0_Tx,"ax",%progbits
 1602              		.align	2
 1603              		.global	Cpu_ivINT_I2S0_Tx
 1604              		.thumb
 1605              		.thumb_func
 1607              	Cpu_ivINT_I2S0_Tx:
 1608              	.LFB41:
1017:../Generated_Code/Cpu.c **** 
1018:../Generated_Code/Cpu.c **** /*
1019:../Generated_Code/Cpu.c **** ** ===================================================================
1020:../Generated_Code/Cpu.c **** **     Method      :  Cpu_Cpu_ivINT_I2S0_Tx (component MK22FN1M0LK12)
1021:../Generated_Code/Cpu.c **** **
1022:../Generated_Code/Cpu.c **** **     Description :
1023:../Generated_Code/Cpu.c **** **         This ISR services an unused interrupt/exception vector.
1024:../Generated_Code/Cpu.c **** **         This method is internal. It is used by Processor Expert only.
1025:../Generated_Code/Cpu.c **** ** ===================================================================
1026:../Generated_Code/Cpu.c **** */
1027:../Generated_Code/Cpu.c **** PE_ISR(Cpu_ivINT_I2S0_Tx)
1028:../Generated_Code/Cpu.c **** {
 1609              		.loc 1 1028 0
 1610              		.cfi_startproc
 1611              		@ Stack Align: May be called with mis-aligned SP.
 1612              		@ args = 0, pretend = 0, frame = 0
 1613              		@ frame_needed = 1, uses_anonymous_args = 0
 1614              		@ link register save eliminated.
 1615 0000 6846     		mov	r0, sp
 1616              		.cfi_register 13, 0
 1617 0002 20F00701 		bic	r1, r0, #7
 1618 0006 8D46     		mov	sp, r1
 1619 0008 81B4     		push	{r0, r7}
 1620              		.cfi_def_cfa_offset 8
 1621              		.cfi_offset 13, -8
 1622              		.cfi_offset 7, -4
 1623 000a 00AF     		add	r7, sp, #0
 1624              		.cfi_def_cfa_register 7
1029:../Generated_Code/Cpu.c ****   /* This code can be changed using the CPU component property "Build Options / Unhandled int code"
1030:../Generated_Code/Cpu.c ****   PE_DEBUGHALT();
 1625              		.loc 1 1030 0
 1626              	@ 1030 "../Generated_Code/Cpu.c" 1
 1627 000c FFBE     		BKPT 255
 1628              	@ 0 "" 2
1031:../Generated_Code/Cpu.c **** }
 1629              		.loc 1 1031 0
 1630              		.thumb
 1631 000e BD46     		mov	sp, r7
 1632              		@ sp needed
 1633 0010 81BC     		pop	{r0, r7}
 1634 0012 8546     		mov	sp, r0
 1635 0014 7047     		bx	lr
 1636              		.cfi_endproc
 1637              	.LFE41:
 1639 0016 00BF     		.section	.text.Cpu_ivINT_I2S0_Rx,"ax",%progbits
 1640              		.align	2
 1641              		.global	Cpu_ivINT_I2S0_Rx
 1642              		.thumb
 1643              		.thumb_func
 1645              	Cpu_ivINT_I2S0_Rx:
 1646              	.LFB42:
1032:../Generated_Code/Cpu.c **** 
1033:../Generated_Code/Cpu.c **** /*
1034:../Generated_Code/Cpu.c **** ** ===================================================================
1035:../Generated_Code/Cpu.c **** **     Method      :  Cpu_Cpu_ivINT_I2S0_Rx (component MK22FN1M0LK12)
1036:../Generated_Code/Cpu.c **** **
1037:../Generated_Code/Cpu.c **** **     Description :
1038:../Generated_Code/Cpu.c **** **         This ISR services an unused interrupt/exception vector.
1039:../Generated_Code/Cpu.c **** **         This method is internal. It is used by Processor Expert only.
1040:../Generated_Code/Cpu.c **** ** ===================================================================
1041:../Generated_Code/Cpu.c **** */
1042:../Generated_Code/Cpu.c **** PE_ISR(Cpu_ivINT_I2S0_Rx)
1043:../Generated_Code/Cpu.c **** {
 1647              		.loc 1 1043 0
 1648              		.cfi_startproc
 1649              		@ Stack Align: May be called with mis-aligned SP.
 1650              		@ args = 0, pretend = 0, frame = 0
 1651              		@ frame_needed = 1, uses_anonymous_args = 0
 1652              		@ link register save eliminated.
 1653 0000 6846     		mov	r0, sp
 1654              		.cfi_register 13, 0
 1655 0002 20F00701 		bic	r1, r0, #7
 1656 0006 8D46     		mov	sp, r1
 1657 0008 81B4     		push	{r0, r7}
 1658              		.cfi_def_cfa_offset 8
 1659              		.cfi_offset 13, -8
 1660              		.cfi_offset 7, -4
 1661 000a 00AF     		add	r7, sp, #0
 1662              		.cfi_def_cfa_register 7
1044:../Generated_Code/Cpu.c ****   /* This code can be changed using the CPU component property "Build Options / Unhandled int code"
1045:../Generated_Code/Cpu.c ****   PE_DEBUGHALT();
 1663              		.loc 1 1045 0
 1664              	@ 1045 "../Generated_Code/Cpu.c" 1
 1665 000c FFBE     		BKPT 255
 1666              	@ 0 "" 2
1046:../Generated_Code/Cpu.c **** }
 1667              		.loc 1 1046 0
 1668              		.thumb
 1669 000e BD46     		mov	sp, r7
 1670              		@ sp needed
 1671 0010 81BC     		pop	{r0, r7}
 1672 0012 8546     		mov	sp, r0
 1673 0014 7047     		bx	lr
 1674              		.cfi_endproc
 1675              	.LFE42:
 1677 0016 00BF     		.section	.text.Cpu_ivINT_Reserved46,"ax",%progbits
 1678              		.align	2
 1679              		.global	Cpu_ivINT_Reserved46
 1680              		.thumb
 1681              		.thumb_func
 1683              	Cpu_ivINT_Reserved46:
 1684              	.LFB43:
1047:../Generated_Code/Cpu.c **** 
1048:../Generated_Code/Cpu.c **** /*
1049:../Generated_Code/Cpu.c **** ** ===================================================================
1050:../Generated_Code/Cpu.c **** **     Method      :  Cpu_Cpu_ivINT_Reserved46 (component MK22FN1M0LK12)
1051:../Generated_Code/Cpu.c **** **
1052:../Generated_Code/Cpu.c **** **     Description :
1053:../Generated_Code/Cpu.c **** **         This ISR services an unused interrupt/exception vector.
1054:../Generated_Code/Cpu.c **** **         This method is internal. It is used by Processor Expert only.
1055:../Generated_Code/Cpu.c **** ** ===================================================================
1056:../Generated_Code/Cpu.c **** */
1057:../Generated_Code/Cpu.c **** PE_ISR(Cpu_ivINT_Reserved46)
1058:../Generated_Code/Cpu.c **** {
 1685              		.loc 1 1058 0
 1686              		.cfi_startproc
 1687              		@ Stack Align: May be called with mis-aligned SP.
 1688              		@ args = 0, pretend = 0, frame = 0
 1689              		@ frame_needed = 1, uses_anonymous_args = 0
 1690              		@ link register save eliminated.
 1691 0000 6846     		mov	r0, sp
 1692              		.cfi_register 13, 0
 1693 0002 20F00701 		bic	r1, r0, #7
 1694 0006 8D46     		mov	sp, r1
 1695 0008 81B4     		push	{r0, r7}
 1696              		.cfi_def_cfa_offset 8
 1697              		.cfi_offset 13, -8
 1698              		.cfi_offset 7, -4
 1699 000a 00AF     		add	r7, sp, #0
 1700              		.cfi_def_cfa_register 7
1059:../Generated_Code/Cpu.c ****   /* This code can be changed using the CPU component property "Build Options / Unhandled int code"
1060:../Generated_Code/Cpu.c ****   PE_DEBUGHALT();
 1701              		.loc 1 1060 0
 1702              	@ 1060 "../Generated_Code/Cpu.c" 1
 1703 000c FFBE     		BKPT 255
 1704              	@ 0 "" 2
1061:../Generated_Code/Cpu.c **** }
 1705              		.loc 1 1061 0
 1706              		.thumb
 1707 000e BD46     		mov	sp, r7
 1708              		@ sp needed
 1709 0010 81BC     		pop	{r0, r7}
 1710 0012 8546     		mov	sp, r0
 1711 0014 7047     		bx	lr
 1712              		.cfi_endproc
 1713              	.LFE43:
 1715 0016 00BF     		.section	.text.Cpu_ivINT_UART0_RX_TX,"ax",%progbits
 1716              		.align	2
 1717              		.global	Cpu_ivINT_UART0_RX_TX
 1718              		.thumb
 1719              		.thumb_func
 1721              	Cpu_ivINT_UART0_RX_TX:
 1722              	.LFB44:
1062:../Generated_Code/Cpu.c **** 
1063:../Generated_Code/Cpu.c **** /*
1064:../Generated_Code/Cpu.c **** ** ===================================================================
1065:../Generated_Code/Cpu.c **** **     Method      :  Cpu_Cpu_ivINT_UART0_RX_TX (component MK22FN1M0LK12)
1066:../Generated_Code/Cpu.c **** **
1067:../Generated_Code/Cpu.c **** **     Description :
1068:../Generated_Code/Cpu.c **** **         This ISR services an unused interrupt/exception vector.
1069:../Generated_Code/Cpu.c **** **         This method is internal. It is used by Processor Expert only.
1070:../Generated_Code/Cpu.c **** ** ===================================================================
1071:../Generated_Code/Cpu.c **** */
1072:../Generated_Code/Cpu.c **** PE_ISR(Cpu_ivINT_UART0_RX_TX)
1073:../Generated_Code/Cpu.c **** {
 1723              		.loc 1 1073 0
 1724              		.cfi_startproc
 1725              		@ Stack Align: May be called with mis-aligned SP.
 1726              		@ args = 0, pretend = 0, frame = 0
 1727              		@ frame_needed = 1, uses_anonymous_args = 0
 1728              		@ link register save eliminated.
 1729 0000 6846     		mov	r0, sp
 1730              		.cfi_register 13, 0
 1731 0002 20F00701 		bic	r1, r0, #7
 1732 0006 8D46     		mov	sp, r1
 1733 0008 81B4     		push	{r0, r7}
 1734              		.cfi_def_cfa_offset 8
 1735              		.cfi_offset 13, -8
 1736              		.cfi_offset 7, -4
 1737 000a 00AF     		add	r7, sp, #0
 1738              		.cfi_def_cfa_register 7
1074:../Generated_Code/Cpu.c ****   /* This code can be changed using the CPU component property "Build Options / Unhandled int code"
1075:../Generated_Code/Cpu.c ****   PE_DEBUGHALT();
 1739              		.loc 1 1075 0
 1740              	@ 1075 "../Generated_Code/Cpu.c" 1
 1741 000c FFBE     		BKPT 255
 1742              	@ 0 "" 2
1076:../Generated_Code/Cpu.c **** }
 1743              		.loc 1 1076 0
 1744              		.thumb
 1745 000e BD46     		mov	sp, r7
 1746              		@ sp needed
 1747 0010 81BC     		pop	{r0, r7}
 1748 0012 8546     		mov	sp, r0
 1749 0014 7047     		bx	lr
 1750              		.cfi_endproc
 1751              	.LFE44:
 1753 0016 00BF     		.section	.text.Cpu_ivINT_UART0_ERR,"ax",%progbits
 1754              		.align	2
 1755              		.global	Cpu_ivINT_UART0_ERR
 1756              		.thumb
 1757              		.thumb_func
 1759              	Cpu_ivINT_UART0_ERR:
 1760              	.LFB45:
1077:../Generated_Code/Cpu.c **** 
1078:../Generated_Code/Cpu.c **** /*
1079:../Generated_Code/Cpu.c **** ** ===================================================================
1080:../Generated_Code/Cpu.c **** **     Method      :  Cpu_Cpu_ivINT_UART0_ERR (component MK22FN1M0LK12)
1081:../Generated_Code/Cpu.c **** **
1082:../Generated_Code/Cpu.c **** **     Description :
1083:../Generated_Code/Cpu.c **** **         This ISR services an unused interrupt/exception vector.
1084:../Generated_Code/Cpu.c **** **         This method is internal. It is used by Processor Expert only.
1085:../Generated_Code/Cpu.c **** ** ===================================================================
1086:../Generated_Code/Cpu.c **** */
1087:../Generated_Code/Cpu.c **** PE_ISR(Cpu_ivINT_UART0_ERR)
1088:../Generated_Code/Cpu.c **** {
 1761              		.loc 1 1088 0
 1762              		.cfi_startproc
 1763              		@ Stack Align: May be called with mis-aligned SP.
 1764              		@ args = 0, pretend = 0, frame = 0
 1765              		@ frame_needed = 1, uses_anonymous_args = 0
 1766              		@ link register save eliminated.
 1767 0000 6846     		mov	r0, sp
 1768              		.cfi_register 13, 0
 1769 0002 20F00701 		bic	r1, r0, #7
 1770 0006 8D46     		mov	sp, r1
 1771 0008 81B4     		push	{r0, r7}
 1772              		.cfi_def_cfa_offset 8
 1773              		.cfi_offset 13, -8
 1774              		.cfi_offset 7, -4
 1775 000a 00AF     		add	r7, sp, #0
 1776              		.cfi_def_cfa_register 7
1089:../Generated_Code/Cpu.c ****   /* This code can be changed using the CPU component property "Build Options / Unhandled int code"
1090:../Generated_Code/Cpu.c ****   PE_DEBUGHALT();
 1777              		.loc 1 1090 0
 1778              	@ 1090 "../Generated_Code/Cpu.c" 1
 1779 000c FFBE     		BKPT 255
 1780              	@ 0 "" 2
1091:../Generated_Code/Cpu.c **** }
 1781              		.loc 1 1091 0
 1782              		.thumb
 1783 000e BD46     		mov	sp, r7
 1784              		@ sp needed
 1785 0010 81BC     		pop	{r0, r7}
 1786 0012 8546     		mov	sp, r0
 1787 0014 7047     		bx	lr
 1788              		.cfi_endproc
 1789              	.LFE45:
 1791 0016 00BF     		.section	.text.Cpu_ivINT_UART1_RX_TX,"ax",%progbits
 1792              		.align	2
 1793              		.global	Cpu_ivINT_UART1_RX_TX
 1794              		.thumb
 1795              		.thumb_func
 1797              	Cpu_ivINT_UART1_RX_TX:
 1798              	.LFB46:
1092:../Generated_Code/Cpu.c **** 
1093:../Generated_Code/Cpu.c **** /*
1094:../Generated_Code/Cpu.c **** ** ===================================================================
1095:../Generated_Code/Cpu.c **** **     Method      :  Cpu_Cpu_ivINT_UART1_RX_TX (component MK22FN1M0LK12)
1096:../Generated_Code/Cpu.c **** **
1097:../Generated_Code/Cpu.c **** **     Description :
1098:../Generated_Code/Cpu.c **** **         This ISR services an unused interrupt/exception vector.
1099:../Generated_Code/Cpu.c **** **         This method is internal. It is used by Processor Expert only.
1100:../Generated_Code/Cpu.c **** ** ===================================================================
1101:../Generated_Code/Cpu.c **** */
1102:../Generated_Code/Cpu.c **** PE_ISR(Cpu_ivINT_UART1_RX_TX)
1103:../Generated_Code/Cpu.c **** {
 1799              		.loc 1 1103 0
 1800              		.cfi_startproc
 1801              		@ Stack Align: May be called with mis-aligned SP.
 1802              		@ args = 0, pretend = 0, frame = 0
 1803              		@ frame_needed = 1, uses_anonymous_args = 0
 1804              		@ link register save eliminated.
 1805 0000 6846     		mov	r0, sp
 1806              		.cfi_register 13, 0
 1807 0002 20F00701 		bic	r1, r0, #7
 1808 0006 8D46     		mov	sp, r1
 1809 0008 81B4     		push	{r0, r7}
 1810              		.cfi_def_cfa_offset 8
 1811              		.cfi_offset 13, -8
 1812              		.cfi_offset 7, -4
 1813 000a 00AF     		add	r7, sp, #0
 1814              		.cfi_def_cfa_register 7
1104:../Generated_Code/Cpu.c ****   /* This code can be changed using the CPU component property "Build Options / Unhandled int code"
1105:../Generated_Code/Cpu.c ****   PE_DEBUGHALT();
 1815              		.loc 1 1105 0
 1816              	@ 1105 "../Generated_Code/Cpu.c" 1
 1817 000c FFBE     		BKPT 255
 1818              	@ 0 "" 2
1106:../Generated_Code/Cpu.c **** }
 1819              		.loc 1 1106 0
 1820              		.thumb
 1821 000e BD46     		mov	sp, r7
 1822              		@ sp needed
 1823 0010 81BC     		pop	{r0, r7}
 1824 0012 8546     		mov	sp, r0
 1825 0014 7047     		bx	lr
 1826              		.cfi_endproc
 1827              	.LFE46:
 1829 0016 00BF     		.section	.text.Cpu_ivINT_UART1_ERR,"ax",%progbits
 1830              		.align	2
 1831              		.global	Cpu_ivINT_UART1_ERR
 1832              		.thumb
 1833              		.thumb_func
 1835              	Cpu_ivINT_UART1_ERR:
 1836              	.LFB47:
1107:../Generated_Code/Cpu.c **** 
1108:../Generated_Code/Cpu.c **** /*
1109:../Generated_Code/Cpu.c **** ** ===================================================================
1110:../Generated_Code/Cpu.c **** **     Method      :  Cpu_Cpu_ivINT_UART1_ERR (component MK22FN1M0LK12)
1111:../Generated_Code/Cpu.c **** **
1112:../Generated_Code/Cpu.c **** **     Description :
1113:../Generated_Code/Cpu.c **** **         This ISR services an unused interrupt/exception vector.
1114:../Generated_Code/Cpu.c **** **         This method is internal. It is used by Processor Expert only.
1115:../Generated_Code/Cpu.c **** ** ===================================================================
1116:../Generated_Code/Cpu.c **** */
1117:../Generated_Code/Cpu.c **** PE_ISR(Cpu_ivINT_UART1_ERR)
1118:../Generated_Code/Cpu.c **** {
 1837              		.loc 1 1118 0
 1838              		.cfi_startproc
 1839              		@ Stack Align: May be called with mis-aligned SP.
 1840              		@ args = 0, pretend = 0, frame = 0
 1841              		@ frame_needed = 1, uses_anonymous_args = 0
 1842              		@ link register save eliminated.
 1843 0000 6846     		mov	r0, sp
 1844              		.cfi_register 13, 0
 1845 0002 20F00701 		bic	r1, r0, #7
 1846 0006 8D46     		mov	sp, r1
 1847 0008 81B4     		push	{r0, r7}
 1848              		.cfi_def_cfa_offset 8
 1849              		.cfi_offset 13, -8
 1850              		.cfi_offset 7, -4
 1851 000a 00AF     		add	r7, sp, #0
 1852              		.cfi_def_cfa_register 7
1119:../Generated_Code/Cpu.c ****   /* This code can be changed using the CPU component property "Build Options / Unhandled int code"
1120:../Generated_Code/Cpu.c ****   PE_DEBUGHALT();
 1853              		.loc 1 1120 0
 1854              	@ 1120 "../Generated_Code/Cpu.c" 1
 1855 000c FFBE     		BKPT 255
 1856              	@ 0 "" 2
1121:../Generated_Code/Cpu.c **** }
 1857              		.loc 1 1121 0
 1858              		.thumb
 1859 000e BD46     		mov	sp, r7
 1860              		@ sp needed
 1861 0010 81BC     		pop	{r0, r7}
 1862 0012 8546     		mov	sp, r0
 1863 0014 7047     		bx	lr
 1864              		.cfi_endproc
 1865              	.LFE47:
 1867 0016 00BF     		.section	.text.Cpu_ivINT_UART2_RX_TX,"ax",%progbits
 1868              		.align	2
 1869              		.global	Cpu_ivINT_UART2_RX_TX
 1870              		.thumb
 1871              		.thumb_func
 1873              	Cpu_ivINT_UART2_RX_TX:
 1874              	.LFB48:
1122:../Generated_Code/Cpu.c **** 
1123:../Generated_Code/Cpu.c **** /*
1124:../Generated_Code/Cpu.c **** ** ===================================================================
1125:../Generated_Code/Cpu.c **** **     Method      :  Cpu_Cpu_ivINT_UART2_RX_TX (component MK22FN1M0LK12)
1126:../Generated_Code/Cpu.c **** **
1127:../Generated_Code/Cpu.c **** **     Description :
1128:../Generated_Code/Cpu.c **** **         This ISR services an unused interrupt/exception vector.
1129:../Generated_Code/Cpu.c **** **         This method is internal. It is used by Processor Expert only.
1130:../Generated_Code/Cpu.c **** ** ===================================================================
1131:../Generated_Code/Cpu.c **** */
1132:../Generated_Code/Cpu.c **** PE_ISR(Cpu_ivINT_UART2_RX_TX)
1133:../Generated_Code/Cpu.c **** {
 1875              		.loc 1 1133 0
 1876              		.cfi_startproc
 1877              		@ Stack Align: May be called with mis-aligned SP.
 1878              		@ args = 0, pretend = 0, frame = 0
 1879              		@ frame_needed = 1, uses_anonymous_args = 0
 1880              		@ link register save eliminated.
 1881 0000 6846     		mov	r0, sp
 1882              		.cfi_register 13, 0
 1883 0002 20F00701 		bic	r1, r0, #7
 1884 0006 8D46     		mov	sp, r1
 1885 0008 81B4     		push	{r0, r7}
 1886              		.cfi_def_cfa_offset 8
 1887              		.cfi_offset 13, -8
 1888              		.cfi_offset 7, -4
 1889 000a 00AF     		add	r7, sp, #0
 1890              		.cfi_def_cfa_register 7
1134:../Generated_Code/Cpu.c ****   /* This code can be changed using the CPU component property "Build Options / Unhandled int code"
1135:../Generated_Code/Cpu.c ****   PE_DEBUGHALT();
 1891              		.loc 1 1135 0
 1892              	@ 1135 "../Generated_Code/Cpu.c" 1
 1893 000c FFBE     		BKPT 255
 1894              	@ 0 "" 2
1136:../Generated_Code/Cpu.c **** }
 1895              		.loc 1 1136 0
 1896              		.thumb
 1897 000e BD46     		mov	sp, r7
 1898              		@ sp needed
 1899 0010 81BC     		pop	{r0, r7}
 1900 0012 8546     		mov	sp, r0
 1901 0014 7047     		bx	lr
 1902              		.cfi_endproc
 1903              	.LFE48:
 1905 0016 00BF     		.section	.text.Cpu_ivINT_UART2_ERR,"ax",%progbits
 1906              		.align	2
 1907              		.global	Cpu_ivINT_UART2_ERR
 1908              		.thumb
 1909              		.thumb_func
 1911              	Cpu_ivINT_UART2_ERR:
 1912              	.LFB49:
1137:../Generated_Code/Cpu.c **** 
1138:../Generated_Code/Cpu.c **** /*
1139:../Generated_Code/Cpu.c **** ** ===================================================================
1140:../Generated_Code/Cpu.c **** **     Method      :  Cpu_Cpu_ivINT_UART2_ERR (component MK22FN1M0LK12)
1141:../Generated_Code/Cpu.c **** **
1142:../Generated_Code/Cpu.c **** **     Description :
1143:../Generated_Code/Cpu.c **** **         This ISR services an unused interrupt/exception vector.
1144:../Generated_Code/Cpu.c **** **         This method is internal. It is used by Processor Expert only.
1145:../Generated_Code/Cpu.c **** ** ===================================================================
1146:../Generated_Code/Cpu.c **** */
1147:../Generated_Code/Cpu.c **** PE_ISR(Cpu_ivINT_UART2_ERR)
1148:../Generated_Code/Cpu.c **** {
 1913              		.loc 1 1148 0
 1914              		.cfi_startproc
 1915              		@ Stack Align: May be called with mis-aligned SP.
 1916              		@ args = 0, pretend = 0, frame = 0
 1917              		@ frame_needed = 1, uses_anonymous_args = 0
 1918              		@ link register save eliminated.
 1919 0000 6846     		mov	r0, sp
 1920              		.cfi_register 13, 0
 1921 0002 20F00701 		bic	r1, r0, #7
 1922 0006 8D46     		mov	sp, r1
 1923 0008 81B4     		push	{r0, r7}
 1924              		.cfi_def_cfa_offset 8
 1925              		.cfi_offset 13, -8
 1926              		.cfi_offset 7, -4
 1927 000a 00AF     		add	r7, sp, #0
 1928              		.cfi_def_cfa_register 7
1149:../Generated_Code/Cpu.c ****   /* This code can be changed using the CPU component property "Build Options / Unhandled int code"
1150:../Generated_Code/Cpu.c ****   PE_DEBUGHALT();
 1929              		.loc 1 1150 0
 1930              	@ 1150 "../Generated_Code/Cpu.c" 1
 1931 000c FFBE     		BKPT 255
 1932              	@ 0 "" 2
1151:../Generated_Code/Cpu.c **** }
 1933              		.loc 1 1151 0
 1934              		.thumb
 1935 000e BD46     		mov	sp, r7
 1936              		@ sp needed
 1937 0010 81BC     		pop	{r0, r7}
 1938 0012 8546     		mov	sp, r0
 1939 0014 7047     		bx	lr
 1940              		.cfi_endproc
 1941              	.LFE49:
 1943 0016 00BF     		.section	.text.Cpu_ivINT_UART3_RX_TX,"ax",%progbits
 1944              		.align	2
 1945              		.global	Cpu_ivINT_UART3_RX_TX
 1946              		.thumb
 1947              		.thumb_func
 1949              	Cpu_ivINT_UART3_RX_TX:
 1950              	.LFB50:
1152:../Generated_Code/Cpu.c **** 
1153:../Generated_Code/Cpu.c **** /*
1154:../Generated_Code/Cpu.c **** ** ===================================================================
1155:../Generated_Code/Cpu.c **** **     Method      :  Cpu_Cpu_ivINT_UART3_RX_TX (component MK22FN1M0LK12)
1156:../Generated_Code/Cpu.c **** **
1157:../Generated_Code/Cpu.c **** **     Description :
1158:../Generated_Code/Cpu.c **** **         This ISR services an unused interrupt/exception vector.
1159:../Generated_Code/Cpu.c **** **         This method is internal. It is used by Processor Expert only.
1160:../Generated_Code/Cpu.c **** ** ===================================================================
1161:../Generated_Code/Cpu.c **** */
1162:../Generated_Code/Cpu.c **** PE_ISR(Cpu_ivINT_UART3_RX_TX)
1163:../Generated_Code/Cpu.c **** {
 1951              		.loc 1 1163 0
 1952              		.cfi_startproc
 1953              		@ Stack Align: May be called with mis-aligned SP.
 1954              		@ args = 0, pretend = 0, frame = 0
 1955              		@ frame_needed = 1, uses_anonymous_args = 0
 1956              		@ link register save eliminated.
 1957 0000 6846     		mov	r0, sp
 1958              		.cfi_register 13, 0
 1959 0002 20F00701 		bic	r1, r0, #7
 1960 0006 8D46     		mov	sp, r1
 1961 0008 81B4     		push	{r0, r7}
 1962              		.cfi_def_cfa_offset 8
 1963              		.cfi_offset 13, -8
 1964              		.cfi_offset 7, -4
 1965 000a 00AF     		add	r7, sp, #0
 1966              		.cfi_def_cfa_register 7
1164:../Generated_Code/Cpu.c ****   /* This code can be changed using the CPU component property "Build Options / Unhandled int code"
1165:../Generated_Code/Cpu.c ****   PE_DEBUGHALT();
 1967              		.loc 1 1165 0
 1968              	@ 1165 "../Generated_Code/Cpu.c" 1
 1969 000c FFBE     		BKPT 255
 1970              	@ 0 "" 2
1166:../Generated_Code/Cpu.c **** }
 1971              		.loc 1 1166 0
 1972              		.thumb
 1973 000e BD46     		mov	sp, r7
 1974              		@ sp needed
 1975 0010 81BC     		pop	{r0, r7}
 1976 0012 8546     		mov	sp, r0
 1977 0014 7047     		bx	lr
 1978              		.cfi_endproc
 1979              	.LFE50:
 1981 0016 00BF     		.section	.text.Cpu_ivINT_UART3_ERR,"ax",%progbits
 1982              		.align	2
 1983              		.global	Cpu_ivINT_UART3_ERR
 1984              		.thumb
 1985              		.thumb_func
 1987              	Cpu_ivINT_UART3_ERR:
 1988              	.LFB51:
1167:../Generated_Code/Cpu.c **** 
1168:../Generated_Code/Cpu.c **** /*
1169:../Generated_Code/Cpu.c **** ** ===================================================================
1170:../Generated_Code/Cpu.c **** **     Method      :  Cpu_Cpu_ivINT_UART3_ERR (component MK22FN1M0LK12)
1171:../Generated_Code/Cpu.c **** **
1172:../Generated_Code/Cpu.c **** **     Description :
1173:../Generated_Code/Cpu.c **** **         This ISR services an unused interrupt/exception vector.
1174:../Generated_Code/Cpu.c **** **         This method is internal. It is used by Processor Expert only.
1175:../Generated_Code/Cpu.c **** ** ===================================================================
1176:../Generated_Code/Cpu.c **** */
1177:../Generated_Code/Cpu.c **** PE_ISR(Cpu_ivINT_UART3_ERR)
1178:../Generated_Code/Cpu.c **** {
 1989              		.loc 1 1178 0
 1990              		.cfi_startproc
 1991              		@ Stack Align: May be called with mis-aligned SP.
 1992              		@ args = 0, pretend = 0, frame = 0
 1993              		@ frame_needed = 1, uses_anonymous_args = 0
 1994              		@ link register save eliminated.
 1995 0000 6846     		mov	r0, sp
 1996              		.cfi_register 13, 0
 1997 0002 20F00701 		bic	r1, r0, #7
 1998 0006 8D46     		mov	sp, r1
 1999 0008 81B4     		push	{r0, r7}
 2000              		.cfi_def_cfa_offset 8
 2001              		.cfi_offset 13, -8
 2002              		.cfi_offset 7, -4
 2003 000a 00AF     		add	r7, sp, #0
 2004              		.cfi_def_cfa_register 7
1179:../Generated_Code/Cpu.c ****   /* This code can be changed using the CPU component property "Build Options / Unhandled int code"
1180:../Generated_Code/Cpu.c ****   PE_DEBUGHALT();
 2005              		.loc 1 1180 0
 2006              	@ 1180 "../Generated_Code/Cpu.c" 1
 2007 000c FFBE     		BKPT 255
 2008              	@ 0 "" 2
1181:../Generated_Code/Cpu.c **** }
 2009              		.loc 1 1181 0
 2010              		.thumb
 2011 000e BD46     		mov	sp, r7
 2012              		@ sp needed
 2013 0010 81BC     		pop	{r0, r7}
 2014 0012 8546     		mov	sp, r0
 2015 0014 7047     		bx	lr
 2016              		.cfi_endproc
 2017              	.LFE51:
 2019 0016 00BF     		.section	.text.Cpu_ivINT_ADC0,"ax",%progbits
 2020              		.align	2
 2021              		.global	Cpu_ivINT_ADC0
 2022              		.thumb
 2023              		.thumb_func
 2025              	Cpu_ivINT_ADC0:
 2026              	.LFB52:
1182:../Generated_Code/Cpu.c **** 
1183:../Generated_Code/Cpu.c **** /*
1184:../Generated_Code/Cpu.c **** ** ===================================================================
1185:../Generated_Code/Cpu.c **** **     Method      :  Cpu_Cpu_ivINT_ADC0 (component MK22FN1M0LK12)
1186:../Generated_Code/Cpu.c **** **
1187:../Generated_Code/Cpu.c **** **     Description :
1188:../Generated_Code/Cpu.c **** **         This ISR services an unused interrupt/exception vector.
1189:../Generated_Code/Cpu.c **** **         This method is internal. It is used by Processor Expert only.
1190:../Generated_Code/Cpu.c **** ** ===================================================================
1191:../Generated_Code/Cpu.c **** */
1192:../Generated_Code/Cpu.c **** PE_ISR(Cpu_ivINT_ADC0)
1193:../Generated_Code/Cpu.c **** {
 2027              		.loc 1 1193 0
 2028              		.cfi_startproc
 2029              		@ Stack Align: May be called with mis-aligned SP.
 2030              		@ args = 0, pretend = 0, frame = 0
 2031              		@ frame_needed = 1, uses_anonymous_args = 0
 2032              		@ link register save eliminated.
 2033 0000 6846     		mov	r0, sp
 2034              		.cfi_register 13, 0
 2035 0002 20F00701 		bic	r1, r0, #7
 2036 0006 8D46     		mov	sp, r1
 2037 0008 81B4     		push	{r0, r7}
 2038              		.cfi_def_cfa_offset 8
 2039              		.cfi_offset 13, -8
 2040              		.cfi_offset 7, -4
 2041 000a 00AF     		add	r7, sp, #0
 2042              		.cfi_def_cfa_register 7
1194:../Generated_Code/Cpu.c ****   /* This code can be changed using the CPU component property "Build Options / Unhandled int code"
1195:../Generated_Code/Cpu.c ****   PE_DEBUGHALT();
 2043              		.loc 1 1195 0
 2044              	@ 1195 "../Generated_Code/Cpu.c" 1
 2045 000c FFBE     		BKPT 255
 2046              	@ 0 "" 2
1196:../Generated_Code/Cpu.c **** }
 2047              		.loc 1 1196 0
 2048              		.thumb
 2049 000e BD46     		mov	sp, r7
 2050              		@ sp needed
 2051 0010 81BC     		pop	{r0, r7}
 2052 0012 8546     		mov	sp, r0
 2053 0014 7047     		bx	lr
 2054              		.cfi_endproc
 2055              	.LFE52:
 2057 0016 00BF     		.section	.text.Cpu_ivINT_CMP0,"ax",%progbits
 2058              		.align	2
 2059              		.global	Cpu_ivINT_CMP0
 2060              		.thumb
 2061              		.thumb_func
 2063              	Cpu_ivINT_CMP0:
 2064              	.LFB53:
1197:../Generated_Code/Cpu.c **** 
1198:../Generated_Code/Cpu.c **** /*
1199:../Generated_Code/Cpu.c **** ** ===================================================================
1200:../Generated_Code/Cpu.c **** **     Method      :  Cpu_Cpu_ivINT_CMP0 (component MK22FN1M0LK12)
1201:../Generated_Code/Cpu.c **** **
1202:../Generated_Code/Cpu.c **** **     Description :
1203:../Generated_Code/Cpu.c **** **         This ISR services an unused interrupt/exception vector.
1204:../Generated_Code/Cpu.c **** **         This method is internal. It is used by Processor Expert only.
1205:../Generated_Code/Cpu.c **** ** ===================================================================
1206:../Generated_Code/Cpu.c **** */
1207:../Generated_Code/Cpu.c **** PE_ISR(Cpu_ivINT_CMP0)
1208:../Generated_Code/Cpu.c **** {
 2065              		.loc 1 1208 0
 2066              		.cfi_startproc
 2067              		@ Stack Align: May be called with mis-aligned SP.
 2068              		@ args = 0, pretend = 0, frame = 0
 2069              		@ frame_needed = 1, uses_anonymous_args = 0
 2070              		@ link register save eliminated.
 2071 0000 6846     		mov	r0, sp
 2072              		.cfi_register 13, 0
 2073 0002 20F00701 		bic	r1, r0, #7
 2074 0006 8D46     		mov	sp, r1
 2075 0008 81B4     		push	{r0, r7}
 2076              		.cfi_def_cfa_offset 8
 2077              		.cfi_offset 13, -8
 2078              		.cfi_offset 7, -4
 2079 000a 00AF     		add	r7, sp, #0
 2080              		.cfi_def_cfa_register 7
1209:../Generated_Code/Cpu.c ****   /* This code can be changed using the CPU component property "Build Options / Unhandled int code"
1210:../Generated_Code/Cpu.c ****   PE_DEBUGHALT();
 2081              		.loc 1 1210 0
 2082              	@ 1210 "../Generated_Code/Cpu.c" 1
 2083 000c FFBE     		BKPT 255
 2084              	@ 0 "" 2
1211:../Generated_Code/Cpu.c **** }
 2085              		.loc 1 1211 0
 2086              		.thumb
 2087 000e BD46     		mov	sp, r7
 2088              		@ sp needed
 2089 0010 81BC     		pop	{r0, r7}
 2090 0012 8546     		mov	sp, r0
 2091 0014 7047     		bx	lr
 2092              		.cfi_endproc
 2093              	.LFE53:
 2095 0016 00BF     		.section	.text.Cpu_ivINT_CMP1,"ax",%progbits
 2096              		.align	2
 2097              		.global	Cpu_ivINT_CMP1
 2098              		.thumb
 2099              		.thumb_func
 2101              	Cpu_ivINT_CMP1:
 2102              	.LFB54:
1212:../Generated_Code/Cpu.c **** 
1213:../Generated_Code/Cpu.c **** /*
1214:../Generated_Code/Cpu.c **** ** ===================================================================
1215:../Generated_Code/Cpu.c **** **     Method      :  Cpu_Cpu_ivINT_CMP1 (component MK22FN1M0LK12)
1216:../Generated_Code/Cpu.c **** **
1217:../Generated_Code/Cpu.c **** **     Description :
1218:../Generated_Code/Cpu.c **** **         This ISR services an unused interrupt/exception vector.
1219:../Generated_Code/Cpu.c **** **         This method is internal. It is used by Processor Expert only.
1220:../Generated_Code/Cpu.c **** ** ===================================================================
1221:../Generated_Code/Cpu.c **** */
1222:../Generated_Code/Cpu.c **** PE_ISR(Cpu_ivINT_CMP1)
1223:../Generated_Code/Cpu.c **** {
 2103              		.loc 1 1223 0
 2104              		.cfi_startproc
 2105              		@ Stack Align: May be called with mis-aligned SP.
 2106              		@ args = 0, pretend = 0, frame = 0
 2107              		@ frame_needed = 1, uses_anonymous_args = 0
 2108              		@ link register save eliminated.
 2109 0000 6846     		mov	r0, sp
 2110              		.cfi_register 13, 0
 2111 0002 20F00701 		bic	r1, r0, #7
 2112 0006 8D46     		mov	sp, r1
 2113 0008 81B4     		push	{r0, r7}
 2114              		.cfi_def_cfa_offset 8
 2115              		.cfi_offset 13, -8
 2116              		.cfi_offset 7, -4
 2117 000a 00AF     		add	r7, sp, #0
 2118              		.cfi_def_cfa_register 7
1224:../Generated_Code/Cpu.c ****   /* This code can be changed using the CPU component property "Build Options / Unhandled int code"
1225:../Generated_Code/Cpu.c ****   PE_DEBUGHALT();
 2119              		.loc 1 1225 0
 2120              	@ 1225 "../Generated_Code/Cpu.c" 1
 2121 000c FFBE     		BKPT 255
 2122              	@ 0 "" 2
1226:../Generated_Code/Cpu.c **** }
 2123              		.loc 1 1226 0
 2124              		.thumb
 2125 000e BD46     		mov	sp, r7
 2126              		@ sp needed
 2127 0010 81BC     		pop	{r0, r7}
 2128 0012 8546     		mov	sp, r0
 2129 0014 7047     		bx	lr
 2130              		.cfi_endproc
 2131              	.LFE54:
 2133 0016 00BF     		.section	.text.Cpu_ivINT_FTM0,"ax",%progbits
 2134              		.align	2
 2135              		.global	Cpu_ivINT_FTM0
 2136              		.thumb
 2137              		.thumb_func
 2139              	Cpu_ivINT_FTM0:
 2140              	.LFB55:
1227:../Generated_Code/Cpu.c **** 
1228:../Generated_Code/Cpu.c **** /*
1229:../Generated_Code/Cpu.c **** ** ===================================================================
1230:../Generated_Code/Cpu.c **** **     Method      :  Cpu_Cpu_ivINT_FTM0 (component MK22FN1M0LK12)
1231:../Generated_Code/Cpu.c **** **
1232:../Generated_Code/Cpu.c **** **     Description :
1233:../Generated_Code/Cpu.c **** **         This ISR services an unused interrupt/exception vector.
1234:../Generated_Code/Cpu.c **** **         This method is internal. It is used by Processor Expert only.
1235:../Generated_Code/Cpu.c **** ** ===================================================================
1236:../Generated_Code/Cpu.c **** */
1237:../Generated_Code/Cpu.c **** PE_ISR(Cpu_ivINT_FTM0)
1238:../Generated_Code/Cpu.c **** {
 2141              		.loc 1 1238 0
 2142              		.cfi_startproc
 2143              		@ Stack Align: May be called with mis-aligned SP.
 2144              		@ args = 0, pretend = 0, frame = 0
 2145              		@ frame_needed = 1, uses_anonymous_args = 0
 2146              		@ link register save eliminated.
 2147 0000 6846     		mov	r0, sp
 2148              		.cfi_register 13, 0
 2149 0002 20F00701 		bic	r1, r0, #7
 2150 0006 8D46     		mov	sp, r1
 2151 0008 81B4     		push	{r0, r7}
 2152              		.cfi_def_cfa_offset 8
 2153              		.cfi_offset 13, -8
 2154              		.cfi_offset 7, -4
 2155 000a 00AF     		add	r7, sp, #0
 2156              		.cfi_def_cfa_register 7
1239:../Generated_Code/Cpu.c ****   /* This code can be changed using the CPU component property "Build Options / Unhandled int code"
1240:../Generated_Code/Cpu.c ****   PE_DEBUGHALT();
 2157              		.loc 1 1240 0
 2158              	@ 1240 "../Generated_Code/Cpu.c" 1
 2159 000c FFBE     		BKPT 255
 2160              	@ 0 "" 2
1241:../Generated_Code/Cpu.c **** }
 2161              		.loc 1 1241 0
 2162              		.thumb
 2163 000e BD46     		mov	sp, r7
 2164              		@ sp needed
 2165 0010 81BC     		pop	{r0, r7}
 2166 0012 8546     		mov	sp, r0
 2167 0014 7047     		bx	lr
 2168              		.cfi_endproc
 2169              	.LFE55:
 2171 0016 00BF     		.section	.text.Cpu_ivINT_FTM1,"ax",%progbits
 2172              		.align	2
 2173              		.global	Cpu_ivINT_FTM1
 2174              		.thumb
 2175              		.thumb_func
 2177              	Cpu_ivINT_FTM1:
 2178              	.LFB56:
1242:../Generated_Code/Cpu.c **** 
1243:../Generated_Code/Cpu.c **** /*
1244:../Generated_Code/Cpu.c **** ** ===================================================================
1245:../Generated_Code/Cpu.c **** **     Method      :  Cpu_Cpu_ivINT_FTM1 (component MK22FN1M0LK12)
1246:../Generated_Code/Cpu.c **** **
1247:../Generated_Code/Cpu.c **** **     Description :
1248:../Generated_Code/Cpu.c **** **         This ISR services an unused interrupt/exception vector.
1249:../Generated_Code/Cpu.c **** **         This method is internal. It is used by Processor Expert only.
1250:../Generated_Code/Cpu.c **** ** ===================================================================
1251:../Generated_Code/Cpu.c **** */
1252:../Generated_Code/Cpu.c **** PE_ISR(Cpu_ivINT_FTM1)
1253:../Generated_Code/Cpu.c **** {
 2179              		.loc 1 1253 0
 2180              		.cfi_startproc
 2181              		@ Stack Align: May be called with mis-aligned SP.
 2182              		@ args = 0, pretend = 0, frame = 0
 2183              		@ frame_needed = 1, uses_anonymous_args = 0
 2184              		@ link register save eliminated.
 2185 0000 6846     		mov	r0, sp
 2186              		.cfi_register 13, 0
 2187 0002 20F00701 		bic	r1, r0, #7
 2188 0006 8D46     		mov	sp, r1
 2189 0008 81B4     		push	{r0, r7}
 2190              		.cfi_def_cfa_offset 8
 2191              		.cfi_offset 13, -8
 2192              		.cfi_offset 7, -4
 2193 000a 00AF     		add	r7, sp, #0
 2194              		.cfi_def_cfa_register 7
1254:../Generated_Code/Cpu.c ****   /* This code can be changed using the CPU component property "Build Options / Unhandled int code"
1255:../Generated_Code/Cpu.c ****   PE_DEBUGHALT();
 2195              		.loc 1 1255 0
 2196              	@ 1255 "../Generated_Code/Cpu.c" 1
 2197 000c FFBE     		BKPT 255
 2198              	@ 0 "" 2
1256:../Generated_Code/Cpu.c **** }
 2199              		.loc 1 1256 0
 2200              		.thumb
 2201 000e BD46     		mov	sp, r7
 2202              		@ sp needed
 2203 0010 81BC     		pop	{r0, r7}
 2204 0012 8546     		mov	sp, r0
 2205 0014 7047     		bx	lr
 2206              		.cfi_endproc
 2207              	.LFE56:
 2209 0016 00BF     		.section	.text.Cpu_ivINT_FTM2,"ax",%progbits
 2210              		.align	2
 2211              		.global	Cpu_ivINT_FTM2
 2212              		.thumb
 2213              		.thumb_func
 2215              	Cpu_ivINT_FTM2:
 2216              	.LFB57:
1257:../Generated_Code/Cpu.c **** 
1258:../Generated_Code/Cpu.c **** /*
1259:../Generated_Code/Cpu.c **** ** ===================================================================
1260:../Generated_Code/Cpu.c **** **     Method      :  Cpu_Cpu_ivINT_FTM2 (component MK22FN1M0LK12)
1261:../Generated_Code/Cpu.c **** **
1262:../Generated_Code/Cpu.c **** **     Description :
1263:../Generated_Code/Cpu.c **** **         This ISR services an unused interrupt/exception vector.
1264:../Generated_Code/Cpu.c **** **         This method is internal. It is used by Processor Expert only.
1265:../Generated_Code/Cpu.c **** ** ===================================================================
1266:../Generated_Code/Cpu.c **** */
1267:../Generated_Code/Cpu.c **** PE_ISR(Cpu_ivINT_FTM2)
1268:../Generated_Code/Cpu.c **** {
 2217              		.loc 1 1268 0
 2218              		.cfi_startproc
 2219              		@ Stack Align: May be called with mis-aligned SP.
 2220              		@ args = 0, pretend = 0, frame = 0
 2221              		@ frame_needed = 1, uses_anonymous_args = 0
 2222              		@ link register save eliminated.
 2223 0000 6846     		mov	r0, sp
 2224              		.cfi_register 13, 0
 2225 0002 20F00701 		bic	r1, r0, #7
 2226 0006 8D46     		mov	sp, r1
 2227 0008 81B4     		push	{r0, r7}
 2228              		.cfi_def_cfa_offset 8
 2229              		.cfi_offset 13, -8
 2230              		.cfi_offset 7, -4
 2231 000a 00AF     		add	r7, sp, #0
 2232              		.cfi_def_cfa_register 7
1269:../Generated_Code/Cpu.c ****   /* This code can be changed using the CPU component property "Build Options / Unhandled int code"
1270:../Generated_Code/Cpu.c ****   PE_DEBUGHALT();
 2233              		.loc 1 1270 0
 2234              	@ 1270 "../Generated_Code/Cpu.c" 1
 2235 000c FFBE     		BKPT 255
 2236              	@ 0 "" 2
1271:../Generated_Code/Cpu.c **** }
 2237              		.loc 1 1271 0
 2238              		.thumb
 2239 000e BD46     		mov	sp, r7
 2240              		@ sp needed
 2241 0010 81BC     		pop	{r0, r7}
 2242 0012 8546     		mov	sp, r0
 2243 0014 7047     		bx	lr
 2244              		.cfi_endproc
 2245              	.LFE57:
 2247 0016 00BF     		.section	.text.Cpu_ivINT_CMT,"ax",%progbits
 2248              		.align	2
 2249              		.global	Cpu_ivINT_CMT
 2250              		.thumb
 2251              		.thumb_func
 2253              	Cpu_ivINT_CMT:
 2254              	.LFB58:
1272:../Generated_Code/Cpu.c **** 
1273:../Generated_Code/Cpu.c **** /*
1274:../Generated_Code/Cpu.c **** ** ===================================================================
1275:../Generated_Code/Cpu.c **** **     Method      :  Cpu_Cpu_ivINT_CMT (component MK22FN1M0LK12)
1276:../Generated_Code/Cpu.c **** **
1277:../Generated_Code/Cpu.c **** **     Description :
1278:../Generated_Code/Cpu.c **** **         This ISR services an unused interrupt/exception vector.
1279:../Generated_Code/Cpu.c **** **         This method is internal. It is used by Processor Expert only.
1280:../Generated_Code/Cpu.c **** ** ===================================================================
1281:../Generated_Code/Cpu.c **** */
1282:../Generated_Code/Cpu.c **** PE_ISR(Cpu_ivINT_CMT)
1283:../Generated_Code/Cpu.c **** {
 2255              		.loc 1 1283 0
 2256              		.cfi_startproc
 2257              		@ Stack Align: May be called with mis-aligned SP.
 2258              		@ args = 0, pretend = 0, frame = 0
 2259              		@ frame_needed = 1, uses_anonymous_args = 0
 2260              		@ link register save eliminated.
 2261 0000 6846     		mov	r0, sp
 2262              		.cfi_register 13, 0
 2263 0002 20F00701 		bic	r1, r0, #7
 2264 0006 8D46     		mov	sp, r1
 2265 0008 81B4     		push	{r0, r7}
 2266              		.cfi_def_cfa_offset 8
 2267              		.cfi_offset 13, -8
 2268              		.cfi_offset 7, -4
 2269 000a 00AF     		add	r7, sp, #0
 2270              		.cfi_def_cfa_register 7
1284:../Generated_Code/Cpu.c ****   /* This code can be changed using the CPU component property "Build Options / Unhandled int code"
1285:../Generated_Code/Cpu.c ****   PE_DEBUGHALT();
 2271              		.loc 1 1285 0
 2272              	@ 1285 "../Generated_Code/Cpu.c" 1
 2273 000c FFBE     		BKPT 255
 2274              	@ 0 "" 2
1286:../Generated_Code/Cpu.c **** }
 2275              		.loc 1 1286 0
 2276              		.thumb
 2277 000e BD46     		mov	sp, r7
 2278              		@ sp needed
 2279 0010 81BC     		pop	{r0, r7}
 2280 0012 8546     		mov	sp, r0
 2281 0014 7047     		bx	lr
 2282              		.cfi_endproc
 2283              	.LFE58:
 2285 0016 00BF     		.section	.text.Cpu_ivINT_RTC,"ax",%progbits
 2286              		.align	2
 2287              		.global	Cpu_ivINT_RTC
 2288              		.thumb
 2289              		.thumb_func
 2291              	Cpu_ivINT_RTC:
 2292              	.LFB59:
1287:../Generated_Code/Cpu.c **** 
1288:../Generated_Code/Cpu.c **** /*
1289:../Generated_Code/Cpu.c **** ** ===================================================================
1290:../Generated_Code/Cpu.c **** **     Method      :  Cpu_Cpu_ivINT_RTC (component MK22FN1M0LK12)
1291:../Generated_Code/Cpu.c **** **
1292:../Generated_Code/Cpu.c **** **     Description :
1293:../Generated_Code/Cpu.c **** **         This ISR services an unused interrupt/exception vector.
1294:../Generated_Code/Cpu.c **** **         This method is internal. It is used by Processor Expert only.
1295:../Generated_Code/Cpu.c **** ** ===================================================================
1296:../Generated_Code/Cpu.c **** */
1297:../Generated_Code/Cpu.c **** PE_ISR(Cpu_ivINT_RTC)
1298:../Generated_Code/Cpu.c **** {
 2293              		.loc 1 1298 0
 2294              		.cfi_startproc
 2295              		@ Stack Align: May be called with mis-aligned SP.
 2296              		@ args = 0, pretend = 0, frame = 0
 2297              		@ frame_needed = 1, uses_anonymous_args = 0
 2298              		@ link register save eliminated.
 2299 0000 6846     		mov	r0, sp
 2300              		.cfi_register 13, 0
 2301 0002 20F00701 		bic	r1, r0, #7
 2302 0006 8D46     		mov	sp, r1
 2303 0008 81B4     		push	{r0, r7}
 2304              		.cfi_def_cfa_offset 8
 2305              		.cfi_offset 13, -8
 2306              		.cfi_offset 7, -4
 2307 000a 00AF     		add	r7, sp, #0
 2308              		.cfi_def_cfa_register 7
1299:../Generated_Code/Cpu.c ****   /* This code can be changed using the CPU component property "Build Options / Unhandled int code"
1300:../Generated_Code/Cpu.c ****   PE_DEBUGHALT();
 2309              		.loc 1 1300 0
 2310              	@ 1300 "../Generated_Code/Cpu.c" 1
 2311 000c FFBE     		BKPT 255
 2312              	@ 0 "" 2
1301:../Generated_Code/Cpu.c **** }
 2313              		.loc 1 1301 0
 2314              		.thumb
 2315 000e BD46     		mov	sp, r7
 2316              		@ sp needed
 2317 0010 81BC     		pop	{r0, r7}
 2318 0012 8546     		mov	sp, r0
 2319 0014 7047     		bx	lr
 2320              		.cfi_endproc
 2321              	.LFE59:
 2323 0016 00BF     		.section	.text.Cpu_ivINT_RTC_Seconds,"ax",%progbits
 2324              		.align	2
 2325              		.global	Cpu_ivINT_RTC_Seconds
 2326              		.thumb
 2327              		.thumb_func
 2329              	Cpu_ivINT_RTC_Seconds:
 2330              	.LFB60:
1302:../Generated_Code/Cpu.c **** 
1303:../Generated_Code/Cpu.c **** /*
1304:../Generated_Code/Cpu.c **** ** ===================================================================
1305:../Generated_Code/Cpu.c **** **     Method      :  Cpu_Cpu_ivINT_RTC_Seconds (component MK22FN1M0LK12)
1306:../Generated_Code/Cpu.c **** **
1307:../Generated_Code/Cpu.c **** **     Description :
1308:../Generated_Code/Cpu.c **** **         This ISR services an unused interrupt/exception vector.
1309:../Generated_Code/Cpu.c **** **         This method is internal. It is used by Processor Expert only.
1310:../Generated_Code/Cpu.c **** ** ===================================================================
1311:../Generated_Code/Cpu.c **** */
1312:../Generated_Code/Cpu.c **** PE_ISR(Cpu_ivINT_RTC_Seconds)
1313:../Generated_Code/Cpu.c **** {
 2331              		.loc 1 1313 0
 2332              		.cfi_startproc
 2333              		@ Stack Align: May be called with mis-aligned SP.
 2334              		@ args = 0, pretend = 0, frame = 0
 2335              		@ frame_needed = 1, uses_anonymous_args = 0
 2336              		@ link register save eliminated.
 2337 0000 6846     		mov	r0, sp
 2338              		.cfi_register 13, 0
 2339 0002 20F00701 		bic	r1, r0, #7
 2340 0006 8D46     		mov	sp, r1
 2341 0008 81B4     		push	{r0, r7}
 2342              		.cfi_def_cfa_offset 8
 2343              		.cfi_offset 13, -8
 2344              		.cfi_offset 7, -4
 2345 000a 00AF     		add	r7, sp, #0
 2346              		.cfi_def_cfa_register 7
1314:../Generated_Code/Cpu.c ****   /* This code can be changed using the CPU component property "Build Options / Unhandled int code"
1315:../Generated_Code/Cpu.c ****   PE_DEBUGHALT();
 2347              		.loc 1 1315 0
 2348              	@ 1315 "../Generated_Code/Cpu.c" 1
 2349 000c FFBE     		BKPT 255
 2350              	@ 0 "" 2
1316:../Generated_Code/Cpu.c **** }
 2351              		.loc 1 1316 0
 2352              		.thumb
 2353 000e BD46     		mov	sp, r7
 2354              		@ sp needed
 2355 0010 81BC     		pop	{r0, r7}
 2356 0012 8546     		mov	sp, r0
 2357 0014 7047     		bx	lr
 2358              		.cfi_endproc
 2359              	.LFE60:
 2361 0016 00BF     		.section	.text.Cpu_ivINT_PIT0,"ax",%progbits
 2362              		.align	2
 2363              		.global	Cpu_ivINT_PIT0
 2364              		.thumb
 2365              		.thumb_func
 2367              	Cpu_ivINT_PIT0:
 2368              	.LFB61:
1317:../Generated_Code/Cpu.c **** 
1318:../Generated_Code/Cpu.c **** /*
1319:../Generated_Code/Cpu.c **** ** ===================================================================
1320:../Generated_Code/Cpu.c **** **     Method      :  Cpu_Cpu_ivINT_PIT0 (component MK22FN1M0LK12)
1321:../Generated_Code/Cpu.c **** **
1322:../Generated_Code/Cpu.c **** **     Description :
1323:../Generated_Code/Cpu.c **** **         This ISR services an unused interrupt/exception vector.
1324:../Generated_Code/Cpu.c **** **         This method is internal. It is used by Processor Expert only.
1325:../Generated_Code/Cpu.c **** ** ===================================================================
1326:../Generated_Code/Cpu.c **** */
1327:../Generated_Code/Cpu.c **** PE_ISR(Cpu_ivINT_PIT0)
1328:../Generated_Code/Cpu.c **** {
 2369              		.loc 1 1328 0
 2370              		.cfi_startproc
 2371              		@ Stack Align: May be called with mis-aligned SP.
 2372              		@ args = 0, pretend = 0, frame = 0
 2373              		@ frame_needed = 1, uses_anonymous_args = 0
 2374              		@ link register save eliminated.
 2375 0000 6846     		mov	r0, sp
 2376              		.cfi_register 13, 0
 2377 0002 20F00701 		bic	r1, r0, #7
 2378 0006 8D46     		mov	sp, r1
 2379 0008 81B4     		push	{r0, r7}
 2380              		.cfi_def_cfa_offset 8
 2381              		.cfi_offset 13, -8
 2382              		.cfi_offset 7, -4
 2383 000a 00AF     		add	r7, sp, #0
 2384              		.cfi_def_cfa_register 7
1329:../Generated_Code/Cpu.c ****   /* This code can be changed using the CPU component property "Build Options / Unhandled int code"
1330:../Generated_Code/Cpu.c ****   PE_DEBUGHALT();
 2385              		.loc 1 1330 0
 2386              	@ 1330 "../Generated_Code/Cpu.c" 1
 2387 000c FFBE     		BKPT 255
 2388              	@ 0 "" 2
1331:../Generated_Code/Cpu.c **** }
 2389              		.loc 1 1331 0
 2390              		.thumb
 2391 000e BD46     		mov	sp, r7
 2392              		@ sp needed
 2393 0010 81BC     		pop	{r0, r7}
 2394 0012 8546     		mov	sp, r0
 2395 0014 7047     		bx	lr
 2396              		.cfi_endproc
 2397              	.LFE61:
 2399 0016 00BF     		.section	.text.Cpu_ivINT_PIT2,"ax",%progbits
 2400              		.align	2
 2401              		.global	Cpu_ivINT_PIT2
 2402              		.thumb
 2403              		.thumb_func
 2405              	Cpu_ivINT_PIT2:
 2406              	.LFB62:
1332:../Generated_Code/Cpu.c **** 
1333:../Generated_Code/Cpu.c **** /*
1334:../Generated_Code/Cpu.c **** ** ===================================================================
1335:../Generated_Code/Cpu.c **** **     Method      :  Cpu_Cpu_ivINT_PIT2 (component MK22FN1M0LK12)
1336:../Generated_Code/Cpu.c **** **
1337:../Generated_Code/Cpu.c **** **     Description :
1338:../Generated_Code/Cpu.c **** **         This ISR services an unused interrupt/exception vector.
1339:../Generated_Code/Cpu.c **** **         This method is internal. It is used by Processor Expert only.
1340:../Generated_Code/Cpu.c **** ** ===================================================================
1341:../Generated_Code/Cpu.c **** */
1342:../Generated_Code/Cpu.c **** PE_ISR(Cpu_ivINT_PIT2)
1343:../Generated_Code/Cpu.c **** {
 2407              		.loc 1 1343 0
 2408              		.cfi_startproc
 2409              		@ Stack Align: May be called with mis-aligned SP.
 2410              		@ args = 0, pretend = 0, frame = 0
 2411              		@ frame_needed = 1, uses_anonymous_args = 0
 2412              		@ link register save eliminated.
 2413 0000 6846     		mov	r0, sp
 2414              		.cfi_register 13, 0
 2415 0002 20F00701 		bic	r1, r0, #7
 2416 0006 8D46     		mov	sp, r1
 2417 0008 81B4     		push	{r0, r7}
 2418              		.cfi_def_cfa_offset 8
 2419              		.cfi_offset 13, -8
 2420              		.cfi_offset 7, -4
 2421 000a 00AF     		add	r7, sp, #0
 2422              		.cfi_def_cfa_register 7
1344:../Generated_Code/Cpu.c ****   /* This code can be changed using the CPU component property "Build Options / Unhandled int code"
1345:../Generated_Code/Cpu.c ****   PE_DEBUGHALT();
 2423              		.loc 1 1345 0
 2424              	@ 1345 "../Generated_Code/Cpu.c" 1
 2425 000c FFBE     		BKPT 255
 2426              	@ 0 "" 2
1346:../Generated_Code/Cpu.c **** }
 2427              		.loc 1 1346 0
 2428              		.thumb
 2429 000e BD46     		mov	sp, r7
 2430              		@ sp needed
 2431 0010 81BC     		pop	{r0, r7}
 2432 0012 8546     		mov	sp, r0
 2433 0014 7047     		bx	lr
 2434              		.cfi_endproc
 2435              	.LFE62:
 2437 0016 00BF     		.section	.text.Cpu_ivINT_PIT3,"ax",%progbits
 2438              		.align	2
 2439              		.global	Cpu_ivINT_PIT3
 2440              		.thumb
 2441              		.thumb_func
 2443              	Cpu_ivINT_PIT3:
 2444              	.LFB63:
1347:../Generated_Code/Cpu.c **** 
1348:../Generated_Code/Cpu.c **** /*
1349:../Generated_Code/Cpu.c **** ** ===================================================================
1350:../Generated_Code/Cpu.c **** **     Method      :  Cpu_Cpu_ivINT_PIT3 (component MK22FN1M0LK12)
1351:../Generated_Code/Cpu.c **** **
1352:../Generated_Code/Cpu.c **** **     Description :
1353:../Generated_Code/Cpu.c **** **         This ISR services an unused interrupt/exception vector.
1354:../Generated_Code/Cpu.c **** **         This method is internal. It is used by Processor Expert only.
1355:../Generated_Code/Cpu.c **** ** ===================================================================
1356:../Generated_Code/Cpu.c **** */
1357:../Generated_Code/Cpu.c **** PE_ISR(Cpu_ivINT_PIT3)
1358:../Generated_Code/Cpu.c **** {
 2445              		.loc 1 1358 0
 2446              		.cfi_startproc
 2447              		@ Stack Align: May be called with mis-aligned SP.
 2448              		@ args = 0, pretend = 0, frame = 0
 2449              		@ frame_needed = 1, uses_anonymous_args = 0
 2450              		@ link register save eliminated.
 2451 0000 6846     		mov	r0, sp
 2452              		.cfi_register 13, 0
 2453 0002 20F00701 		bic	r1, r0, #7
 2454 0006 8D46     		mov	sp, r1
 2455 0008 81B4     		push	{r0, r7}
 2456              		.cfi_def_cfa_offset 8
 2457              		.cfi_offset 13, -8
 2458              		.cfi_offset 7, -4
 2459 000a 00AF     		add	r7, sp, #0
 2460              		.cfi_def_cfa_register 7
1359:../Generated_Code/Cpu.c ****   /* This code can be changed using the CPU component property "Build Options / Unhandled int code"
1360:../Generated_Code/Cpu.c ****   PE_DEBUGHALT();
 2461              		.loc 1 1360 0
 2462              	@ 1360 "../Generated_Code/Cpu.c" 1
 2463 000c FFBE     		BKPT 255
 2464              	@ 0 "" 2
1361:../Generated_Code/Cpu.c **** }
 2465              		.loc 1 1361 0
 2466              		.thumb
 2467 000e BD46     		mov	sp, r7
 2468              		@ sp needed
 2469 0010 81BC     		pop	{r0, r7}
 2470 0012 8546     		mov	sp, r0
 2471 0014 7047     		bx	lr
 2472              		.cfi_endproc
 2473              	.LFE63:
 2475 0016 00BF     		.section	.text.Cpu_ivINT_PDB0,"ax",%progbits
 2476              		.align	2
 2477              		.global	Cpu_ivINT_PDB0
 2478              		.thumb
 2479              		.thumb_func
 2481              	Cpu_ivINT_PDB0:
 2482              	.LFB64:
1362:../Generated_Code/Cpu.c **** 
1363:../Generated_Code/Cpu.c **** /*
1364:../Generated_Code/Cpu.c **** ** ===================================================================
1365:../Generated_Code/Cpu.c **** **     Method      :  Cpu_Cpu_ivINT_PDB0 (component MK22FN1M0LK12)
1366:../Generated_Code/Cpu.c **** **
1367:../Generated_Code/Cpu.c **** **     Description :
1368:../Generated_Code/Cpu.c **** **         This ISR services an unused interrupt/exception vector.
1369:../Generated_Code/Cpu.c **** **         This method is internal. It is used by Processor Expert only.
1370:../Generated_Code/Cpu.c **** ** ===================================================================
1371:../Generated_Code/Cpu.c **** */
1372:../Generated_Code/Cpu.c **** PE_ISR(Cpu_ivINT_PDB0)
1373:../Generated_Code/Cpu.c **** {
 2483              		.loc 1 1373 0
 2484              		.cfi_startproc
 2485              		@ Stack Align: May be called with mis-aligned SP.
 2486              		@ args = 0, pretend = 0, frame = 0
 2487              		@ frame_needed = 1, uses_anonymous_args = 0
 2488              		@ link register save eliminated.
 2489 0000 6846     		mov	r0, sp
 2490              		.cfi_register 13, 0
 2491 0002 20F00701 		bic	r1, r0, #7
 2492 0006 8D46     		mov	sp, r1
 2493 0008 81B4     		push	{r0, r7}
 2494              		.cfi_def_cfa_offset 8
 2495              		.cfi_offset 13, -8
 2496              		.cfi_offset 7, -4
 2497 000a 00AF     		add	r7, sp, #0
 2498              		.cfi_def_cfa_register 7
1374:../Generated_Code/Cpu.c ****   /* This code can be changed using the CPU component property "Build Options / Unhandled int code"
1375:../Generated_Code/Cpu.c ****   PE_DEBUGHALT();
 2499              		.loc 1 1375 0
 2500              	@ 1375 "../Generated_Code/Cpu.c" 1
 2501 000c FFBE     		BKPT 255
 2502              	@ 0 "" 2
1376:../Generated_Code/Cpu.c **** }
 2503              		.loc 1 1376 0
 2504              		.thumb
 2505 000e BD46     		mov	sp, r7
 2506              		@ sp needed
 2507 0010 81BC     		pop	{r0, r7}
 2508 0012 8546     		mov	sp, r0
 2509 0014 7047     		bx	lr
 2510              		.cfi_endproc
 2511              	.LFE64:
 2513 0016 00BF     		.section	.text.Cpu_ivINT_USBDCD,"ax",%progbits
 2514              		.align	2
 2515              		.global	Cpu_ivINT_USBDCD
 2516              		.thumb
 2517              		.thumb_func
 2519              	Cpu_ivINT_USBDCD:
 2520              	.LFB65:
1377:../Generated_Code/Cpu.c **** 
1378:../Generated_Code/Cpu.c **** /*
1379:../Generated_Code/Cpu.c **** ** ===================================================================
1380:../Generated_Code/Cpu.c **** **     Method      :  Cpu_Cpu_ivINT_USBDCD (component MK22FN1M0LK12)
1381:../Generated_Code/Cpu.c **** **
1382:../Generated_Code/Cpu.c **** **     Description :
1383:../Generated_Code/Cpu.c **** **         This ISR services an unused interrupt/exception vector.
1384:../Generated_Code/Cpu.c **** **         This method is internal. It is used by Processor Expert only.
1385:../Generated_Code/Cpu.c **** ** ===================================================================
1386:../Generated_Code/Cpu.c **** */
1387:../Generated_Code/Cpu.c **** PE_ISR(Cpu_ivINT_USBDCD)
1388:../Generated_Code/Cpu.c **** {
 2521              		.loc 1 1388 0
 2522              		.cfi_startproc
 2523              		@ Stack Align: May be called with mis-aligned SP.
 2524              		@ args = 0, pretend = 0, frame = 0
 2525              		@ frame_needed = 1, uses_anonymous_args = 0
 2526              		@ link register save eliminated.
 2527 0000 6846     		mov	r0, sp
 2528              		.cfi_register 13, 0
 2529 0002 20F00701 		bic	r1, r0, #7
 2530 0006 8D46     		mov	sp, r1
 2531 0008 81B4     		push	{r0, r7}
 2532              		.cfi_def_cfa_offset 8
 2533              		.cfi_offset 13, -8
 2534              		.cfi_offset 7, -4
 2535 000a 00AF     		add	r7, sp, #0
 2536              		.cfi_def_cfa_register 7
1389:../Generated_Code/Cpu.c ****   /* This code can be changed using the CPU component property "Build Options / Unhandled int code"
1390:../Generated_Code/Cpu.c ****   PE_DEBUGHALT();
 2537              		.loc 1 1390 0
 2538              	@ 1390 "../Generated_Code/Cpu.c" 1
 2539 000c FFBE     		BKPT 255
 2540              	@ 0 "" 2
1391:../Generated_Code/Cpu.c **** }
 2541              		.loc 1 1391 0
 2542              		.thumb
 2543 000e BD46     		mov	sp, r7
 2544              		@ sp needed
 2545 0010 81BC     		pop	{r0, r7}
 2546 0012 8546     		mov	sp, r0
 2547 0014 7047     		bx	lr
 2548              		.cfi_endproc
 2549              	.LFE65:
 2551 0016 00BF     		.section	.text.Cpu_ivINT_Reserved71,"ax",%progbits
 2552              		.align	2
 2553              		.global	Cpu_ivINT_Reserved71
 2554              		.thumb
 2555              		.thumb_func
 2557              	Cpu_ivINT_Reserved71:
 2558              	.LFB66:
1392:../Generated_Code/Cpu.c **** 
1393:../Generated_Code/Cpu.c **** /*
1394:../Generated_Code/Cpu.c **** ** ===================================================================
1395:../Generated_Code/Cpu.c **** **     Method      :  Cpu_Cpu_ivINT_Reserved71 (component MK22FN1M0LK12)
1396:../Generated_Code/Cpu.c **** **
1397:../Generated_Code/Cpu.c **** **     Description :
1398:../Generated_Code/Cpu.c **** **         This ISR services an unused interrupt/exception vector.
1399:../Generated_Code/Cpu.c **** **         This method is internal. It is used by Processor Expert only.
1400:../Generated_Code/Cpu.c **** ** ===================================================================
1401:../Generated_Code/Cpu.c **** */
1402:../Generated_Code/Cpu.c **** PE_ISR(Cpu_ivINT_Reserved71)
1403:../Generated_Code/Cpu.c **** {
 2559              		.loc 1 1403 0
 2560              		.cfi_startproc
 2561              		@ Stack Align: May be called with mis-aligned SP.
 2562              		@ args = 0, pretend = 0, frame = 0
 2563              		@ frame_needed = 1, uses_anonymous_args = 0
 2564              		@ link register save eliminated.
 2565 0000 6846     		mov	r0, sp
 2566              		.cfi_register 13, 0
 2567 0002 20F00701 		bic	r1, r0, #7
 2568 0006 8D46     		mov	sp, r1
 2569 0008 81B4     		push	{r0, r7}
 2570              		.cfi_def_cfa_offset 8
 2571              		.cfi_offset 13, -8
 2572              		.cfi_offset 7, -4
 2573 000a 00AF     		add	r7, sp, #0
 2574              		.cfi_def_cfa_register 7
1404:../Generated_Code/Cpu.c ****   /* This code can be changed using the CPU component property "Build Options / Unhandled int code"
1405:../Generated_Code/Cpu.c ****   PE_DEBUGHALT();
 2575              		.loc 1 1405 0
 2576              	@ 1405 "../Generated_Code/Cpu.c" 1
 2577 000c FFBE     		BKPT 255
 2578              	@ 0 "" 2
1406:../Generated_Code/Cpu.c **** }
 2579              		.loc 1 1406 0
 2580              		.thumb
 2581 000e BD46     		mov	sp, r7
 2582              		@ sp needed
 2583 0010 81BC     		pop	{r0, r7}
 2584 0012 8546     		mov	sp, r0
 2585 0014 7047     		bx	lr
 2586              		.cfi_endproc
 2587              	.LFE66:
 2589 0016 00BF     		.section	.text.Cpu_ivINT_DAC0,"ax",%progbits
 2590              		.align	2
 2591              		.global	Cpu_ivINT_DAC0
 2592              		.thumb
 2593              		.thumb_func
 2595              	Cpu_ivINT_DAC0:
 2596              	.LFB67:
1407:../Generated_Code/Cpu.c **** 
1408:../Generated_Code/Cpu.c **** /*
1409:../Generated_Code/Cpu.c **** ** ===================================================================
1410:../Generated_Code/Cpu.c **** **     Method      :  Cpu_Cpu_ivINT_DAC0 (component MK22FN1M0LK12)
1411:../Generated_Code/Cpu.c **** **
1412:../Generated_Code/Cpu.c **** **     Description :
1413:../Generated_Code/Cpu.c **** **         This ISR services an unused interrupt/exception vector.
1414:../Generated_Code/Cpu.c **** **         This method is internal. It is used by Processor Expert only.
1415:../Generated_Code/Cpu.c **** ** ===================================================================
1416:../Generated_Code/Cpu.c **** */
1417:../Generated_Code/Cpu.c **** PE_ISR(Cpu_ivINT_DAC0)
1418:../Generated_Code/Cpu.c **** {
 2597              		.loc 1 1418 0
 2598              		.cfi_startproc
 2599              		@ Stack Align: May be called with mis-aligned SP.
 2600              		@ args = 0, pretend = 0, frame = 0
 2601              		@ frame_needed = 1, uses_anonymous_args = 0
 2602              		@ link register save eliminated.
 2603 0000 6846     		mov	r0, sp
 2604              		.cfi_register 13, 0
 2605 0002 20F00701 		bic	r1, r0, #7
 2606 0006 8D46     		mov	sp, r1
 2607 0008 81B4     		push	{r0, r7}
 2608              		.cfi_def_cfa_offset 8
 2609              		.cfi_offset 13, -8
 2610              		.cfi_offset 7, -4
 2611 000a 00AF     		add	r7, sp, #0
 2612              		.cfi_def_cfa_register 7
1419:../Generated_Code/Cpu.c ****   /* This code can be changed using the CPU component property "Build Options / Unhandled int code"
1420:../Generated_Code/Cpu.c ****   PE_DEBUGHALT();
 2613              		.loc 1 1420 0
 2614              	@ 1420 "../Generated_Code/Cpu.c" 1
 2615 000c FFBE     		BKPT 255
 2616              	@ 0 "" 2
1421:../Generated_Code/Cpu.c **** }
 2617              		.loc 1 1421 0
 2618              		.thumb
 2619 000e BD46     		mov	sp, r7
 2620              		@ sp needed
 2621 0010 81BC     		pop	{r0, r7}
 2622 0012 8546     		mov	sp, r0
 2623 0014 7047     		bx	lr
 2624              		.cfi_endproc
 2625              	.LFE67:
 2627 0016 00BF     		.section	.text.Cpu_ivINT_MCG,"ax",%progbits
 2628              		.align	2
 2629              		.global	Cpu_ivINT_MCG
 2630              		.thumb
 2631              		.thumb_func
 2633              	Cpu_ivINT_MCG:
 2634              	.LFB68:
1422:../Generated_Code/Cpu.c **** 
1423:../Generated_Code/Cpu.c **** /*
1424:../Generated_Code/Cpu.c **** ** ===================================================================
1425:../Generated_Code/Cpu.c **** **     Method      :  Cpu_Cpu_ivINT_MCG (component MK22FN1M0LK12)
1426:../Generated_Code/Cpu.c **** **
1427:../Generated_Code/Cpu.c **** **     Description :
1428:../Generated_Code/Cpu.c **** **         This ISR services an unused interrupt/exception vector.
1429:../Generated_Code/Cpu.c **** **         This method is internal. It is used by Processor Expert only.
1430:../Generated_Code/Cpu.c **** ** ===================================================================
1431:../Generated_Code/Cpu.c **** */
1432:../Generated_Code/Cpu.c **** PE_ISR(Cpu_ivINT_MCG)
1433:../Generated_Code/Cpu.c **** {
 2635              		.loc 1 1433 0
 2636              		.cfi_startproc
 2637              		@ Stack Align: May be called with mis-aligned SP.
 2638              		@ args = 0, pretend = 0, frame = 0
 2639              		@ frame_needed = 1, uses_anonymous_args = 0
 2640              		@ link register save eliminated.
 2641 0000 6846     		mov	r0, sp
 2642              		.cfi_register 13, 0
 2643 0002 20F00701 		bic	r1, r0, #7
 2644 0006 8D46     		mov	sp, r1
 2645 0008 81B4     		push	{r0, r7}
 2646              		.cfi_def_cfa_offset 8
 2647              		.cfi_offset 13, -8
 2648              		.cfi_offset 7, -4
 2649 000a 00AF     		add	r7, sp, #0
 2650              		.cfi_def_cfa_register 7
1434:../Generated_Code/Cpu.c ****   /* This code can be changed using the CPU component property "Build Options / Unhandled int code"
1435:../Generated_Code/Cpu.c ****   PE_DEBUGHALT();
 2651              		.loc 1 1435 0
 2652              	@ 1435 "../Generated_Code/Cpu.c" 1
 2653 000c FFBE     		BKPT 255
 2654              	@ 0 "" 2
1436:../Generated_Code/Cpu.c **** }
 2655              		.loc 1 1436 0
 2656              		.thumb
 2657 000e BD46     		mov	sp, r7
 2658              		@ sp needed
 2659 0010 81BC     		pop	{r0, r7}
 2660 0012 8546     		mov	sp, r0
 2661 0014 7047     		bx	lr
 2662              		.cfi_endproc
 2663              	.LFE68:
 2665 0016 00BF     		.section	.text.Cpu_ivINT_LPTMR0,"ax",%progbits
 2666              		.align	2
 2667              		.global	Cpu_ivINT_LPTMR0
 2668              		.thumb
 2669              		.thumb_func
 2671              	Cpu_ivINT_LPTMR0:
 2672              	.LFB69:
1437:../Generated_Code/Cpu.c **** 
1438:../Generated_Code/Cpu.c **** /*
1439:../Generated_Code/Cpu.c **** ** ===================================================================
1440:../Generated_Code/Cpu.c **** **     Method      :  Cpu_Cpu_ivINT_LPTMR0 (component MK22FN1M0LK12)
1441:../Generated_Code/Cpu.c **** **
1442:../Generated_Code/Cpu.c **** **     Description :
1443:../Generated_Code/Cpu.c **** **         This ISR services an unused interrupt/exception vector.
1444:../Generated_Code/Cpu.c **** **         This method is internal. It is used by Processor Expert only.
1445:../Generated_Code/Cpu.c **** ** ===================================================================
1446:../Generated_Code/Cpu.c **** */
1447:../Generated_Code/Cpu.c **** PE_ISR(Cpu_ivINT_LPTMR0)
1448:../Generated_Code/Cpu.c **** {
 2673              		.loc 1 1448 0
 2674              		.cfi_startproc
 2675              		@ Stack Align: May be called with mis-aligned SP.
 2676              		@ args = 0, pretend = 0, frame = 0
 2677              		@ frame_needed = 1, uses_anonymous_args = 0
 2678              		@ link register save eliminated.
 2679 0000 6846     		mov	r0, sp
 2680              		.cfi_register 13, 0
 2681 0002 20F00701 		bic	r1, r0, #7
 2682 0006 8D46     		mov	sp, r1
 2683 0008 81B4     		push	{r0, r7}
 2684              		.cfi_def_cfa_offset 8
 2685              		.cfi_offset 13, -8
 2686              		.cfi_offset 7, -4
 2687 000a 00AF     		add	r7, sp, #0
 2688              		.cfi_def_cfa_register 7
1449:../Generated_Code/Cpu.c ****   /* This code can be changed using the CPU component property "Build Options / Unhandled int code"
1450:../Generated_Code/Cpu.c ****   PE_DEBUGHALT();
 2689              		.loc 1 1450 0
 2690              	@ 1450 "../Generated_Code/Cpu.c" 1
 2691 000c FFBE     		BKPT 255
 2692              	@ 0 "" 2
1451:../Generated_Code/Cpu.c **** }
 2693              		.loc 1 1451 0
 2694              		.thumb
 2695 000e BD46     		mov	sp, r7
 2696              		@ sp needed
 2697 0010 81BC     		pop	{r0, r7}
 2698 0012 8546     		mov	sp, r0
 2699 0014 7047     		bx	lr
 2700              		.cfi_endproc
 2701              	.LFE69:
 2703 0016 00BF     		.section	.text.Cpu_ivINT_PORTA,"ax",%progbits
 2704              		.align	2
 2705              		.global	Cpu_ivINT_PORTA
 2706              		.thumb
 2707              		.thumb_func
 2709              	Cpu_ivINT_PORTA:
 2710              	.LFB70:
1452:../Generated_Code/Cpu.c **** 
1453:../Generated_Code/Cpu.c **** /*
1454:../Generated_Code/Cpu.c **** ** ===================================================================
1455:../Generated_Code/Cpu.c **** **     Method      :  Cpu_Cpu_ivINT_PORTA (component MK22FN1M0LK12)
1456:../Generated_Code/Cpu.c **** **
1457:../Generated_Code/Cpu.c **** **     Description :
1458:../Generated_Code/Cpu.c **** **         This ISR services an unused interrupt/exception vector.
1459:../Generated_Code/Cpu.c **** **         This method is internal. It is used by Processor Expert only.
1460:../Generated_Code/Cpu.c **** ** ===================================================================
1461:../Generated_Code/Cpu.c **** */
1462:../Generated_Code/Cpu.c **** PE_ISR(Cpu_ivINT_PORTA)
1463:../Generated_Code/Cpu.c **** {
 2711              		.loc 1 1463 0
 2712              		.cfi_startproc
 2713              		@ Stack Align: May be called with mis-aligned SP.
 2714              		@ args = 0, pretend = 0, frame = 0
 2715              		@ frame_needed = 1, uses_anonymous_args = 0
 2716              		@ link register save eliminated.
 2717 0000 6846     		mov	r0, sp
 2718              		.cfi_register 13, 0
 2719 0002 20F00701 		bic	r1, r0, #7
 2720 0006 8D46     		mov	sp, r1
 2721 0008 81B4     		push	{r0, r7}
 2722              		.cfi_def_cfa_offset 8
 2723              		.cfi_offset 13, -8
 2724              		.cfi_offset 7, -4
 2725 000a 00AF     		add	r7, sp, #0
 2726              		.cfi_def_cfa_register 7
1464:../Generated_Code/Cpu.c ****   /* This code can be changed using the CPU component property "Build Options / Unhandled int code"
1465:../Generated_Code/Cpu.c ****   PE_DEBUGHALT();
 2727              		.loc 1 1465 0
 2728              	@ 1465 "../Generated_Code/Cpu.c" 1
 2729 000c FFBE     		BKPT 255
 2730              	@ 0 "" 2
1466:../Generated_Code/Cpu.c **** }
 2731              		.loc 1 1466 0
 2732              		.thumb
 2733 000e BD46     		mov	sp, r7
 2734              		@ sp needed
 2735 0010 81BC     		pop	{r0, r7}
 2736 0012 8546     		mov	sp, r0
 2737 0014 7047     		bx	lr
 2738              		.cfi_endproc
 2739              	.LFE70:
 2741 0016 00BF     		.section	.text.Cpu_ivINT_PORTB,"ax",%progbits
 2742              		.align	2
 2743              		.global	Cpu_ivINT_PORTB
 2744              		.thumb
 2745              		.thumb_func
 2747              	Cpu_ivINT_PORTB:
 2748              	.LFB71:
1467:../Generated_Code/Cpu.c **** 
1468:../Generated_Code/Cpu.c **** /*
1469:../Generated_Code/Cpu.c **** ** ===================================================================
1470:../Generated_Code/Cpu.c **** **     Method      :  Cpu_Cpu_ivINT_PORTB (component MK22FN1M0LK12)
1471:../Generated_Code/Cpu.c **** **
1472:../Generated_Code/Cpu.c **** **     Description :
1473:../Generated_Code/Cpu.c **** **         This ISR services an unused interrupt/exception vector.
1474:../Generated_Code/Cpu.c **** **         This method is internal. It is used by Processor Expert only.
1475:../Generated_Code/Cpu.c **** ** ===================================================================
1476:../Generated_Code/Cpu.c **** */
1477:../Generated_Code/Cpu.c **** PE_ISR(Cpu_ivINT_PORTB)
1478:../Generated_Code/Cpu.c **** {
 2749              		.loc 1 1478 0
 2750              		.cfi_startproc
 2751              		@ Stack Align: May be called with mis-aligned SP.
 2752              		@ args = 0, pretend = 0, frame = 0
 2753              		@ frame_needed = 1, uses_anonymous_args = 0
 2754              		@ link register save eliminated.
 2755 0000 6846     		mov	r0, sp
 2756              		.cfi_register 13, 0
 2757 0002 20F00701 		bic	r1, r0, #7
 2758 0006 8D46     		mov	sp, r1
 2759 0008 81B4     		push	{r0, r7}
 2760              		.cfi_def_cfa_offset 8
 2761              		.cfi_offset 13, -8
 2762              		.cfi_offset 7, -4
 2763 000a 00AF     		add	r7, sp, #0
 2764              		.cfi_def_cfa_register 7
1479:../Generated_Code/Cpu.c ****   /* This code can be changed using the CPU component property "Build Options / Unhandled int code"
1480:../Generated_Code/Cpu.c ****   PE_DEBUGHALT();
 2765              		.loc 1 1480 0
 2766              	@ 1480 "../Generated_Code/Cpu.c" 1
 2767 000c FFBE     		BKPT 255
 2768              	@ 0 "" 2
1481:../Generated_Code/Cpu.c **** }
 2769              		.loc 1 1481 0
 2770              		.thumb
 2771 000e BD46     		mov	sp, r7
 2772              		@ sp needed
 2773 0010 81BC     		pop	{r0, r7}
 2774 0012 8546     		mov	sp, r0
 2775 0014 7047     		bx	lr
 2776              		.cfi_endproc
 2777              	.LFE71:
 2779 0016 00BF     		.section	.text.Cpu_ivINT_PORTC,"ax",%progbits
 2780              		.align	2
 2781              		.global	Cpu_ivINT_PORTC
 2782              		.thumb
 2783              		.thumb_func
 2785              	Cpu_ivINT_PORTC:
 2786              	.LFB72:
1482:../Generated_Code/Cpu.c **** 
1483:../Generated_Code/Cpu.c **** /*
1484:../Generated_Code/Cpu.c **** ** ===================================================================
1485:../Generated_Code/Cpu.c **** **     Method      :  Cpu_Cpu_ivINT_PORTC (component MK22FN1M0LK12)
1486:../Generated_Code/Cpu.c **** **
1487:../Generated_Code/Cpu.c **** **     Description :
1488:../Generated_Code/Cpu.c **** **         This ISR services an unused interrupt/exception vector.
1489:../Generated_Code/Cpu.c **** **         This method is internal. It is used by Processor Expert only.
1490:../Generated_Code/Cpu.c **** ** ===================================================================
1491:../Generated_Code/Cpu.c **** */
1492:../Generated_Code/Cpu.c **** PE_ISR(Cpu_ivINT_PORTC)
1493:../Generated_Code/Cpu.c **** {
 2787              		.loc 1 1493 0
 2788              		.cfi_startproc
 2789              		@ Stack Align: May be called with mis-aligned SP.
 2790              		@ args = 0, pretend = 0, frame = 0
 2791              		@ frame_needed = 1, uses_anonymous_args = 0
 2792              		@ link register save eliminated.
 2793 0000 6846     		mov	r0, sp
 2794              		.cfi_register 13, 0
 2795 0002 20F00701 		bic	r1, r0, #7
 2796 0006 8D46     		mov	sp, r1
 2797 0008 81B4     		push	{r0, r7}
 2798              		.cfi_def_cfa_offset 8
 2799              		.cfi_offset 13, -8
 2800              		.cfi_offset 7, -4
 2801 000a 00AF     		add	r7, sp, #0
 2802              		.cfi_def_cfa_register 7
1494:../Generated_Code/Cpu.c ****   /* This code can be changed using the CPU component property "Build Options / Unhandled int code"
1495:../Generated_Code/Cpu.c ****   PE_DEBUGHALT();
 2803              		.loc 1 1495 0
 2804              	@ 1495 "../Generated_Code/Cpu.c" 1
 2805 000c FFBE     		BKPT 255
 2806              	@ 0 "" 2
1496:../Generated_Code/Cpu.c **** }
 2807              		.loc 1 1496 0
 2808              		.thumb
 2809 000e BD46     		mov	sp, r7
 2810              		@ sp needed
 2811 0010 81BC     		pop	{r0, r7}
 2812 0012 8546     		mov	sp, r0
 2813 0014 7047     		bx	lr
 2814              		.cfi_endproc
 2815              	.LFE72:
 2817 0016 00BF     		.section	.text.Cpu_ivINT_PORTD,"ax",%progbits
 2818              		.align	2
 2819              		.global	Cpu_ivINT_PORTD
 2820              		.thumb
 2821              		.thumb_func
 2823              	Cpu_ivINT_PORTD:
 2824              	.LFB73:
1497:../Generated_Code/Cpu.c **** 
1498:../Generated_Code/Cpu.c **** /*
1499:../Generated_Code/Cpu.c **** ** ===================================================================
1500:../Generated_Code/Cpu.c **** **     Method      :  Cpu_Cpu_ivINT_PORTD (component MK22FN1M0LK12)
1501:../Generated_Code/Cpu.c **** **
1502:../Generated_Code/Cpu.c **** **     Description :
1503:../Generated_Code/Cpu.c **** **         This ISR services an unused interrupt/exception vector.
1504:../Generated_Code/Cpu.c **** **         This method is internal. It is used by Processor Expert only.
1505:../Generated_Code/Cpu.c **** ** ===================================================================
1506:../Generated_Code/Cpu.c **** */
1507:../Generated_Code/Cpu.c **** PE_ISR(Cpu_ivINT_PORTD)
1508:../Generated_Code/Cpu.c **** {
 2825              		.loc 1 1508 0
 2826              		.cfi_startproc
 2827              		@ Stack Align: May be called with mis-aligned SP.
 2828              		@ args = 0, pretend = 0, frame = 0
 2829              		@ frame_needed = 1, uses_anonymous_args = 0
 2830              		@ link register save eliminated.
 2831 0000 6846     		mov	r0, sp
 2832              		.cfi_register 13, 0
 2833 0002 20F00701 		bic	r1, r0, #7
 2834 0006 8D46     		mov	sp, r1
 2835 0008 81B4     		push	{r0, r7}
 2836              		.cfi_def_cfa_offset 8
 2837              		.cfi_offset 13, -8
 2838              		.cfi_offset 7, -4
 2839 000a 00AF     		add	r7, sp, #0
 2840              		.cfi_def_cfa_register 7
1509:../Generated_Code/Cpu.c ****   /* This code can be changed using the CPU component property "Build Options / Unhandled int code"
1510:../Generated_Code/Cpu.c ****   PE_DEBUGHALT();
 2841              		.loc 1 1510 0
 2842              	@ 1510 "../Generated_Code/Cpu.c" 1
 2843 000c FFBE     		BKPT 255
 2844              	@ 0 "" 2
1511:../Generated_Code/Cpu.c **** }
 2845              		.loc 1 1511 0
 2846              		.thumb
 2847 000e BD46     		mov	sp, r7
 2848              		@ sp needed
 2849 0010 81BC     		pop	{r0, r7}
 2850 0012 8546     		mov	sp, r0
 2851 0014 7047     		bx	lr
 2852              		.cfi_endproc
 2853              	.LFE73:
 2855 0016 00BF     		.section	.text.Cpu_ivINT_PORTE,"ax",%progbits
 2856              		.align	2
 2857              		.global	Cpu_ivINT_PORTE
 2858              		.thumb
 2859              		.thumb_func
 2861              	Cpu_ivINT_PORTE:
 2862              	.LFB74:
1512:../Generated_Code/Cpu.c **** 
1513:../Generated_Code/Cpu.c **** /*
1514:../Generated_Code/Cpu.c **** ** ===================================================================
1515:../Generated_Code/Cpu.c **** **     Method      :  Cpu_Cpu_ivINT_PORTE (component MK22FN1M0LK12)
1516:../Generated_Code/Cpu.c **** **
1517:../Generated_Code/Cpu.c **** **     Description :
1518:../Generated_Code/Cpu.c **** **         This ISR services an unused interrupt/exception vector.
1519:../Generated_Code/Cpu.c **** **         This method is internal. It is used by Processor Expert only.
1520:../Generated_Code/Cpu.c **** ** ===================================================================
1521:../Generated_Code/Cpu.c **** */
1522:../Generated_Code/Cpu.c **** PE_ISR(Cpu_ivINT_PORTE)
1523:../Generated_Code/Cpu.c **** {
 2863              		.loc 1 1523 0
 2864              		.cfi_startproc
 2865              		@ Stack Align: May be called with mis-aligned SP.
 2866              		@ args = 0, pretend = 0, frame = 0
 2867              		@ frame_needed = 1, uses_anonymous_args = 0
 2868              		@ link register save eliminated.
 2869 0000 6846     		mov	r0, sp
 2870              		.cfi_register 13, 0
 2871 0002 20F00701 		bic	r1, r0, #7
 2872 0006 8D46     		mov	sp, r1
 2873 0008 81B4     		push	{r0, r7}
 2874              		.cfi_def_cfa_offset 8
 2875              		.cfi_offset 13, -8
 2876              		.cfi_offset 7, -4
 2877 000a 00AF     		add	r7, sp, #0
 2878              		.cfi_def_cfa_register 7
1524:../Generated_Code/Cpu.c ****   /* This code can be changed using the CPU component property "Build Options / Unhandled int code"
1525:../Generated_Code/Cpu.c ****   PE_DEBUGHALT();
 2879              		.loc 1 1525 0
 2880              	@ 1525 "../Generated_Code/Cpu.c" 1
 2881 000c FFBE     		BKPT 255
 2882              	@ 0 "" 2
1526:../Generated_Code/Cpu.c **** }
 2883              		.loc 1 1526 0
 2884              		.thumb
 2885 000e BD46     		mov	sp, r7
 2886              		@ sp needed
 2887 0010 81BC     		pop	{r0, r7}
 2888 0012 8546     		mov	sp, r0
 2889 0014 7047     		bx	lr
 2890              		.cfi_endproc
 2891              	.LFE74:
 2893 0016 00BF     		.section	.text.Cpu_ivINT_SWI,"ax",%progbits
 2894              		.align	2
 2895              		.global	Cpu_ivINT_SWI
 2896              		.thumb
 2897              		.thumb_func
 2899              	Cpu_ivINT_SWI:
 2900              	.LFB75:
1527:../Generated_Code/Cpu.c **** 
1528:../Generated_Code/Cpu.c **** /*
1529:../Generated_Code/Cpu.c **** ** ===================================================================
1530:../Generated_Code/Cpu.c **** **     Method      :  Cpu_Cpu_ivINT_SWI (component MK22FN1M0LK12)
1531:../Generated_Code/Cpu.c **** **
1532:../Generated_Code/Cpu.c **** **     Description :
1533:../Generated_Code/Cpu.c **** **         This ISR services an unused interrupt/exception vector.
1534:../Generated_Code/Cpu.c **** **         This method is internal. It is used by Processor Expert only.
1535:../Generated_Code/Cpu.c **** ** ===================================================================
1536:../Generated_Code/Cpu.c **** */
1537:../Generated_Code/Cpu.c **** PE_ISR(Cpu_ivINT_SWI)
1538:../Generated_Code/Cpu.c **** {
 2901              		.loc 1 1538 0
 2902              		.cfi_startproc
 2903              		@ Stack Align: May be called with mis-aligned SP.
 2904              		@ args = 0, pretend = 0, frame = 0
 2905              		@ frame_needed = 1, uses_anonymous_args = 0
 2906              		@ link register save eliminated.
 2907 0000 6846     		mov	r0, sp
 2908              		.cfi_register 13, 0
 2909 0002 20F00701 		bic	r1, r0, #7
 2910 0006 8D46     		mov	sp, r1
 2911 0008 81B4     		push	{r0, r7}
 2912              		.cfi_def_cfa_offset 8
 2913              		.cfi_offset 13, -8
 2914              		.cfi_offset 7, -4
 2915 000a 00AF     		add	r7, sp, #0
 2916              		.cfi_def_cfa_register 7
1539:../Generated_Code/Cpu.c ****   /* This code can be changed using the CPU component property "Build Options / Unhandled int code"
1540:../Generated_Code/Cpu.c ****   PE_DEBUGHALT();
 2917              		.loc 1 1540 0
 2918              	@ 1540 "../Generated_Code/Cpu.c" 1
 2919 000c FFBE     		BKPT 255
 2920              	@ 0 "" 2
1541:../Generated_Code/Cpu.c **** }
 2921              		.loc 1 1541 0
 2922              		.thumb
 2923 000e BD46     		mov	sp, r7
 2924              		@ sp needed
 2925 0010 81BC     		pop	{r0, r7}
 2926 0012 8546     		mov	sp, r0
 2927 0014 7047     		bx	lr
 2928              		.cfi_endproc
 2929              	.LFE75:
 2931 0016 00BF     		.section	.text.Cpu_ivINT_Reserved81,"ax",%progbits
 2932              		.align	2
 2933              		.global	Cpu_ivINT_Reserved81
 2934              		.thumb
 2935              		.thumb_func
 2937              	Cpu_ivINT_Reserved81:
 2938              	.LFB76:
1542:../Generated_Code/Cpu.c **** 
1543:../Generated_Code/Cpu.c **** /*
1544:../Generated_Code/Cpu.c **** ** ===================================================================
1545:../Generated_Code/Cpu.c **** **     Method      :  Cpu_Cpu_ivINT_Reserved81 (component MK22FN1M0LK12)
1546:../Generated_Code/Cpu.c **** **
1547:../Generated_Code/Cpu.c **** **     Description :
1548:../Generated_Code/Cpu.c **** **         This ISR services an unused interrupt/exception vector.
1549:../Generated_Code/Cpu.c **** **         This method is internal. It is used by Processor Expert only.
1550:../Generated_Code/Cpu.c **** ** ===================================================================
1551:../Generated_Code/Cpu.c **** */
1552:../Generated_Code/Cpu.c **** PE_ISR(Cpu_ivINT_Reserved81)
1553:../Generated_Code/Cpu.c **** {
 2939              		.loc 1 1553 0
 2940              		.cfi_startproc
 2941              		@ Stack Align: May be called with mis-aligned SP.
 2942              		@ args = 0, pretend = 0, frame = 0
 2943              		@ frame_needed = 1, uses_anonymous_args = 0
 2944              		@ link register save eliminated.
 2945 0000 6846     		mov	r0, sp
 2946              		.cfi_register 13, 0
 2947 0002 20F00701 		bic	r1, r0, #7
 2948 0006 8D46     		mov	sp, r1
 2949 0008 81B4     		push	{r0, r7}
 2950              		.cfi_def_cfa_offset 8
 2951              		.cfi_offset 13, -8
 2952              		.cfi_offset 7, -4
 2953 000a 00AF     		add	r7, sp, #0
 2954              		.cfi_def_cfa_register 7
1554:../Generated_Code/Cpu.c ****   /* This code can be changed using the CPU component property "Build Options / Unhandled int code"
1555:../Generated_Code/Cpu.c ****   PE_DEBUGHALT();
 2955              		.loc 1 1555 0
 2956              	@ 1555 "../Generated_Code/Cpu.c" 1
 2957 000c FFBE     		BKPT 255
 2958              	@ 0 "" 2
1556:../Generated_Code/Cpu.c **** }
 2959              		.loc 1 1556 0
 2960              		.thumb
 2961 000e BD46     		mov	sp, r7
 2962              		@ sp needed
 2963 0010 81BC     		pop	{r0, r7}
 2964 0012 8546     		mov	sp, r0
 2965 0014 7047     		bx	lr
 2966              		.cfi_endproc
 2967              	.LFE76:
 2969 0016 00BF     		.section	.text.Cpu_ivINT_Reserved82,"ax",%progbits
 2970              		.align	2
 2971              		.global	Cpu_ivINT_Reserved82
 2972              		.thumb
 2973              		.thumb_func
 2975              	Cpu_ivINT_Reserved82:
 2976              	.LFB77:
1557:../Generated_Code/Cpu.c **** 
1558:../Generated_Code/Cpu.c **** /*
1559:../Generated_Code/Cpu.c **** ** ===================================================================
1560:../Generated_Code/Cpu.c **** **     Method      :  Cpu_Cpu_ivINT_Reserved82 (component MK22FN1M0LK12)
1561:../Generated_Code/Cpu.c **** **
1562:../Generated_Code/Cpu.c **** **     Description :
1563:../Generated_Code/Cpu.c **** **         This ISR services an unused interrupt/exception vector.
1564:../Generated_Code/Cpu.c **** **         This method is internal. It is used by Processor Expert only.
1565:../Generated_Code/Cpu.c **** ** ===================================================================
1566:../Generated_Code/Cpu.c **** */
1567:../Generated_Code/Cpu.c **** PE_ISR(Cpu_ivINT_Reserved82)
1568:../Generated_Code/Cpu.c **** {
 2977              		.loc 1 1568 0
 2978              		.cfi_startproc
 2979              		@ Stack Align: May be called with mis-aligned SP.
 2980              		@ args = 0, pretend = 0, frame = 0
 2981              		@ frame_needed = 1, uses_anonymous_args = 0
 2982              		@ link register save eliminated.
 2983 0000 6846     		mov	r0, sp
 2984              		.cfi_register 13, 0
 2985 0002 20F00701 		bic	r1, r0, #7
 2986 0006 8D46     		mov	sp, r1
 2987 0008 81B4     		push	{r0, r7}
 2988              		.cfi_def_cfa_offset 8
 2989              		.cfi_offset 13, -8
 2990              		.cfi_offset 7, -4
 2991 000a 00AF     		add	r7, sp, #0
 2992              		.cfi_def_cfa_register 7
1569:../Generated_Code/Cpu.c ****   /* This code can be changed using the CPU component property "Build Options / Unhandled int code"
1570:../Generated_Code/Cpu.c ****   PE_DEBUGHALT();
 2993              		.loc 1 1570 0
 2994              	@ 1570 "../Generated_Code/Cpu.c" 1
 2995 000c FFBE     		BKPT 255
 2996              	@ 0 "" 2
1571:../Generated_Code/Cpu.c **** }
 2997              		.loc 1 1571 0
 2998              		.thumb
 2999 000e BD46     		mov	sp, r7
 3000              		@ sp needed
 3001 0010 81BC     		pop	{r0, r7}
 3002 0012 8546     		mov	sp, r0
 3003 0014 7047     		bx	lr
 3004              		.cfi_endproc
 3005              	.LFE77:
 3007 0016 00BF     		.section	.text.Cpu_ivINT_Reserved83,"ax",%progbits
 3008              		.align	2
 3009              		.global	Cpu_ivINT_Reserved83
 3010              		.thumb
 3011              		.thumb_func
 3013              	Cpu_ivINT_Reserved83:
 3014              	.LFB78:
1572:../Generated_Code/Cpu.c **** 
1573:../Generated_Code/Cpu.c **** /*
1574:../Generated_Code/Cpu.c **** ** ===================================================================
1575:../Generated_Code/Cpu.c **** **     Method      :  Cpu_Cpu_ivINT_Reserved83 (component MK22FN1M0LK12)
1576:../Generated_Code/Cpu.c **** **
1577:../Generated_Code/Cpu.c **** **     Description :
1578:../Generated_Code/Cpu.c **** **         This ISR services an unused interrupt/exception vector.
1579:../Generated_Code/Cpu.c **** **         This method is internal. It is used by Processor Expert only.
1580:../Generated_Code/Cpu.c **** ** ===================================================================
1581:../Generated_Code/Cpu.c **** */
1582:../Generated_Code/Cpu.c **** PE_ISR(Cpu_ivINT_Reserved83)
1583:../Generated_Code/Cpu.c **** {
 3015              		.loc 1 1583 0
 3016              		.cfi_startproc
 3017              		@ Stack Align: May be called with mis-aligned SP.
 3018              		@ args = 0, pretend = 0, frame = 0
 3019              		@ frame_needed = 1, uses_anonymous_args = 0
 3020              		@ link register save eliminated.
 3021 0000 6846     		mov	r0, sp
 3022              		.cfi_register 13, 0
 3023 0002 20F00701 		bic	r1, r0, #7
 3024 0006 8D46     		mov	sp, r1
 3025 0008 81B4     		push	{r0, r7}
 3026              		.cfi_def_cfa_offset 8
 3027              		.cfi_offset 13, -8
 3028              		.cfi_offset 7, -4
 3029 000a 00AF     		add	r7, sp, #0
 3030              		.cfi_def_cfa_register 7
1584:../Generated_Code/Cpu.c ****   /* This code can be changed using the CPU component property "Build Options / Unhandled int code"
1585:../Generated_Code/Cpu.c ****   PE_DEBUGHALT();
 3031              		.loc 1 1585 0
 3032              	@ 1585 "../Generated_Code/Cpu.c" 1
 3033 000c FFBE     		BKPT 255
 3034              	@ 0 "" 2
1586:../Generated_Code/Cpu.c **** }
 3035              		.loc 1 1586 0
 3036              		.thumb
 3037 000e BD46     		mov	sp, r7
 3038              		@ sp needed
 3039 0010 81BC     		pop	{r0, r7}
 3040 0012 8546     		mov	sp, r0
 3041 0014 7047     		bx	lr
 3042              		.cfi_endproc
 3043              	.LFE78:
 3045 0016 00BF     		.section	.text.Cpu_ivINT_Reserved84,"ax",%progbits
 3046              		.align	2
 3047              		.global	Cpu_ivINT_Reserved84
 3048              		.thumb
 3049              		.thumb_func
 3051              	Cpu_ivINT_Reserved84:
 3052              	.LFB79:
1587:../Generated_Code/Cpu.c **** 
1588:../Generated_Code/Cpu.c **** /*
1589:../Generated_Code/Cpu.c **** ** ===================================================================
1590:../Generated_Code/Cpu.c **** **     Method      :  Cpu_Cpu_ivINT_Reserved84 (component MK22FN1M0LK12)
1591:../Generated_Code/Cpu.c **** **
1592:../Generated_Code/Cpu.c **** **     Description :
1593:../Generated_Code/Cpu.c **** **         This ISR services an unused interrupt/exception vector.
1594:../Generated_Code/Cpu.c **** **         This method is internal. It is used by Processor Expert only.
1595:../Generated_Code/Cpu.c **** ** ===================================================================
1596:../Generated_Code/Cpu.c **** */
1597:../Generated_Code/Cpu.c **** PE_ISR(Cpu_ivINT_Reserved84)
1598:../Generated_Code/Cpu.c **** {
 3053              		.loc 1 1598 0
 3054              		.cfi_startproc
 3055              		@ Stack Align: May be called with mis-aligned SP.
 3056              		@ args = 0, pretend = 0, frame = 0
 3057              		@ frame_needed = 1, uses_anonymous_args = 0
 3058              		@ link register save eliminated.
 3059 0000 6846     		mov	r0, sp
 3060              		.cfi_register 13, 0
 3061 0002 20F00701 		bic	r1, r0, #7
 3062 0006 8D46     		mov	sp, r1
 3063 0008 81B4     		push	{r0, r7}
 3064              		.cfi_def_cfa_offset 8
 3065              		.cfi_offset 13, -8
 3066              		.cfi_offset 7, -4
 3067 000a 00AF     		add	r7, sp, #0
 3068              		.cfi_def_cfa_register 7
1599:../Generated_Code/Cpu.c ****   /* This code can be changed using the CPU component property "Build Options / Unhandled int code"
1600:../Generated_Code/Cpu.c ****   PE_DEBUGHALT();
 3069              		.loc 1 1600 0
 3070              	@ 1600 "../Generated_Code/Cpu.c" 1
 3071 000c FFBE     		BKPT 255
 3072              	@ 0 "" 2
1601:../Generated_Code/Cpu.c **** }
 3073              		.loc 1 1601 0
 3074              		.thumb
 3075 000e BD46     		mov	sp, r7
 3076              		@ sp needed
 3077 0010 81BC     		pop	{r0, r7}
 3078 0012 8546     		mov	sp, r0
 3079 0014 7047     		bx	lr
 3080              		.cfi_endproc
 3081              	.LFE79:
 3083 0016 00BF     		.section	.text.Cpu_ivINT_Reserved85,"ax",%progbits
 3084              		.align	2
 3085              		.global	Cpu_ivINT_Reserved85
 3086              		.thumb
 3087              		.thumb_func
 3089              	Cpu_ivINT_Reserved85:
 3090              	.LFB80:
1602:../Generated_Code/Cpu.c **** 
1603:../Generated_Code/Cpu.c **** /*
1604:../Generated_Code/Cpu.c **** ** ===================================================================
1605:../Generated_Code/Cpu.c **** **     Method      :  Cpu_Cpu_ivINT_Reserved85 (component MK22FN1M0LK12)
1606:../Generated_Code/Cpu.c **** **
1607:../Generated_Code/Cpu.c **** **     Description :
1608:../Generated_Code/Cpu.c **** **         This ISR services an unused interrupt/exception vector.
1609:../Generated_Code/Cpu.c **** **         This method is internal. It is used by Processor Expert only.
1610:../Generated_Code/Cpu.c **** ** ===================================================================
1611:../Generated_Code/Cpu.c **** */
1612:../Generated_Code/Cpu.c **** PE_ISR(Cpu_ivINT_Reserved85)
1613:../Generated_Code/Cpu.c **** {
 3091              		.loc 1 1613 0
 3092              		.cfi_startproc
 3093              		@ Stack Align: May be called with mis-aligned SP.
 3094              		@ args = 0, pretend = 0, frame = 0
 3095              		@ frame_needed = 1, uses_anonymous_args = 0
 3096              		@ link register save eliminated.
 3097 0000 6846     		mov	r0, sp
 3098              		.cfi_register 13, 0
 3099 0002 20F00701 		bic	r1, r0, #7
 3100 0006 8D46     		mov	sp, r1
 3101 0008 81B4     		push	{r0, r7}
 3102              		.cfi_def_cfa_offset 8
 3103              		.cfi_offset 13, -8
 3104              		.cfi_offset 7, -4
 3105 000a 00AF     		add	r7, sp, #0
 3106              		.cfi_def_cfa_register 7
1614:../Generated_Code/Cpu.c ****   /* This code can be changed using the CPU component property "Build Options / Unhandled int code"
1615:../Generated_Code/Cpu.c ****   PE_DEBUGHALT();
 3107              		.loc 1 1615 0
 3108              	@ 1615 "../Generated_Code/Cpu.c" 1
 3109 000c FFBE     		BKPT 255
 3110              	@ 0 "" 2
1616:../Generated_Code/Cpu.c **** }
 3111              		.loc 1 1616 0
 3112              		.thumb
 3113 000e BD46     		mov	sp, r7
 3114              		@ sp needed
 3115 0010 81BC     		pop	{r0, r7}
 3116 0012 8546     		mov	sp, r0
 3117 0014 7047     		bx	lr
 3118              		.cfi_endproc
 3119              	.LFE80:
 3121 0016 00BF     		.section	.text.Cpu_ivINT_CMP2,"ax",%progbits
 3122              		.align	2
 3123              		.global	Cpu_ivINT_CMP2
 3124              		.thumb
 3125              		.thumb_func
 3127              	Cpu_ivINT_CMP2:
 3128              	.LFB81:
1617:../Generated_Code/Cpu.c **** 
1618:../Generated_Code/Cpu.c **** /*
1619:../Generated_Code/Cpu.c **** ** ===================================================================
1620:../Generated_Code/Cpu.c **** **     Method      :  Cpu_Cpu_ivINT_CMP2 (component MK22FN1M0LK12)
1621:../Generated_Code/Cpu.c **** **
1622:../Generated_Code/Cpu.c **** **     Description :
1623:../Generated_Code/Cpu.c **** **         This ISR services an unused interrupt/exception vector.
1624:../Generated_Code/Cpu.c **** **         This method is internal. It is used by Processor Expert only.
1625:../Generated_Code/Cpu.c **** ** ===================================================================
1626:../Generated_Code/Cpu.c **** */
1627:../Generated_Code/Cpu.c **** PE_ISR(Cpu_ivINT_CMP2)
1628:../Generated_Code/Cpu.c **** {
 3129              		.loc 1 1628 0
 3130              		.cfi_startproc
 3131              		@ Stack Align: May be called with mis-aligned SP.
 3132              		@ args = 0, pretend = 0, frame = 0
 3133              		@ frame_needed = 1, uses_anonymous_args = 0
 3134              		@ link register save eliminated.
 3135 0000 6846     		mov	r0, sp
 3136              		.cfi_register 13, 0
 3137 0002 20F00701 		bic	r1, r0, #7
 3138 0006 8D46     		mov	sp, r1
 3139 0008 81B4     		push	{r0, r7}
 3140              		.cfi_def_cfa_offset 8
 3141              		.cfi_offset 13, -8
 3142              		.cfi_offset 7, -4
 3143 000a 00AF     		add	r7, sp, #0
 3144              		.cfi_def_cfa_register 7
1629:../Generated_Code/Cpu.c ****   /* This code can be changed using the CPU component property "Build Options / Unhandled int code"
1630:../Generated_Code/Cpu.c ****   PE_DEBUGHALT();
 3145              		.loc 1 1630 0
 3146              	@ 1630 "../Generated_Code/Cpu.c" 1
 3147 000c FFBE     		BKPT 255
 3148              	@ 0 "" 2
1631:../Generated_Code/Cpu.c **** }
 3149              		.loc 1 1631 0
 3150              		.thumb
 3151 000e BD46     		mov	sp, r7
 3152              		@ sp needed
 3153 0010 81BC     		pop	{r0, r7}
 3154 0012 8546     		mov	sp, r0
 3155 0014 7047     		bx	lr
 3156              		.cfi_endproc
 3157              	.LFE81:
 3159 0016 00BF     		.section	.text.Cpu_ivINT_FTM3,"ax",%progbits
 3160              		.align	2
 3161              		.global	Cpu_ivINT_FTM3
 3162              		.thumb
 3163              		.thumb_func
 3165              	Cpu_ivINT_FTM3:
 3166              	.LFB82:
1632:../Generated_Code/Cpu.c **** 
1633:../Generated_Code/Cpu.c **** /*
1634:../Generated_Code/Cpu.c **** ** ===================================================================
1635:../Generated_Code/Cpu.c **** **     Method      :  Cpu_Cpu_ivINT_FTM3 (component MK22FN1M0LK12)
1636:../Generated_Code/Cpu.c **** **
1637:../Generated_Code/Cpu.c **** **     Description :
1638:../Generated_Code/Cpu.c **** **         This ISR services an unused interrupt/exception vector.
1639:../Generated_Code/Cpu.c **** **         This method is internal. It is used by Processor Expert only.
1640:../Generated_Code/Cpu.c **** ** ===================================================================
1641:../Generated_Code/Cpu.c **** */
1642:../Generated_Code/Cpu.c **** PE_ISR(Cpu_ivINT_FTM3)
1643:../Generated_Code/Cpu.c **** {
 3167              		.loc 1 1643 0
 3168              		.cfi_startproc
 3169              		@ Stack Align: May be called with mis-aligned SP.
 3170              		@ args = 0, pretend = 0, frame = 0
 3171              		@ frame_needed = 1, uses_anonymous_args = 0
 3172              		@ link register save eliminated.
 3173 0000 6846     		mov	r0, sp
 3174              		.cfi_register 13, 0
 3175 0002 20F00701 		bic	r1, r0, #7
 3176 0006 8D46     		mov	sp, r1
 3177 0008 81B4     		push	{r0, r7}
 3178              		.cfi_def_cfa_offset 8
 3179              		.cfi_offset 13, -8
 3180              		.cfi_offset 7, -4
 3181 000a 00AF     		add	r7, sp, #0
 3182              		.cfi_def_cfa_register 7
1644:../Generated_Code/Cpu.c ****   /* This code can be changed using the CPU component property "Build Options / Unhandled int code"
1645:../Generated_Code/Cpu.c ****   PE_DEBUGHALT();
 3183              		.loc 1 1645 0
 3184              	@ 1645 "../Generated_Code/Cpu.c" 1
 3185 000c FFBE     		BKPT 255
 3186              	@ 0 "" 2
1646:../Generated_Code/Cpu.c **** }
 3187              		.loc 1 1646 0
 3188              		.thumb
 3189 000e BD46     		mov	sp, r7
 3190              		@ sp needed
 3191 0010 81BC     		pop	{r0, r7}
 3192 0012 8546     		mov	sp, r0
 3193 0014 7047     		bx	lr
 3194              		.cfi_endproc
 3195              	.LFE82:
 3197 0016 00BF     		.section	.text.Cpu_ivINT_Reserved88,"ax",%progbits
 3198              		.align	2
 3199              		.global	Cpu_ivINT_Reserved88
 3200              		.thumb
 3201              		.thumb_func
 3203              	Cpu_ivINT_Reserved88:
 3204              	.LFB83:
1647:../Generated_Code/Cpu.c **** 
1648:../Generated_Code/Cpu.c **** /*
1649:../Generated_Code/Cpu.c **** ** ===================================================================
1650:../Generated_Code/Cpu.c **** **     Method      :  Cpu_Cpu_ivINT_Reserved88 (component MK22FN1M0LK12)
1651:../Generated_Code/Cpu.c **** **
1652:../Generated_Code/Cpu.c **** **     Description :
1653:../Generated_Code/Cpu.c **** **         This ISR services an unused interrupt/exception vector.
1654:../Generated_Code/Cpu.c **** **         This method is internal. It is used by Processor Expert only.
1655:../Generated_Code/Cpu.c **** ** ===================================================================
1656:../Generated_Code/Cpu.c **** */
1657:../Generated_Code/Cpu.c **** PE_ISR(Cpu_ivINT_Reserved88)
1658:../Generated_Code/Cpu.c **** {
 3205              		.loc 1 1658 0
 3206              		.cfi_startproc
 3207              		@ Stack Align: May be called with mis-aligned SP.
 3208              		@ args = 0, pretend = 0, frame = 0
 3209              		@ frame_needed = 1, uses_anonymous_args = 0
 3210              		@ link register save eliminated.
 3211 0000 6846     		mov	r0, sp
 3212              		.cfi_register 13, 0
 3213 0002 20F00701 		bic	r1, r0, #7
 3214 0006 8D46     		mov	sp, r1
 3215 0008 81B4     		push	{r0, r7}
 3216              		.cfi_def_cfa_offset 8
 3217              		.cfi_offset 13, -8
 3218              		.cfi_offset 7, -4
 3219 000a 00AF     		add	r7, sp, #0
 3220              		.cfi_def_cfa_register 7
1659:../Generated_Code/Cpu.c ****   /* This code can be changed using the CPU component property "Build Options / Unhandled int code"
1660:../Generated_Code/Cpu.c ****   PE_DEBUGHALT();
 3221              		.loc 1 1660 0
 3222              	@ 1660 "../Generated_Code/Cpu.c" 1
 3223 000c FFBE     		BKPT 255
 3224              	@ 0 "" 2
1661:../Generated_Code/Cpu.c **** }
 3225              		.loc 1 1661 0
 3226              		.thumb
 3227 000e BD46     		mov	sp, r7
 3228              		@ sp needed
 3229 0010 81BC     		pop	{r0, r7}
 3230 0012 8546     		mov	sp, r0
 3231 0014 7047     		bx	lr
 3232              		.cfi_endproc
 3233              	.LFE83:
 3235 0016 00BF     		.section	.text.Cpu_ivINT_ADC1,"ax",%progbits
 3236              		.align	2
 3237              		.global	Cpu_ivINT_ADC1
 3238              		.thumb
 3239              		.thumb_func
 3241              	Cpu_ivINT_ADC1:
 3242              	.LFB84:
1662:../Generated_Code/Cpu.c **** 
1663:../Generated_Code/Cpu.c **** /*
1664:../Generated_Code/Cpu.c **** ** ===================================================================
1665:../Generated_Code/Cpu.c **** **     Method      :  Cpu_Cpu_ivINT_ADC1 (component MK22FN1M0LK12)
1666:../Generated_Code/Cpu.c **** **
1667:../Generated_Code/Cpu.c **** **     Description :
1668:../Generated_Code/Cpu.c **** **         This ISR services an unused interrupt/exception vector.
1669:../Generated_Code/Cpu.c **** **         This method is internal. It is used by Processor Expert only.
1670:../Generated_Code/Cpu.c **** ** ===================================================================
1671:../Generated_Code/Cpu.c **** */
1672:../Generated_Code/Cpu.c **** PE_ISR(Cpu_ivINT_ADC1)
1673:../Generated_Code/Cpu.c **** {
 3243              		.loc 1 1673 0
 3244              		.cfi_startproc
 3245              		@ Stack Align: May be called with mis-aligned SP.
 3246              		@ args = 0, pretend = 0, frame = 0
 3247              		@ frame_needed = 1, uses_anonymous_args = 0
 3248              		@ link register save eliminated.
 3249 0000 6846     		mov	r0, sp
 3250              		.cfi_register 13, 0
 3251 0002 20F00701 		bic	r1, r0, #7
 3252 0006 8D46     		mov	sp, r1
 3253 0008 81B4     		push	{r0, r7}
 3254              		.cfi_def_cfa_offset 8
 3255              		.cfi_offset 13, -8
 3256              		.cfi_offset 7, -4
 3257 000a 00AF     		add	r7, sp, #0
 3258              		.cfi_def_cfa_register 7
1674:../Generated_Code/Cpu.c ****   /* This code can be changed using the CPU component property "Build Options / Unhandled int code"
1675:../Generated_Code/Cpu.c ****   PE_DEBUGHALT();
 3259              		.loc 1 1675 0
 3260              	@ 1675 "../Generated_Code/Cpu.c" 1
 3261 000c FFBE     		BKPT 255
 3262              	@ 0 "" 2
1676:../Generated_Code/Cpu.c **** }
 3263              		.loc 1 1676 0
 3264              		.thumb
 3265 000e BD46     		mov	sp, r7
 3266              		@ sp needed
 3267 0010 81BC     		pop	{r0, r7}
 3268 0012 8546     		mov	sp, r0
 3269 0014 7047     		bx	lr
 3270              		.cfi_endproc
 3271              	.LFE84:
 3273 0016 00BF     		.section	.text.Cpu_ivINT_I2C2,"ax",%progbits
 3274              		.align	2
 3275              		.global	Cpu_ivINT_I2C2
 3276              		.thumb
 3277              		.thumb_func
 3279              	Cpu_ivINT_I2C2:
 3280              	.LFB85:
1677:../Generated_Code/Cpu.c **** 
1678:../Generated_Code/Cpu.c **** /*
1679:../Generated_Code/Cpu.c **** ** ===================================================================
1680:../Generated_Code/Cpu.c **** **     Method      :  Cpu_Cpu_ivINT_I2C2 (component MK22FN1M0LK12)
1681:../Generated_Code/Cpu.c **** **
1682:../Generated_Code/Cpu.c **** **     Description :
1683:../Generated_Code/Cpu.c **** **         This ISR services an unused interrupt/exception vector.
1684:../Generated_Code/Cpu.c **** **         This method is internal. It is used by Processor Expert only.
1685:../Generated_Code/Cpu.c **** ** ===================================================================
1686:../Generated_Code/Cpu.c **** */
1687:../Generated_Code/Cpu.c **** PE_ISR(Cpu_ivINT_I2C2)
1688:../Generated_Code/Cpu.c **** {
 3281              		.loc 1 1688 0
 3282              		.cfi_startproc
 3283              		@ Stack Align: May be called with mis-aligned SP.
 3284              		@ args = 0, pretend = 0, frame = 0
 3285              		@ frame_needed = 1, uses_anonymous_args = 0
 3286              		@ link register save eliminated.
 3287 0000 6846     		mov	r0, sp
 3288              		.cfi_register 13, 0
 3289 0002 20F00701 		bic	r1, r0, #7
 3290 0006 8D46     		mov	sp, r1
 3291 0008 81B4     		push	{r0, r7}
 3292              		.cfi_def_cfa_offset 8
 3293              		.cfi_offset 13, -8
 3294              		.cfi_offset 7, -4
 3295 000a 00AF     		add	r7, sp, #0
 3296              		.cfi_def_cfa_register 7
1689:../Generated_Code/Cpu.c ****   /* This code can be changed using the CPU component property "Build Options / Unhandled int code"
1690:../Generated_Code/Cpu.c ****   PE_DEBUGHALT();
 3297              		.loc 1 1690 0
 3298              	@ 1690 "../Generated_Code/Cpu.c" 1
 3299 000c FFBE     		BKPT 255
 3300              	@ 0 "" 2
1691:../Generated_Code/Cpu.c **** }
 3301              		.loc 1 1691 0
 3302              		.thumb
 3303 000e BD46     		mov	sp, r7
 3304              		@ sp needed
 3305 0010 81BC     		pop	{r0, r7}
 3306 0012 8546     		mov	sp, r0
 3307 0014 7047     		bx	lr
 3308              		.cfi_endproc
 3309              	.LFE85:
 3311 0016 00BF     		.section	.text.Cpu_ivINT_CAN0_ORed_Message_buffer,"ax",%progbits
 3312              		.align	2
 3313              		.global	Cpu_ivINT_CAN0_ORed_Message_buffer
 3314              		.thumb
 3315              		.thumb_func
 3317              	Cpu_ivINT_CAN0_ORed_Message_buffer:
 3318              	.LFB86:
1692:../Generated_Code/Cpu.c **** 
1693:../Generated_Code/Cpu.c **** /*
1694:../Generated_Code/Cpu.c **** ** ===================================================================
1695:../Generated_Code/Cpu.c **** **     Method      :  Cpu_Cpu_ivINT_CAN0_ORed_Message_buffer (component MK22FN1M0LK12)
1696:../Generated_Code/Cpu.c **** **
1697:../Generated_Code/Cpu.c **** **     Description :
1698:../Generated_Code/Cpu.c **** **         This ISR services an unused interrupt/exception vector.
1699:../Generated_Code/Cpu.c **** **         This method is internal. It is used by Processor Expert only.
1700:../Generated_Code/Cpu.c **** ** ===================================================================
1701:../Generated_Code/Cpu.c **** */
1702:../Generated_Code/Cpu.c **** PE_ISR(Cpu_ivINT_CAN0_ORed_Message_buffer)
1703:../Generated_Code/Cpu.c **** {
 3319              		.loc 1 1703 0
 3320              		.cfi_startproc
 3321              		@ Stack Align: May be called with mis-aligned SP.
 3322              		@ args = 0, pretend = 0, frame = 0
 3323              		@ frame_needed = 1, uses_anonymous_args = 0
 3324              		@ link register save eliminated.
 3325 0000 6846     		mov	r0, sp
 3326              		.cfi_register 13, 0
 3327 0002 20F00701 		bic	r1, r0, #7
 3328 0006 8D46     		mov	sp, r1
 3329 0008 81B4     		push	{r0, r7}
 3330              		.cfi_def_cfa_offset 8
 3331              		.cfi_offset 13, -8
 3332              		.cfi_offset 7, -4
 3333 000a 00AF     		add	r7, sp, #0
 3334              		.cfi_def_cfa_register 7
1704:../Generated_Code/Cpu.c ****   /* This code can be changed using the CPU component property "Build Options / Unhandled int code"
1705:../Generated_Code/Cpu.c ****   PE_DEBUGHALT();
 3335              		.loc 1 1705 0
 3336              	@ 1705 "../Generated_Code/Cpu.c" 1
 3337 000c FFBE     		BKPT 255
 3338              	@ 0 "" 2
1706:../Generated_Code/Cpu.c **** }
 3339              		.loc 1 1706 0
 3340              		.thumb
 3341 000e BD46     		mov	sp, r7
 3342              		@ sp needed
 3343 0010 81BC     		pop	{r0, r7}
 3344 0012 8546     		mov	sp, r0
 3345 0014 7047     		bx	lr
 3346              		.cfi_endproc
 3347              	.LFE86:
 3349 0016 00BF     		.section	.text.Cpu_ivINT_CAN0_Bus_Off,"ax",%progbits
 3350              		.align	2
 3351              		.global	Cpu_ivINT_CAN0_Bus_Off
 3352              		.thumb
 3353              		.thumb_func
 3355              	Cpu_ivINT_CAN0_Bus_Off:
 3356              	.LFB87:
1707:../Generated_Code/Cpu.c **** 
1708:../Generated_Code/Cpu.c **** /*
1709:../Generated_Code/Cpu.c **** ** ===================================================================
1710:../Generated_Code/Cpu.c **** **     Method      :  Cpu_Cpu_ivINT_CAN0_Bus_Off (component MK22FN1M0LK12)
1711:../Generated_Code/Cpu.c **** **
1712:../Generated_Code/Cpu.c **** **     Description :
1713:../Generated_Code/Cpu.c **** **         This ISR services an unused interrupt/exception vector.
1714:../Generated_Code/Cpu.c **** **         This method is internal. It is used by Processor Expert only.
1715:../Generated_Code/Cpu.c **** ** ===================================================================
1716:../Generated_Code/Cpu.c **** */
1717:../Generated_Code/Cpu.c **** PE_ISR(Cpu_ivINT_CAN0_Bus_Off)
1718:../Generated_Code/Cpu.c **** {
 3357              		.loc 1 1718 0
 3358              		.cfi_startproc
 3359              		@ Stack Align: May be called with mis-aligned SP.
 3360              		@ args = 0, pretend = 0, frame = 0
 3361              		@ frame_needed = 1, uses_anonymous_args = 0
 3362              		@ link register save eliminated.
 3363 0000 6846     		mov	r0, sp
 3364              		.cfi_register 13, 0
 3365 0002 20F00701 		bic	r1, r0, #7
 3366 0006 8D46     		mov	sp, r1
 3367 0008 81B4     		push	{r0, r7}
 3368              		.cfi_def_cfa_offset 8
 3369              		.cfi_offset 13, -8
 3370              		.cfi_offset 7, -4
 3371 000a 00AF     		add	r7, sp, #0
 3372              		.cfi_def_cfa_register 7
1719:../Generated_Code/Cpu.c ****   /* This code can be changed using the CPU component property "Build Options / Unhandled int code"
1720:../Generated_Code/Cpu.c ****   PE_DEBUGHALT();
 3373              		.loc 1 1720 0
 3374              	@ 1720 "../Generated_Code/Cpu.c" 1
 3375 000c FFBE     		BKPT 255
 3376              	@ 0 "" 2
1721:../Generated_Code/Cpu.c **** }
 3377              		.loc 1 1721 0
 3378              		.thumb
 3379 000e BD46     		mov	sp, r7
 3380              		@ sp needed
 3381 0010 81BC     		pop	{r0, r7}
 3382 0012 8546     		mov	sp, r0
 3383 0014 7047     		bx	lr
 3384              		.cfi_endproc
 3385              	.LFE87:
 3387 0016 00BF     		.section	.text.Cpu_ivINT_CAN0_Error,"ax",%progbits
 3388              		.align	2
 3389              		.global	Cpu_ivINT_CAN0_Error
 3390              		.thumb
 3391              		.thumb_func
 3393              	Cpu_ivINT_CAN0_Error:
 3394              	.LFB88:
1722:../Generated_Code/Cpu.c **** 
1723:../Generated_Code/Cpu.c **** /*
1724:../Generated_Code/Cpu.c **** ** ===================================================================
1725:../Generated_Code/Cpu.c **** **     Method      :  Cpu_Cpu_ivINT_CAN0_Error (component MK22FN1M0LK12)
1726:../Generated_Code/Cpu.c **** **
1727:../Generated_Code/Cpu.c **** **     Description :
1728:../Generated_Code/Cpu.c **** **         This ISR services an unused interrupt/exception vector.
1729:../Generated_Code/Cpu.c **** **         This method is internal. It is used by Processor Expert only.
1730:../Generated_Code/Cpu.c **** ** ===================================================================
1731:../Generated_Code/Cpu.c **** */
1732:../Generated_Code/Cpu.c **** PE_ISR(Cpu_ivINT_CAN0_Error)
1733:../Generated_Code/Cpu.c **** {
 3395              		.loc 1 1733 0
 3396              		.cfi_startproc
 3397              		@ Stack Align: May be called with mis-aligned SP.
 3398              		@ args = 0, pretend = 0, frame = 0
 3399              		@ frame_needed = 1, uses_anonymous_args = 0
 3400              		@ link register save eliminated.
 3401 0000 6846     		mov	r0, sp
 3402              		.cfi_register 13, 0
 3403 0002 20F00701 		bic	r1, r0, #7
 3404 0006 8D46     		mov	sp, r1
 3405 0008 81B4     		push	{r0, r7}
 3406              		.cfi_def_cfa_offset 8
 3407              		.cfi_offset 13, -8
 3408              		.cfi_offset 7, -4
 3409 000a 00AF     		add	r7, sp, #0
 3410              		.cfi_def_cfa_register 7
1734:../Generated_Code/Cpu.c ****   /* This code can be changed using the CPU component property "Build Options / Unhandled int code"
1735:../Generated_Code/Cpu.c ****   PE_DEBUGHALT();
 3411              		.loc 1 1735 0
 3412              	@ 1735 "../Generated_Code/Cpu.c" 1
 3413 000c FFBE     		BKPT 255
 3414              	@ 0 "" 2
1736:../Generated_Code/Cpu.c **** }
 3415              		.loc 1 1736 0
 3416              		.thumb
 3417 000e BD46     		mov	sp, r7
 3418              		@ sp needed
 3419 0010 81BC     		pop	{r0, r7}
 3420 0012 8546     		mov	sp, r0
 3421 0014 7047     		bx	lr
 3422              		.cfi_endproc
 3423              	.LFE88:
 3425 0016 00BF     		.section	.text.Cpu_ivINT_CAN0_Tx_Warning,"ax",%progbits
 3426              		.align	2
 3427              		.global	Cpu_ivINT_CAN0_Tx_Warning
 3428              		.thumb
 3429              		.thumb_func
 3431              	Cpu_ivINT_CAN0_Tx_Warning:
 3432              	.LFB89:
1737:../Generated_Code/Cpu.c **** 
1738:../Generated_Code/Cpu.c **** /*
1739:../Generated_Code/Cpu.c **** ** ===================================================================
1740:../Generated_Code/Cpu.c **** **     Method      :  Cpu_Cpu_ivINT_CAN0_Tx_Warning (component MK22FN1M0LK12)
1741:../Generated_Code/Cpu.c **** **
1742:../Generated_Code/Cpu.c **** **     Description :
1743:../Generated_Code/Cpu.c **** **         This ISR services an unused interrupt/exception vector.
1744:../Generated_Code/Cpu.c **** **         This method is internal. It is used by Processor Expert only.
1745:../Generated_Code/Cpu.c **** ** ===================================================================
1746:../Generated_Code/Cpu.c **** */
1747:../Generated_Code/Cpu.c **** PE_ISR(Cpu_ivINT_CAN0_Tx_Warning)
1748:../Generated_Code/Cpu.c **** {
 3433              		.loc 1 1748 0
 3434              		.cfi_startproc
 3435              		@ Stack Align: May be called with mis-aligned SP.
 3436              		@ args = 0, pretend = 0, frame = 0
 3437              		@ frame_needed = 1, uses_anonymous_args = 0
 3438              		@ link register save eliminated.
 3439 0000 6846     		mov	r0, sp
 3440              		.cfi_register 13, 0
 3441 0002 20F00701 		bic	r1, r0, #7
 3442 0006 8D46     		mov	sp, r1
 3443 0008 81B4     		push	{r0, r7}
 3444              		.cfi_def_cfa_offset 8
 3445              		.cfi_offset 13, -8
 3446              		.cfi_offset 7, -4
 3447 000a 00AF     		add	r7, sp, #0
 3448              		.cfi_def_cfa_register 7
1749:../Generated_Code/Cpu.c ****   /* This code can be changed using the CPU component property "Build Options / Unhandled int code"
1750:../Generated_Code/Cpu.c ****   PE_DEBUGHALT();
 3449              		.loc 1 1750 0
 3450              	@ 1750 "../Generated_Code/Cpu.c" 1
 3451 000c FFBE     		BKPT 255
 3452              	@ 0 "" 2
1751:../Generated_Code/Cpu.c **** }
 3453              		.loc 1 1751 0
 3454              		.thumb
 3455 000e BD46     		mov	sp, r7
 3456              		@ sp needed
 3457 0010 81BC     		pop	{r0, r7}
 3458 0012 8546     		mov	sp, r0
 3459 0014 7047     		bx	lr
 3460              		.cfi_endproc
 3461              	.LFE89:
 3463 0016 00BF     		.section	.text.Cpu_ivINT_CAN0_Rx_Warning,"ax",%progbits
 3464              		.align	2
 3465              		.global	Cpu_ivINT_CAN0_Rx_Warning
 3466              		.thumb
 3467              		.thumb_func
 3469              	Cpu_ivINT_CAN0_Rx_Warning:
 3470              	.LFB90:
1752:../Generated_Code/Cpu.c **** 
1753:../Generated_Code/Cpu.c **** /*
1754:../Generated_Code/Cpu.c **** ** ===================================================================
1755:../Generated_Code/Cpu.c **** **     Method      :  Cpu_Cpu_ivINT_CAN0_Rx_Warning (component MK22FN1M0LK12)
1756:../Generated_Code/Cpu.c **** **
1757:../Generated_Code/Cpu.c **** **     Description :
1758:../Generated_Code/Cpu.c **** **         This ISR services an unused interrupt/exception vector.
1759:../Generated_Code/Cpu.c **** **         This method is internal. It is used by Processor Expert only.
1760:../Generated_Code/Cpu.c **** ** ===================================================================
1761:../Generated_Code/Cpu.c **** */
1762:../Generated_Code/Cpu.c **** PE_ISR(Cpu_ivINT_CAN0_Rx_Warning)
1763:../Generated_Code/Cpu.c **** {
 3471              		.loc 1 1763 0
 3472              		.cfi_startproc
 3473              		@ Stack Align: May be called with mis-aligned SP.
 3474              		@ args = 0, pretend = 0, frame = 0
 3475              		@ frame_needed = 1, uses_anonymous_args = 0
 3476              		@ link register save eliminated.
 3477 0000 6846     		mov	r0, sp
 3478              		.cfi_register 13, 0
 3479 0002 20F00701 		bic	r1, r0, #7
 3480 0006 8D46     		mov	sp, r1
 3481 0008 81B4     		push	{r0, r7}
 3482              		.cfi_def_cfa_offset 8
 3483              		.cfi_offset 13, -8
 3484              		.cfi_offset 7, -4
 3485 000a 00AF     		add	r7, sp, #0
 3486              		.cfi_def_cfa_register 7
1764:../Generated_Code/Cpu.c ****   /* This code can be changed using the CPU component property "Build Options / Unhandled int code"
1765:../Generated_Code/Cpu.c ****   PE_DEBUGHALT();
 3487              		.loc 1 1765 0
 3488              	@ 1765 "../Generated_Code/Cpu.c" 1
 3489 000c FFBE     		BKPT 255
 3490              	@ 0 "" 2
1766:../Generated_Code/Cpu.c **** }
 3491              		.loc 1 1766 0
 3492              		.thumb
 3493 000e BD46     		mov	sp, r7
 3494              		@ sp needed
 3495 0010 81BC     		pop	{r0, r7}
 3496 0012 8546     		mov	sp, r0
 3497 0014 7047     		bx	lr
 3498              		.cfi_endproc
 3499              	.LFE90:
 3501 0016 00BF     		.section	.text.Cpu_ivINT_CAN0_Wake_Up,"ax",%progbits
 3502              		.align	2
 3503              		.global	Cpu_ivINT_CAN0_Wake_Up
 3504              		.thumb
 3505              		.thumb_func
 3507              	Cpu_ivINT_CAN0_Wake_Up:
 3508              	.LFB91:
1767:../Generated_Code/Cpu.c **** 
1768:../Generated_Code/Cpu.c **** /*
1769:../Generated_Code/Cpu.c **** ** ===================================================================
1770:../Generated_Code/Cpu.c **** **     Method      :  Cpu_Cpu_ivINT_CAN0_Wake_Up (component MK22FN1M0LK12)
1771:../Generated_Code/Cpu.c **** **
1772:../Generated_Code/Cpu.c **** **     Description :
1773:../Generated_Code/Cpu.c **** **         This ISR services an unused interrupt/exception vector.
1774:../Generated_Code/Cpu.c **** **         This method is internal. It is used by Processor Expert only.
1775:../Generated_Code/Cpu.c **** ** ===================================================================
1776:../Generated_Code/Cpu.c **** */
1777:../Generated_Code/Cpu.c **** PE_ISR(Cpu_ivINT_CAN0_Wake_Up)
1778:../Generated_Code/Cpu.c **** {
 3509              		.loc 1 1778 0
 3510              		.cfi_startproc
 3511              		@ Stack Align: May be called with mis-aligned SP.
 3512              		@ args = 0, pretend = 0, frame = 0
 3513              		@ frame_needed = 1, uses_anonymous_args = 0
 3514              		@ link register save eliminated.
 3515 0000 6846     		mov	r0, sp
 3516              		.cfi_register 13, 0
 3517 0002 20F00701 		bic	r1, r0, #7
 3518 0006 8D46     		mov	sp, r1
 3519 0008 81B4     		push	{r0, r7}
 3520              		.cfi_def_cfa_offset 8
 3521              		.cfi_offset 13, -8
 3522              		.cfi_offset 7, -4
 3523 000a 00AF     		add	r7, sp, #0
 3524              		.cfi_def_cfa_register 7
1779:../Generated_Code/Cpu.c ****   /* This code can be changed using the CPU component property "Build Options / Unhandled int code"
1780:../Generated_Code/Cpu.c ****   PE_DEBUGHALT();
 3525              		.loc 1 1780 0
 3526              	@ 1780 "../Generated_Code/Cpu.c" 1
 3527 000c FFBE     		BKPT 255
 3528              	@ 0 "" 2
1781:../Generated_Code/Cpu.c **** }
 3529              		.loc 1 1781 0
 3530              		.thumb
 3531 000e BD46     		mov	sp, r7
 3532              		@ sp needed
 3533 0010 81BC     		pop	{r0, r7}
 3534 0012 8546     		mov	sp, r0
 3535 0014 7047     		bx	lr
 3536              		.cfi_endproc
 3537              	.LFE91:
 3539 0016 00BF     		.section	.text.Cpu_ivINT_SDHC,"ax",%progbits
 3540              		.align	2
 3541              		.global	Cpu_ivINT_SDHC
 3542              		.thumb
 3543              		.thumb_func
 3545              	Cpu_ivINT_SDHC:
 3546              	.LFB92:
1782:../Generated_Code/Cpu.c **** 
1783:../Generated_Code/Cpu.c **** /*
1784:../Generated_Code/Cpu.c **** ** ===================================================================
1785:../Generated_Code/Cpu.c **** **     Method      :  Cpu_Cpu_ivINT_SDHC (component MK22FN1M0LK12)
1786:../Generated_Code/Cpu.c **** **
1787:../Generated_Code/Cpu.c **** **     Description :
1788:../Generated_Code/Cpu.c **** **         This ISR services an unused interrupt/exception vector.
1789:../Generated_Code/Cpu.c **** **         This method is internal. It is used by Processor Expert only.
1790:../Generated_Code/Cpu.c **** ** ===================================================================
1791:../Generated_Code/Cpu.c **** */
1792:../Generated_Code/Cpu.c **** PE_ISR(Cpu_ivINT_SDHC)
1793:../Generated_Code/Cpu.c **** {
 3547              		.loc 1 1793 0
 3548              		.cfi_startproc
 3549              		@ Stack Align: May be called with mis-aligned SP.
 3550              		@ args = 0, pretend = 0, frame = 0
 3551              		@ frame_needed = 1, uses_anonymous_args = 0
 3552              		@ link register save eliminated.
 3553 0000 6846     		mov	r0, sp
 3554              		.cfi_register 13, 0
 3555 0002 20F00701 		bic	r1, r0, #7
 3556 0006 8D46     		mov	sp, r1
 3557 0008 81B4     		push	{r0, r7}
 3558              		.cfi_def_cfa_offset 8
 3559              		.cfi_offset 13, -8
 3560              		.cfi_offset 7, -4
 3561 000a 00AF     		add	r7, sp, #0
 3562              		.cfi_def_cfa_register 7
1794:../Generated_Code/Cpu.c ****   /* This code can be changed using the CPU component property "Build Options / Unhandled int code"
1795:../Generated_Code/Cpu.c ****   PE_DEBUGHALT();
 3563              		.loc 1 1795 0
 3564              	@ 1795 "../Generated_Code/Cpu.c" 1
 3565 000c FFBE     		BKPT 255
 3566              	@ 0 "" 2
1796:../Generated_Code/Cpu.c **** }
 3567              		.loc 1 1796 0
 3568              		.thumb
 3569 000e BD46     		mov	sp, r7
 3570              		@ sp needed
 3571 0010 81BC     		pop	{r0, r7}
 3572 0012 8546     		mov	sp, r0
 3573 0014 7047     		bx	lr
 3574              		.cfi_endproc
 3575              	.LFE92:
 3577 0016 00BF     		.section	.text.Cpu_EnableInt,"ax",%progbits
 3578              		.align	2
 3579              		.global	Cpu_EnableInt
 3580              		.thumb
 3581              		.thumb_func
 3583              	Cpu_EnableInt:
 3584              	.LFB93:
1797:../Generated_Code/Cpu.c **** 
1798:../Generated_Code/Cpu.c **** /*
1799:../Generated_Code/Cpu.c **** ** ===================================================================
1800:../Generated_Code/Cpu.c **** **     Method      :  Cpu_EnableInt (component MK22FN1M0LK12)
1801:../Generated_Code/Cpu.c **** */
1802:../Generated_Code/Cpu.c **** /*!
1803:../Generated_Code/Cpu.c **** **     @brief
1804:../Generated_Code/Cpu.c **** **         Enables all maskable interrupts.
1805:../Generated_Code/Cpu.c **** */
1806:../Generated_Code/Cpu.c **** /* ===================================================================*/
1807:../Generated_Code/Cpu.c **** void Cpu_EnableInt(void)
1808:../Generated_Code/Cpu.c **** {
 3585              		.loc 1 1808 0
 3586              		.cfi_startproc
 3587              		@ args = 0, pretend = 0, frame = 0
 3588              		@ frame_needed = 1, uses_anonymous_args = 0
 3589              		@ link register save eliminated.
 3590 0000 80B4     		push	{r7}
 3591              		.cfi_def_cfa_offset 4
 3592              		.cfi_offset 7, -4
 3593 0002 00AF     		add	r7, sp, #0
 3594              		.cfi_def_cfa_register 7
1809:../Generated_Code/Cpu.c ****  __EI();
 3595              		.loc 1 1809 0
 3596              	@ 1809 "../Generated_Code/Cpu.c" 1
 3597 0004 61B6     		CPSIE f
 3598              	@ 0 "" 2
1810:../Generated_Code/Cpu.c **** }
 3599              		.loc 1 1810 0
 3600              		.thumb
 3601 0006 BD46     		mov	sp, r7
 3602              		@ sp needed
 3603 0008 5DF8047B 		ldr	r7, [sp], #4
 3604 000c 7047     		bx	lr
 3605              		.cfi_endproc
 3606              	.LFE93:
 3608 000e 00BF     		.section	.text.Cpu_DisableInt,"ax",%progbits
 3609              		.align	2
 3610              		.global	Cpu_DisableInt
 3611              		.thumb
 3612              		.thumb_func
 3614              	Cpu_DisableInt:
 3615              	.LFB94:
1811:../Generated_Code/Cpu.c **** 
1812:../Generated_Code/Cpu.c **** /*
1813:../Generated_Code/Cpu.c **** ** ===================================================================
1814:../Generated_Code/Cpu.c **** **     Method      :  Cpu_DisableInt (component MK22FN1M0LK12)
1815:../Generated_Code/Cpu.c **** */
1816:../Generated_Code/Cpu.c **** /*!
1817:../Generated_Code/Cpu.c **** **     @brief
1818:../Generated_Code/Cpu.c **** **         Disables all maskable interrupts.
1819:../Generated_Code/Cpu.c **** */
1820:../Generated_Code/Cpu.c **** /* ===================================================================*/
1821:../Generated_Code/Cpu.c **** void Cpu_DisableInt(void)
1822:../Generated_Code/Cpu.c **** {
 3616              		.loc 1 1822 0
 3617              		.cfi_startproc
 3618              		@ args = 0, pretend = 0, frame = 0
 3619              		@ frame_needed = 1, uses_anonymous_args = 0
 3620              		@ link register save eliminated.
 3621 0000 80B4     		push	{r7}
 3622              		.cfi_def_cfa_offset 4
 3623              		.cfi_offset 7, -4
 3624 0002 00AF     		add	r7, sp, #0
 3625              		.cfi_def_cfa_register 7
1823:../Generated_Code/Cpu.c ****  __DI();
 3626              		.loc 1 1823 0
 3627              	@ 1823 "../Generated_Code/Cpu.c" 1
 3628 0004 71B6     		CPSID f
 3629              	@ 0 "" 2
1824:../Generated_Code/Cpu.c **** }
 3630              		.loc 1 1824 0
 3631              		.thumb
 3632 0006 BD46     		mov	sp, r7
 3633              		@ sp needed
 3634 0008 5DF8047B 		ldr	r7, [sp], #4
 3635 000c 7047     		bx	lr
 3636              		.cfi_endproc
 3637              	.LFE94:
 3639 000e 00BF     		.section	.text.__init_hardware,"ax",%progbits
 3640              		.align	2
 3641              		.global	__init_hardware
 3642              		.thumb
 3643              		.thumb_func
 3645              	__init_hardware:
 3646              	.LFB95:
1825:../Generated_Code/Cpu.c **** 
1826:../Generated_Code/Cpu.c **** 
1827:../Generated_Code/Cpu.c **** /*** !!! Here you can place your own code using property "User data declarations" on the build opti
1828:../Generated_Code/Cpu.c **** 
1829:../Generated_Code/Cpu.c **** /*lint -esym(765,__init_hardware) Disable MISRA rule (8.10) checking for symbols (__init_hardware).
1830:../Generated_Code/Cpu.c **** /*lint -esym(765,Cpu_Interrupt) Disable MISRA rule (8.10) checking for symbols (Cpu_Interrupt). */
1831:../Generated_Code/Cpu.c **** void __init_hardware(void)
1832:../Generated_Code/Cpu.c **** {
 3647              		.loc 1 1832 0
 3648              		.cfi_startproc
 3649              		@ args = 0, pretend = 0, frame = 0
 3650              		@ frame_needed = 1, uses_anonymous_args = 0
 3651              		@ link register save eliminated.
 3652 0000 80B4     		push	{r7}
 3653              		.cfi_def_cfa_offset 4
 3654              		.cfi_offset 7, -4
 3655 0002 00AF     		add	r7, sp, #0
 3656              		.cfi_def_cfa_register 7
1833:../Generated_Code/Cpu.c **** 
1834:../Generated_Code/Cpu.c ****   /*** !!! Here you can place your own code before PE initialization using property "User code befo
1835:../Generated_Code/Cpu.c **** 
1836:../Generated_Code/Cpu.c ****   /*** ### MK22FX512VLK12 "Cpu" init code ... ***/
1837:../Generated_Code/Cpu.c ****   /*** PE initialization code after reset ***/
1838:../Generated_Code/Cpu.c ****   SCB_VTOR = (uint32_t)(&__vect_table); /* Set the interrupt vector table position */
 3657              		.loc 1 1838 0
 3658 0004 4FF0E023 		mov	r3, #-536813568
 3659 0008 584A     		ldr	r2, .L104
 3660 000a C3F8082D 		str	r2, [r3, #3336]
1839:../Generated_Code/Cpu.c ****   /* Disable the WDOG module */
1840:../Generated_Code/Cpu.c ****   /* WDOG_UNLOCK: WDOGUNLOCK=0xC520 */
1841:../Generated_Code/Cpu.c ****   WDOG_UNLOCK = WDOG_UNLOCK_WDOGUNLOCK(0xC520); /* Key 1 */
 3661              		.loc 1 1841 0
 3662 000e 584B     		ldr	r3, .L104+4
 3663 0010 4CF22052 		movw	r2, #50464
 3664 0014 DA81     		strh	r2, [r3, #14]	@ movhi
1842:../Generated_Code/Cpu.c ****   /* WDOG_UNLOCK: WDOGUNLOCK=0xD928 */
1843:../Generated_Code/Cpu.c ****   WDOG_UNLOCK = WDOG_UNLOCK_WDOGUNLOCK(0xD928); /* Key 2 */
 3665              		.loc 1 1843 0
 3666 0016 564B     		ldr	r3, .L104+4
 3667 0018 4DF62812 		movw	r2, #55592
 3668 001c DA81     		strh	r2, [r3, #14]	@ movhi
1844:../Generated_Code/Cpu.c ****   /* WDOG_STCTRLH: ??=0,DISTESTWDOG=0,BYTESEL=0,TESTSEL=0,TESTWDOG=0,??=0,??=1,WAITEN=1,STOPEN=1,DB
1845:../Generated_Code/Cpu.c ****   WDOG_STCTRLH = WDOG_STCTRLH_BYTESEL(0x00) |
 3669              		.loc 1 1845 0
 3670 001e 544B     		ldr	r3, .L104+4
 3671 0020 4FF4E972 		mov	r2, #466
 3672 0024 1A80     		strh	r2, [r3]	@ movhi
1846:../Generated_Code/Cpu.c ****                  WDOG_STCTRLH_WAITEN_MASK |
1847:../Generated_Code/Cpu.c ****                  WDOG_STCTRLH_STOPEN_MASK |
1848:../Generated_Code/Cpu.c ****                  WDOG_STCTRLH_ALLOWUPDATE_MASK |
1849:../Generated_Code/Cpu.c ****                  WDOG_STCTRLH_CLKSRC_MASK |
1850:../Generated_Code/Cpu.c ****                  0x0100U;
1851:../Generated_Code/Cpu.c **** 
1852:../Generated_Code/Cpu.c ****   /* System clock initialization */
1853:../Generated_Code/Cpu.c ****   /* SIM_CLKDIV1: OUTDIV1=0,OUTDIV2=1,OUTDIV3=3,OUTDIV4=3,??=0,??=0,??=0,??=0,??=0,??=0,??=0,??=0,?
1854:../Generated_Code/Cpu.c ****   SIM_CLKDIV1 = SIM_CLKDIV1_OUTDIV1(0x00) |
 3673              		.loc 1 1854 0
 3674 0026 534B     		ldr	r3, .L104+8
 3675 0028 03F58253 		add	r3, r3, #4160
 3676 002c 0433     		adds	r3, r3, #4
 3677 002e 524A     		ldr	r2, .L104+12
 3678 0030 1A60     		str	r2, [r3]
1855:../Generated_Code/Cpu.c ****                 SIM_CLKDIV1_OUTDIV2(0x01) |
1856:../Generated_Code/Cpu.c ****                 SIM_CLKDIV1_OUTDIV3(0x03) |
1857:../Generated_Code/Cpu.c ****                 SIM_CLKDIV1_OUTDIV4(0x03); /* Set the system prescalers to safe value */
1858:../Generated_Code/Cpu.c ****   /* SIM_SCGC5: PORTD=1,PORTC=1,PORTA=1 */
1859:../Generated_Code/Cpu.c ****   SIM_SCGC5 |= SIM_SCGC5_PORTD_MASK |
 3679              		.loc 1 1859 0
 3680 0032 5049     		ldr	r1, .L104+8
 3681 0034 4F4B     		ldr	r3, .L104+8
 3682 0036 03F58153 		add	r3, r3, #4128
 3683 003a 1833     		adds	r3, r3, #24
 3684 003c 1B68     		ldr	r3, [r3]
 3685 003e 43F4D052 		orr	r2, r3, #6656
 3686 0042 01F58153 		add	r3, r1, #4128
 3687 0046 1833     		adds	r3, r3, #24
 3688 0048 1A60     		str	r2, [r3]
1860:../Generated_Code/Cpu.c ****                SIM_SCGC5_PORTC_MASK |
1861:../Generated_Code/Cpu.c ****                SIM_SCGC5_PORTA_MASK;   /* Enable clock gate for ports to enable pin routing */
1862:../Generated_Code/Cpu.c ****   if ((PMC_REGSC & PMC_REGSC_ACKISO_MASK) != 0x0U) {
 3689              		.loc 1 1862 0
 3690 004a 4C4B     		ldr	r3, .L104+16
 3691 004c 9B78     		ldrb	r3, [r3, #2]
 3692 004e DBB2     		uxtb	r3, r3
 3693 0050 03F00803 		and	r3, r3, #8
 3694 0054 002B     		cmp	r3, #0
 3695 0056 07D0     		beq	.L97
1863:../Generated_Code/Cpu.c ****     /* PMC_REGSC: ACKISO=1 */
1864:../Generated_Code/Cpu.c ****     PMC_REGSC |= PMC_REGSC_ACKISO_MASK; /* Release IO pads after wakeup from VLLS mode. */
 3696              		.loc 1 1864 0
 3697 0058 484B     		ldr	r3, .L104+16
 3698 005a 484A     		ldr	r2, .L104+16
 3699 005c 9278     		ldrb	r2, [r2, #2]
 3700 005e D2B2     		uxtb	r2, r2
 3701 0060 42F00802 		orr	r2, r2, #8
 3702 0064 D2B2     		uxtb	r2, r2
 3703 0066 9A70     		strb	r2, [r3, #2]
 3704              	.L97:
1865:../Generated_Code/Cpu.c ****   }
1866:../Generated_Code/Cpu.c ****   /* SIM_CLKDIV1: OUTDIV1=0,OUTDIV2=1,OUTDIV3=1,OUTDIV4=4,??=0,??=0,??=0,??=0,??=0,??=0,??=0,??=0,?
1867:../Generated_Code/Cpu.c ****   SIM_CLKDIV1 = SIM_CLKDIV1_OUTDIV1(0x00) |
 3705              		.loc 1 1867 0
 3706 0068 424B     		ldr	r3, .L104+8
 3707 006a 03F58253 		add	r3, r3, #4160
 3708 006e 0433     		adds	r3, r3, #4
 3709 0070 4FF08A72 		mov	r2, #18087936
 3710 0074 1A60     		str	r2, [r3]
1868:../Generated_Code/Cpu.c ****                 SIM_CLKDIV1_OUTDIV2(0x01) |
1869:../Generated_Code/Cpu.c ****                 SIM_CLKDIV1_OUTDIV3(0x01) |
1870:../Generated_Code/Cpu.c ****                 SIM_CLKDIV1_OUTDIV4(0x04); /* Update system prescalers */
1871:../Generated_Code/Cpu.c ****   /* SIM_SOPT2: PLLFLLSEL=1 */
1872:../Generated_Code/Cpu.c ****   SIM_SOPT2 |= SIM_SOPT2_PLLFLLSEL_MASK; /* Select PLL as a clock source for various peripherals */
 3711              		.loc 1 1872 0
 3712 0076 3F49     		ldr	r1, .L104+8
 3713 0078 3E4B     		ldr	r3, .L104+8
 3714 007a 03F58053 		add	r3, r3, #4096
 3715 007e 0433     		adds	r3, r3, #4
 3716 0080 1B68     		ldr	r3, [r3]
 3717 0082 43F48032 		orr	r2, r3, #65536
 3718 0086 01F58053 		add	r3, r1, #4096
 3719 008a 0433     		adds	r3, r3, #4
 3720 008c 1A60     		str	r2, [r3]
1873:../Generated_Code/Cpu.c ****   /* SIM_SOPT1: OSC32KSEL=3 */
1874:../Generated_Code/Cpu.c ****   SIM_SOPT1 |= SIM_SOPT1_OSC32KSEL(0x03); /* LPO 1kHz oscillator drives 32 kHz clock for various pe
 3721              		.loc 1 1874 0
 3722 008e 394B     		ldr	r3, .L104+8
 3723 0090 384A     		ldr	r2, .L104+8
 3724 0092 1268     		ldr	r2, [r2]
 3725 0094 42F44022 		orr	r2, r2, #786432
 3726 0098 1A60     		str	r2, [r3]
1875:../Generated_Code/Cpu.c ****   /* PORTA_PCR18: ISF=0,MUX=0 */
1876:../Generated_Code/Cpu.c ****   PORTA_PCR18 &= (uint32_t)~(uint32_t)((PORT_PCR_ISF_MASK | PORT_PCR_MUX(0x07)));
 3727              		.loc 1 1876 0
 3728 009a 394A     		ldr	r2, .L104+20
 3729 009c 384B     		ldr	r3, .L104+20
 3730 009e 9B6C     		ldr	r3, [r3, #72]
 3731 00a0 23F08073 		bic	r3, r3, #16777216
 3732 00a4 23F4E063 		bic	r3, r3, #1792
 3733 00a8 9364     		str	r3, [r2, #72]
1877:../Generated_Code/Cpu.c ****   /* PORTA_PCR19: ISF=0,MUX=0 */
1878:../Generated_Code/Cpu.c ****   PORTA_PCR19 &= (uint32_t)~(uint32_t)((PORT_PCR_ISF_MASK | PORT_PCR_MUX(0x07)));
 3734              		.loc 1 1878 0
 3735 00aa 354A     		ldr	r2, .L104+20
 3736 00ac 344B     		ldr	r3, .L104+20
 3737 00ae DB6C     		ldr	r3, [r3, #76]
 3738 00b0 23F08073 		bic	r3, r3, #16777216
 3739 00b4 23F4E063 		bic	r3, r3, #1792
 3740 00b8 D364     		str	r3, [r2, #76]
1879:../Generated_Code/Cpu.c ****   /* Switch to FBE Mode */
1880:../Generated_Code/Cpu.c ****   /* MCG_C2: LOCRE0=0,??=0,RANGE0=2,HGO0=0,EREFS0=1,LP=0,IRCS=0 */
1881:../Generated_Code/Cpu.c ****   MCG_C2 = (MCG_C2_RANGE0(0x02) | MCG_C2_EREFS0_MASK);
 3741              		.loc 1 1881 0
 3742 00ba 324B     		ldr	r3, .L104+24
 3743 00bc 2422     		movs	r2, #36
 3744 00be 5A70     		strb	r2, [r3, #1]
1882:../Generated_Code/Cpu.c ****   /* OSC_CR: ERCLKEN=1,??=0,EREFSTEN=0,??=0,SC2P=0,SC4P=0,SC8P=0,SC16P=0 */
1883:../Generated_Code/Cpu.c ****   OSC_CR = OSC_CR_ERCLKEN_MASK;
 3745              		.loc 1 1883 0
 3746 00c0 314B     		ldr	r3, .L104+28
 3747 00c2 8022     		movs	r2, #128
 3748 00c4 1A70     		strb	r2, [r3]
1884:../Generated_Code/Cpu.c ****   /* MCG_C7: OSCSEL=0 */
1885:../Generated_Code/Cpu.c ****   MCG_C7 &= (uint8_t)~(uint8_t)(MCG_C7_OSCSEL_MASK);
 3749              		.loc 1 1885 0
 3750 00c6 2F4B     		ldr	r3, .L104+24
 3751 00c8 2E4A     		ldr	r2, .L104+24
 3752 00ca 127B     		ldrb	r2, [r2, #12]
 3753 00cc D2B2     		uxtb	r2, r2
 3754 00ce 22F00102 		bic	r2, r2, #1
 3755 00d2 D2B2     		uxtb	r2, r2
 3756 00d4 1A73     		strb	r2, [r3, #12]
1886:../Generated_Code/Cpu.c ****   /* MCG_C1: CLKS=2,FRDIV=3,IREFS=0,IRCLKEN=1,IREFSTEN=0 */
1887:../Generated_Code/Cpu.c ****   MCG_C1 = (MCG_C1_CLKS(0x02) | MCG_C1_FRDIV(0x03) | MCG_C1_IRCLKEN_MASK);
 3757              		.loc 1 1887 0
 3758 00d6 2B4B     		ldr	r3, .L104+24
 3759 00d8 9A22     		movs	r2, #154
 3760 00da 1A70     		strb	r2, [r3]
1888:../Generated_Code/Cpu.c ****   /* MCG_C4: DMX32=0,DRST_DRS=0 */
1889:../Generated_Code/Cpu.c ****   MCG_C4 &= (uint8_t)~(uint8_t)((MCG_C4_DMX32_MASK | MCG_C4_DRST_DRS(0x03)));
 3761              		.loc 1 1889 0
 3762 00dc 294B     		ldr	r3, .L104+24
 3763 00de 294A     		ldr	r2, .L104+24
 3764 00e0 D278     		ldrb	r2, [r2, #3]
 3765 00e2 D2B2     		uxtb	r2, r2
 3766 00e4 02F01F02 		and	r2, r2, #31
 3767 00e8 D2B2     		uxtb	r2, r2
 3768 00ea DA70     		strb	r2, [r3, #3]
1890:../Generated_Code/Cpu.c ****   /* MCG_C5: ??=0,PLLCLKEN0=0,PLLSTEN0=0,PRDIV0=1 */
1891:../Generated_Code/Cpu.c ****   MCG_C5 = MCG_C5_PRDIV0(0x01);
 3769              		.loc 1 1891 0
 3770 00ec 254B     		ldr	r3, .L104+24
 3771 00ee 0122     		movs	r2, #1
 3772 00f0 1A71     		strb	r2, [r3, #4]
1892:../Generated_Code/Cpu.c ****   /* MCG_C6: LOLIE0=0,PLLS=0,CME0=0,VDIV0=6 */
1893:../Generated_Code/Cpu.c ****   MCG_C6 = MCG_C6_VDIV0(0x06);
 3773              		.loc 1 1893 0
 3774 00f2 244B     		ldr	r3, .L104+24
 3775 00f4 0622     		movs	r2, #6
 3776 00f6 5A71     		strb	r2, [r3, #5]
1894:../Generated_Code/Cpu.c ****   while((MCG_S & MCG_S_OSCINIT0_MASK) == 0x00U) { /* Check that the oscillator is running */
 3777              		.loc 1 1894 0
 3778 00f8 00BF     		nop
 3779              	.L98:
 3780              		.loc 1 1894 0 is_stmt 0 discriminator 1
 3781 00fa 224B     		ldr	r3, .L104+24
 3782 00fc 9B79     		ldrb	r3, [r3, #6]
 3783 00fe DBB2     		uxtb	r3, r3
 3784 0100 03F00203 		and	r3, r3, #2
 3785 0104 002B     		cmp	r3, #0
 3786 0106 F8D0     		beq	.L98
1895:../Generated_Code/Cpu.c ****   }
1896:../Generated_Code/Cpu.c ****   while((MCG_S & MCG_S_IREFST_MASK) != 0x00U) { /* Check that the source of the FLL reference clock
 3787              		.loc 1 1896 0 is_stmt 1
 3788 0108 00BF     		nop
 3789              	.L99:
 3790              		.loc 1 1896 0 is_stmt 0 discriminator 1
 3791 010a 1E4B     		ldr	r3, .L104+24
 3792 010c 9B79     		ldrb	r3, [r3, #6]
 3793 010e DBB2     		uxtb	r3, r3
 3794 0110 03F01003 		and	r3, r3, #16
 3795 0114 002B     		cmp	r3, #0
 3796 0116 F8D1     		bne	.L99
1897:../Generated_Code/Cpu.c ****   }
1898:../Generated_Code/Cpu.c ****   while((MCG_S & 0x0CU) != 0x08U) {    /* Wait until external reference clock is selected as MCG ou
 3797              		.loc 1 1898 0 is_stmt 1
 3798 0118 00BF     		nop
 3799              	.L100:
 3800              		.loc 1 1898 0 is_stmt 0 discriminator 1
 3801 011a 1A4B     		ldr	r3, .L104+24
 3802 011c 9B79     		ldrb	r3, [r3, #6]
 3803 011e DBB2     		uxtb	r3, r3
 3804 0120 03F00C03 		and	r3, r3, #12
 3805 0124 082B     		cmp	r3, #8
 3806 0126 F8D1     		bne	.L100
1899:../Generated_Code/Cpu.c ****   }
1900:../Generated_Code/Cpu.c ****   /* Switch to PBE Mode */
1901:../Generated_Code/Cpu.c ****   /* MCG_C6: LOLIE0=0,PLLS=1,CME0=0,VDIV0=6 */
1902:../Generated_Code/Cpu.c ****   MCG_C6 = (MCG_C6_PLLS_MASK | MCG_C6_VDIV0(0x06));
 3807              		.loc 1 1902 0 is_stmt 1
 3808 0128 164B     		ldr	r3, .L104+24
 3809 012a 4622     		movs	r2, #70
 3810 012c 5A71     		strb	r2, [r3, #5]
1903:../Generated_Code/Cpu.c ****   while((MCG_S & 0x0CU) != 0x08U) {    /* Wait until external reference clock is selected as MCG ou
 3811              		.loc 1 1903 0
 3812 012e 00BF     		nop
 3813              	.L101:
 3814              		.loc 1 1903 0 is_stmt 0 discriminator 1
 3815 0130 144B     		ldr	r3, .L104+24
 3816 0132 9B79     		ldrb	r3, [r3, #6]
 3817 0134 DBB2     		uxtb	r3, r3
 3818 0136 03F00C03 		and	r3, r3, #12
 3819 013a 082B     		cmp	r3, #8
 3820 013c F8D1     		bne	.L101
1904:../Generated_Code/Cpu.c ****   }
1905:../Generated_Code/Cpu.c ****   while((MCG_S & MCG_S_LOCK0_MASK) == 0x00U) { /* Wait until locked */
 3821              		.loc 1 1905 0 is_stmt 1
 3822 013e 00BF     		nop
 3823              	.L102:
 3824              		.loc 1 1905 0 is_stmt 0 discriminator 1
 3825 0140 104B     		ldr	r3, .L104+24
 3826 0142 9B79     		ldrb	r3, [r3, #6]
 3827 0144 DBB2     		uxtb	r3, r3
 3828 0146 03F04003 		and	r3, r3, #64
 3829 014a 002B     		cmp	r3, #0
 3830 014c F8D0     		beq	.L102
1906:../Generated_Code/Cpu.c ****   }
1907:../Generated_Code/Cpu.c ****   /* Switch to PEE Mode */
1908:../Generated_Code/Cpu.c ****   /* MCG_C1: CLKS=0,FRDIV=3,IREFS=0,IRCLKEN=1,IREFSTEN=0 */
1909:../Generated_Code/Cpu.c ****   MCG_C1 = (MCG_C1_CLKS(0x00) | MCG_C1_FRDIV(0x03) | MCG_C1_IRCLKEN_MASK);
 3831              		.loc 1 1909 0 is_stmt 1
 3832 014e 0D4B     		ldr	r3, .L104+24
 3833 0150 1A22     		movs	r2, #26
 3834 0152 1A70     		strb	r2, [r3]
1910:../Generated_Code/Cpu.c ****   while((MCG_S & 0x0CU) != 0x0CU) {    /* Wait until output of the PLL is selected */
 3835              		.loc 1 1910 0
 3836 0154 00BF     		nop
 3837              	.L103:
 3838              		.loc 1 1910 0 is_stmt 0 discriminator 1
 3839 0156 0B4B     		ldr	r3, .L104+24
 3840 0158 9B79     		ldrb	r3, [r3, #6]
 3841 015a DBB2     		uxtb	r3, r3
 3842 015c 03F00C03 		and	r3, r3, #12
 3843 0160 0C2B     		cmp	r3, #12
 3844 0162 F8D1     		bne	.L103
1911:../Generated_Code/Cpu.c ****   }
1912:../Generated_Code/Cpu.c ****   /*** End of PE initialization code after reset ***/
1913:../Generated_Code/Cpu.c **** 
1914:../Generated_Code/Cpu.c ****   /*** !!! Here you can place your own code after PE initialization using property "User code after
1915:../Generated_Code/Cpu.c **** 
1916:../Generated_Code/Cpu.c **** }
 3845              		.loc 1 1916 0 is_stmt 1
 3846 0164 BD46     		mov	sp, r7
 3847              		@ sp needed
 3848 0166 5DF8047B 		ldr	r7, [sp], #4
 3849 016a 7047     		bx	lr
 3850              	.L105:
 3851              		.align	2
 3852              	.L104:
 3853 016c 00000000 		.word	__vect_table
 3854 0170 00200540 		.word	1074077696
 3855 0174 00700440 		.word	1074032640
 3856 0178 00003301 		.word	20119552
 3857 017c 00D00740 		.word	1074253824
 3858 0180 00900440 		.word	1074040832
 3859 0184 00400640 		.word	1074151424
 3860 0188 00500640 		.word	1074155520
 3861              		.cfi_endproc
 3862              	.LFE95:
 3864              		.section	.text.Cpu_SetBASEPRI,"ax",%progbits
 3865              		.align	2
 3866              		.global	Cpu_SetBASEPRI
 3867              		.thumb
 3868              		.thumb_func
 3870              	Cpu_SetBASEPRI:
 3871              	.LFB96:
1917:../Generated_Code/Cpu.c **** 
1918:../Generated_Code/Cpu.c **** /*
1919:../Generated_Code/Cpu.c **** ** ===================================================================
1920:../Generated_Code/Cpu.c **** **     Method      :  Cpu_SetBASEPRI (component MK22FN1M0LK12)
1921:../Generated_Code/Cpu.c **** **
1922:../Generated_Code/Cpu.c **** **     Description :
1923:../Generated_Code/Cpu.c **** **         This method sets the BASEPRI core register.
1924:../Generated_Code/Cpu.c **** **         This method is internal. It is used by Processor Expert only.
1925:../Generated_Code/Cpu.c **** ** ===================================================================
1926:../Generated_Code/Cpu.c **** */
1927:../Generated_Code/Cpu.c **** /*lint -save  -e586 -e950 Disable MISRA rule (2.1,1.1) checking. */
1928:../Generated_Code/Cpu.c **** #ifdef _lint
1929:../Generated_Code/Cpu.c ****   #define Cpu_SetBASEPRI(Level)  /* empty */
1930:../Generated_Code/Cpu.c **** #else
1931:../Generated_Code/Cpu.c **** void Cpu_SetBASEPRI(uint32_t Level) {
 3872              		.loc 1 1931 0
 3873              		.cfi_startproc
 3874              		@ args = 0, pretend = 0, frame = 8
 3875              		@ frame_needed = 1, uses_anonymous_args = 0
 3876              		@ link register save eliminated.
 3877 0000 80B4     		push	{r7}
 3878              		.cfi_def_cfa_offset 4
 3879              		.cfi_offset 7, -4
 3880 0002 83B0     		sub	sp, sp, #12
 3881              		.cfi_def_cfa_offset 16
 3882 0004 00AF     		add	r7, sp, #0
 3883              		.cfi_def_cfa_register 7
 3884 0006 7860     		str	r0, [r7, #4]
1932:../Generated_Code/Cpu.c ****   __asm ("msr basepri, %[input]"::[input] "r" (Level):);
 3885              		.loc 1 1932 0
 3886 0008 7B68     		ldr	r3, [r7, #4]
 3887              	@ 1932 "../Generated_Code/Cpu.c" 1
 3888 000a 83F31188 		msr basepri, r3
 3889              	@ 0 "" 2
1933:../Generated_Code/Cpu.c **** }
 3890              		.loc 1 1933 0
 3891              		.thumb
 3892 000e 0C37     		adds	r7, r7, #12
 3893 0010 BD46     		mov	sp, r7
 3894              		@ sp needed
 3895 0012 5DF8047B 		ldr	r7, [sp], #4
 3896 0016 7047     		bx	lr
 3897              		.cfi_endproc
 3898              	.LFE96:
 3900              		.section	.text.PE_low_level_init,"ax",%progbits
 3901              		.align	2
 3902              		.global	PE_low_level_init
 3903              		.thumb
 3904              		.thumb_func
 3906              	PE_low_level_init:
 3907              	.LFB97:
1934:../Generated_Code/Cpu.c **** #endif
1935:../Generated_Code/Cpu.c **** /*lint -restore Enable MISRA rule (2.1,1.1) checking. */
1936:../Generated_Code/Cpu.c **** 
1937:../Generated_Code/Cpu.c **** 
1938:../Generated_Code/Cpu.c **** /*
1939:../Generated_Code/Cpu.c **** ** ===================================================================
1940:../Generated_Code/Cpu.c **** **     Method      :  PE_low_level_init (component MK22FN1M0LK12)
1941:../Generated_Code/Cpu.c **** **
1942:../Generated_Code/Cpu.c **** **     Description :
1943:../Generated_Code/Cpu.c **** **         Initializes beans and provides common register initialization. 
1944:../Generated_Code/Cpu.c **** **         The method is called automatically as a part of the 
1945:../Generated_Code/Cpu.c **** **         application initialization code.
1946:../Generated_Code/Cpu.c **** **         This method is internal. It is used by Processor Expert only.
1947:../Generated_Code/Cpu.c **** ** ===================================================================
1948:../Generated_Code/Cpu.c **** */
1949:../Generated_Code/Cpu.c **** void PE_low_level_init(void)
1950:../Generated_Code/Cpu.c **** {
 3908              		.loc 1 1950 0
 3909              		.cfi_startproc
 3910              		@ args = 0, pretend = 0, frame = 0
 3911              		@ frame_needed = 1, uses_anonymous_args = 0
 3912 0000 80B5     		push	{r7, lr}
 3913              		.cfi_def_cfa_offset 8
 3914              		.cfi_offset 7, -8
 3915              		.cfi_offset 14, -4
 3916 0002 00AF     		add	r7, sp, #0
 3917              		.cfi_def_cfa_register 7
1951:../Generated_Code/Cpu.c ****   #ifdef PEX_RTOS_INIT
1952:../Generated_Code/Cpu.c ****     PEX_RTOS_INIT();                   /* Initialization of the selected RTOS. Macro is defined by 
1953:../Generated_Code/Cpu.c ****   #endif
1954:../Generated_Code/Cpu.c ****       /* Initialization of the SIM module */
1955:../Generated_Code/Cpu.c ****   /* PORTA_PCR4: ISF=0,MUX=7 */
1956:../Generated_Code/Cpu.c ****   PORTA_PCR4 = (uint32_t)((PORTA_PCR4 & (uint32_t)~(uint32_t)(
 3918              		.loc 1 1956 0
 3919 0004 5D4A     		ldr	r2, .L108
 3920 0006 5D4B     		ldr	r3, .L108
 3921 0008 1B69     		ldr	r3, [r3, #16]
 3922 000a 23F08073 		bic	r3, r3, #16777216
 3923 000e 23F4E063 		bic	r3, r3, #1792
 3924 0012 43F4E063 		orr	r3, r3, #1792
 3925 0016 1361     		str	r3, [r2, #16]
1957:../Generated_Code/Cpu.c ****                 PORT_PCR_ISF_MASK
1958:../Generated_Code/Cpu.c ****                )) | (uint32_t)(
1959:../Generated_Code/Cpu.c ****                 PORT_PCR_MUX(0x07)
1960:../Generated_Code/Cpu.c ****                ));
1961:../Generated_Code/Cpu.c ****         /* Initialization of the RCM module */
1962:../Generated_Code/Cpu.c ****   /* RCM_RPFW: RSTFLTSEL=0 */
1963:../Generated_Code/Cpu.c ****   RCM_RPFW &= (uint8_t)~(uint8_t)(RCM_RPFW_RSTFLTSEL(0x1F));
 3926              		.loc 1 1963 0
 3927 0018 594B     		ldr	r3, .L108+4
 3928 001a 594A     		ldr	r2, .L108+4
 3929 001c 5279     		ldrb	r2, [r2, #5]
 3930 001e D2B2     		uxtb	r2, r2
 3931 0020 22F01F02 		bic	r2, r2, #31
 3932 0024 D2B2     		uxtb	r2, r2
 3933 0026 5A71     		strb	r2, [r3, #5]
1964:../Generated_Code/Cpu.c ****   /* RCM_RPFC: RSTFLTSS=0,RSTFLTSRW=0 */
1965:../Generated_Code/Cpu.c ****   RCM_RPFC &= (uint8_t)~(uint8_t)(
 3934              		.loc 1 1965 0
 3935 0028 554B     		ldr	r3, .L108+4
 3936 002a 554A     		ldr	r2, .L108+4
 3937 002c 1279     		ldrb	r2, [r2, #4]
 3938 002e D2B2     		uxtb	r2, r2
 3939 0030 22F00702 		bic	r2, r2, #7
 3940 0034 D2B2     		uxtb	r2, r2
 3941 0036 1A71     		strb	r2, [r3, #4]
1966:../Generated_Code/Cpu.c ****                RCM_RPFC_RSTFLTSS_MASK |
1967:../Generated_Code/Cpu.c ****                RCM_RPFC_RSTFLTSRW(0x03)
1968:../Generated_Code/Cpu.c ****               );
1969:../Generated_Code/Cpu.c ****         /* Initialization of the FTFL_FlashConfig module */
1970:../Generated_Code/Cpu.c ****   /* SIM_SCGC7: MPU=1 */
1971:../Generated_Code/Cpu.c ****   SIM_SCGC7 |= SIM_SCGC7_MPU_MASK;
 3942              		.loc 1 1971 0
 3943 0038 524B     		ldr	r3, .L108+8
 3944 003a 524A     		ldr	r2, .L108+8
 3945 003c 02F58252 		add	r2, r2, #4160
 3946 0040 1268     		ldr	r2, [r2]
 3947 0042 42F00402 		orr	r2, r2, #4
 3948 0046 03F58253 		add	r3, r3, #4160
 3949 004a 1A60     		str	r2, [r3]
1972:../Generated_Code/Cpu.c ****         /* Initialization of the MPU module */
1973:../Generated_Code/Cpu.c ****   /* MPU_CESR: SPERR=0,VLD=0 */
1974:../Generated_Code/Cpu.c ****   MPU_CESR &= (uint32_t)~(uint32_t)((MPU_CESR_SPERR(0x1F) | MPU_CESR_VLD_MASK));
 3950              		.loc 1 1974 0
 3951 004c 4E4A     		ldr	r2, .L108+12
 3952 004e 4E4B     		ldr	r3, .L108+12
 3953 0050 1B68     		ldr	r3, [r3]
 3954 0052 23F07843 		bic	r3, r3, #-134217728
 3955 0056 23F00103 		bic	r3, r3, #1
 3956 005a 1360     		str	r3, [r2]
1975:../Generated_Code/Cpu.c ****       /* Initialization of the PMC module */
1976:../Generated_Code/Cpu.c ****   /* PMC_LVDSC1: LVDACK=1,LVDIE=0,LVDRE=1,LVDV=0 */
1977:../Generated_Code/Cpu.c ****   PMC_LVDSC1 = (uint8_t)((PMC_LVDSC1 & (uint8_t)~(uint8_t)(
 3957              		.loc 1 1977 0
 3958 005c 4B4B     		ldr	r3, .L108+16
 3959 005e 4B4A     		ldr	r2, .L108+16
 3960 0060 1278     		ldrb	r2, [r2]
 3961 0062 D2B2     		uxtb	r2, r2
 3962 0064 D2B2     		uxtb	r2, r2
 3963 0066 22F07302 		bic	r2, r2, #115
 3964 006a D2B2     		uxtb	r2, r2
 3965 006c 42F05002 		orr	r2, r2, #80
 3966 0070 D2B2     		uxtb	r2, r2
 3967 0072 D2B2     		uxtb	r2, r2
 3968 0074 1A70     		strb	r2, [r3]
1978:../Generated_Code/Cpu.c ****                 PMC_LVDSC1_LVDIE_MASK |
1979:../Generated_Code/Cpu.c ****                 PMC_LVDSC1_LVDV(0x03)
1980:../Generated_Code/Cpu.c ****                )) | (uint8_t)(
1981:../Generated_Code/Cpu.c ****                 PMC_LVDSC1_LVDACK_MASK |
1982:../Generated_Code/Cpu.c ****                 PMC_LVDSC1_LVDRE_MASK
1983:../Generated_Code/Cpu.c ****                ));
1984:../Generated_Code/Cpu.c ****   /* PMC_LVDSC2: LVWACK=1,LVWIE=0,LVWV=0 */
1985:../Generated_Code/Cpu.c ****   PMC_LVDSC2 = (uint8_t)((PMC_LVDSC2 & (uint8_t)~(uint8_t)(
 3969              		.loc 1 1985 0
 3970 0076 454B     		ldr	r3, .L108+16
 3971 0078 444A     		ldr	r2, .L108+16
 3972 007a 5278     		ldrb	r2, [r2, #1]
 3973 007c D2B2     		uxtb	r2, r2
 3974 007e D2B2     		uxtb	r2, r2
 3975 0080 22F06302 		bic	r2, r2, #99
 3976 0084 D2B2     		uxtb	r2, r2
 3977 0086 42F04002 		orr	r2, r2, #64
 3978 008a D2B2     		uxtb	r2, r2
 3979 008c D2B2     		uxtb	r2, r2
 3980 008e 5A70     		strb	r2, [r3, #1]
1986:../Generated_Code/Cpu.c ****                 PMC_LVDSC2_LVWIE_MASK |
1987:../Generated_Code/Cpu.c ****                 PMC_LVDSC2_LVWV(0x03)
1988:../Generated_Code/Cpu.c ****                )) | (uint8_t)(
1989:../Generated_Code/Cpu.c ****                 PMC_LVDSC2_LVWACK_MASK
1990:../Generated_Code/Cpu.c ****                ));
1991:../Generated_Code/Cpu.c ****   /* PMC_REGSC: BGEN=0,ACKISO=0,BGBE=0 */
1992:../Generated_Code/Cpu.c ****   PMC_REGSC &= (uint8_t)~(uint8_t)(
 3981              		.loc 1 1992 0
 3982 0090 3E4B     		ldr	r3, .L108+16
 3983 0092 3E4A     		ldr	r2, .L108+16
 3984 0094 9278     		ldrb	r2, [r2, #2]
 3985 0096 D2B2     		uxtb	r2, r2
 3986 0098 22F01902 		bic	r2, r2, #25
 3987 009c D2B2     		uxtb	r2, r2
 3988 009e 9A70     		strb	r2, [r3, #2]
1993:../Generated_Code/Cpu.c ****                 PMC_REGSC_BGEN_MASK |
1994:../Generated_Code/Cpu.c ****                 PMC_REGSC_ACKISO_MASK |
1995:../Generated_Code/Cpu.c ****                 PMC_REGSC_BGBE_MASK
1996:../Generated_Code/Cpu.c ****                );
1997:../Generated_Code/Cpu.c ****   /* SMC_PMPROT: ??=0,??=0,AVLP=0,??=0,ALLS=0,??=0,AVLLS=0,??=0 */
1998:../Generated_Code/Cpu.c ****   SMC_PMPROT = 0x00U;                  /* Setup Power mode protection register */
 3989              		.loc 1 1998 0
 3990 00a0 3B4B     		ldr	r3, .L108+20
 3991 00a2 0022     		movs	r2, #0
 3992 00a4 1A70     		strb	r2, [r3]
1999:../Generated_Code/Cpu.c ****   /* Common initialization of the CPU registers */
2000:../Generated_Code/Cpu.c ****   /* NVICIP53: PRI53=0 */
2001:../Generated_Code/Cpu.c ****   NVICIP53 = NVIC_IP_PRI53(0x00);
 3993              		.loc 1 2001 0
 3994 00a6 3B4B     		ldr	r3, .L108+24
 3995 00a8 0022     		movs	r2, #0
 3996 00aa 83F83523 		strb	r2, [r3, #821]
2002:../Generated_Code/Cpu.c ****   /* NVICIP20: PRI20=0 */
2003:../Generated_Code/Cpu.c ****   NVICIP20 = NVIC_IP_PRI20(0x00);
 3997              		.loc 1 2003 0
 3998 00ae 394B     		ldr	r3, .L108+24
 3999 00b0 0022     		movs	r2, #0
 4000 00b2 83F81423 		strb	r2, [r3, #788]
2004:../Generated_Code/Cpu.c ****   /* ### McuLibConfig "MCUC1" init code ... */
2005:../Generated_Code/Cpu.c ****   MCUC1_Init();
 4001              		.loc 1 2005 0
 4002 00b6 FFF7FEFF 		bl	MCUC1_Init
2006:../Generated_Code/Cpu.c ****   WAIT1_Init(); /* ### Wait "WAIT1" init code ... */
 4003              		.loc 1 2006 0
 4004 00ba FFF7FEFF 		bl	WAIT1_Init
2007:../Generated_Code/Cpu.c ****   CS1_Init(); /* ### CriticalSection "CS1" init code ... */
 4005              		.loc 1 2007 0
 4006 00be FFF7FEFF 		bl	CS1_Init
2008:../Generated_Code/Cpu.c ****   XF1_Init(); /* ### XFormat "XF1" init code ... */
 4007              		.loc 1 2008 0
 4008 00c2 FFF7FEFF 		bl	XF1_Init
2009:../Generated_Code/Cpu.c ****   CLS1_Init(); /* ### Shell "CLS1" init code ... */
 4009              		.loc 1 2009 0
 4010 00c6 FFF7FEFF 		bl	CLS1_Init
2010:../Generated_Code/Cpu.c ****   /* ### HardFault "HF1" init code ... */
2011:../Generated_Code/Cpu.c ****   HF1_Init();
 4011              		.loc 1 2011 0
 4012 00ca FFF7FEFF 		bl	HF1_Init
2012:../Generated_Code/Cpu.c ****   /* ### KinetisTools "KIN1" init code ... */
2013:../Generated_Code/Cpu.c ****   /* ### BitIO_LDD "BitIoLdd1" component auto initialization. Auto initialization feature can be di
2014:../Generated_Code/Cpu.c ****   (void)BitIoLdd1_Init(NULL);
 4013              		.loc 1 2014 0
 4014 00ce 0020     		movs	r0, #0
 4015 00d0 FFF7FEFF 		bl	BitIoLdd1_Init
2015:../Generated_Code/Cpu.c ****   /* ### BitIO_LDD "BitIoLdd2" component auto initialization. Auto initialization feature can be di
2016:../Generated_Code/Cpu.c ****   (void)BitIoLdd2_Init(NULL);
 4016              		.loc 1 2016 0
 4017 00d4 0020     		movs	r0, #0
 4018 00d6 FFF7FEFF 		bl	BitIoLdd2_Init
2017:../Generated_Code/Cpu.c ****   /* ### BitIO_LDD "BitIoLdd3" component auto initialization. Auto initialization feature can be di
2018:../Generated_Code/Cpu.c ****   (void)BitIoLdd3_Init(NULL);
 4019              		.loc 1 2018 0
 4020 00da 0020     		movs	r0, #0
 4021 00dc FFF7FEFF 		bl	BitIoLdd3_Init
2019:../Generated_Code/Cpu.c ****   /* ### BitIO_LDD "BitIoLdd4" component auto initialization. Auto initialization feature can be di
2020:../Generated_Code/Cpu.c ****   (void)BitIoLdd4_Init(NULL);
 4022              		.loc 1 2020 0
 4023 00e0 0020     		movs	r0, #0
 4024 00e2 FFF7FEFF 		bl	BitIoLdd4_Init
2021:../Generated_Code/Cpu.c ****   RTT1_Init(); /* ### SeggerRTT "RTT1" init code ... */
 4025              		.loc 1 2021 0
 4026 00e6 FFF7FEFF 		bl	RTT1_Init
2022:../Generated_Code/Cpu.c ****   /* ### BitIO_LDD "BitIoLdd5" component auto initialization. Auto initialization feature can be di
2023:../Generated_Code/Cpu.c ****   (void)BitIoLdd5_Init(NULL);
 4027              		.loc 1 2023 0
 4028 00ea 0020     		movs	r0, #0
 4029 00ec FFF7FEFF 		bl	BitIoLdd5_Init
2024:../Generated_Code/Cpu.c ****   /* ### LED "LED_IR" init code ... */
2025:../Generated_Code/Cpu.c ****   LED_IR_Init(); /* initialize LED driver */
 4030              		.loc 1 2025 0
 4031 00f0 FFF7FEFF 		bl	LED_IR_Init
2026:../Generated_Code/Cpu.c ****   /* ### BitIO_LDD "BitIoLdd6" component auto initialization. Auto initialization feature can be di
2027:../Generated_Code/Cpu.c ****   (void)BitIoLdd6_Init(NULL);
 4032              		.loc 1 2027 0
 4033 00f4 0020     		movs	r0, #0
 4034 00f6 FFF7FEFF 		bl	BitIoLdd6_Init
2028:../Generated_Code/Cpu.c ****   /* ### BitIO_LDD "BitIoLdd7" component auto initialization. Auto initialization feature can be di
2029:../Generated_Code/Cpu.c ****   (void)BitIoLdd7_Init(NULL);
 4035              		.loc 1 2029 0
 4036 00fa 0020     		movs	r0, #0
 4037 00fc FFF7FEFF 		bl	BitIoLdd7_Init
2030:../Generated_Code/Cpu.c ****   /* ### BitIO_LDD "BitIoLdd8" component auto initialization. Auto initialization feature can be di
2031:../Generated_Code/Cpu.c ****   (void)BitIoLdd8_Init(NULL);
 4038              		.loc 1 2031 0
 4039 0100 0020     		movs	r0, #0
 4040 0102 FFF7FEFF 		bl	BitIoLdd8_Init
2032:../Generated_Code/Cpu.c ****   /* ### BitIO_LDD "BitIoLdd9" component auto initialization. Auto initialization feature can be di
2033:../Generated_Code/Cpu.c ****   (void)BitIoLdd9_Init(NULL);
 4041              		.loc 1 2033 0
 4042 0106 0020     		movs	r0, #0
 4043 0108 FFF7FEFF 		bl	BitIoLdd9_Init
2034:../Generated_Code/Cpu.c ****   /* ### BitIO_LDD "BitIoLdd10" component auto initialization. Auto initialization feature can be d
2035:../Generated_Code/Cpu.c ****   (void)BitIoLdd10_Init(NULL);
 4044              		.loc 1 2035 0
 4045 010c 0020     		movs	r0, #0
 4046 010e FFF7FEFF 		bl	BitIoLdd10_Init
2036:../Generated_Code/Cpu.c ****   /* ### BitIO_LDD "BitIoLdd11" component auto initialization. Auto initialization feature can be d
2037:../Generated_Code/Cpu.c ****   (void)BitIoLdd11_Init(NULL);
 4047              		.loc 1 2037 0
 4048 0112 0020     		movs	r0, #0
 4049 0114 FFF7FEFF 		bl	BitIoLdd11_Init
2038:../Generated_Code/Cpu.c ****   /* ### BitIO_LDD "BitIoLdd16" component auto initialization. Auto initialization feature can be d
2039:../Generated_Code/Cpu.c ****   (void)BitIoLdd16_Init(NULL);
 4050              		.loc 1 2039 0
 4051 0118 0020     		movs	r0, #0
 4052 011a FFF7FEFF 		bl	BitIoLdd16_Init
2040:../Generated_Code/Cpu.c ****   /* ### BitIO_LDD "BitIoLdd17" component auto initialization. Auto initialization feature can be d
2041:../Generated_Code/Cpu.c ****   (void)BitIoLdd17_Init(NULL);
 4053              		.loc 1 2041 0
 4054 011e 0020     		movs	r0, #0
 4055 0120 FFF7FEFF 		bl	BitIoLdd17_Init
2042:../Generated_Code/Cpu.c ****   /* ### QuadCounter "Q4CLeft" init code ... */
2043:../Generated_Code/Cpu.c ****   Q4CLeft_Init();
 4056              		.loc 1 2043 0
 4057 0124 FFF7FEFF 		bl	Q4CLeft_Init
2044:../Generated_Code/Cpu.c ****   /* ### BitIO_LDD "BitIoLdd18" component auto initialization. Auto initialization feature can be d
2045:../Generated_Code/Cpu.c ****   (void)BitIoLdd18_Init(NULL);
 4058              		.loc 1 2045 0
 4059 0128 0020     		movs	r0, #0
 4060 012a FFF7FEFF 		bl	BitIoLdd18_Init
2046:../Generated_Code/Cpu.c ****   /* ### BitIO_LDD "BitIoLdd19" component auto initialization. Auto initialization feature can be d
2047:../Generated_Code/Cpu.c ****   (void)BitIoLdd19_Init(NULL);
 4061              		.loc 1 2047 0
 4062 012e 0020     		movs	r0, #0
 4063 0130 FFF7FEFF 		bl	BitIoLdd19_Init
2048:../Generated_Code/Cpu.c ****   /* ### QuadCounter "Q4CRight" init code ... */
2049:../Generated_Code/Cpu.c ****   Q4CRight_Init();
 4064              		.loc 1 2049 0
 4065 0134 FFF7FEFF 		bl	Q4CRight_Init
2050:../Generated_Code/Cpu.c ****   /* ### BitIO_LDD "BitIoLdd12" component auto initialization. Auto initialization feature can be d
2051:../Generated_Code/Cpu.c ****   (void)BitIoLdd12_Init(NULL);
 4066              		.loc 1 2051 0
 4067 0138 0020     		movs	r0, #0
 4068 013a FFF7FEFF 		bl	BitIoLdd12_Init
2052:../Generated_Code/Cpu.c ****   /* ### PWM_LDD "PwmLdd2" component auto initialization. Auto initialization feature can be disabl
2053:../Generated_Code/Cpu.c ****   (void)PwmLdd2_Init(NULL);
 4069              		.loc 1 2053 0
 4070 013e 0020     		movs	r0, #0
 4071 0140 FFF7FEFF 		bl	PwmLdd2_Init
2054:../Generated_Code/Cpu.c ****   /* ### BitIO_LDD "BitIoLdd13" component auto initialization. Auto initialization feature can be d
2055:../Generated_Code/Cpu.c ****   (void)BitIoLdd13_Init(NULL);
 4072              		.loc 1 2055 0
 4073 0144 0020     		movs	r0, #0
 4074 0146 FFF7FEFF 		bl	BitIoLdd13_Init
2056:../Generated_Code/Cpu.c ****   /* ### PWM_LDD "PwmLdd3" component auto initialization. Auto initialization feature can be disabl
2057:../Generated_Code/Cpu.c ****   (void)PwmLdd3_Init(NULL);
 4075              		.loc 1 2057 0
 4076 014a 0020     		movs	r0, #0
 4077 014c FFF7FEFF 		bl	PwmLdd3_Init
2058:../Generated_Code/Cpu.c ****   /* ### TimerInt_LDD "TimerIntLdd2" component auto initialization. Auto initialization feature can
2059:../Generated_Code/Cpu.c ****   (void)TimerIntLdd2_Init(NULL);
 4078              		.loc 1 2059 0
 4079 0150 0020     		movs	r0, #0
 4080 0152 FFF7FEFF 		bl	TimerIntLdd2_Init
2060:../Generated_Code/Cpu.c ****   /* ### TimerInt "QuadInt" init code ... */
2061:../Generated_Code/Cpu.c ****   /* ### Timeout "TMOUT1" init code ... */
2062:../Generated_Code/Cpu.c ****   TMOUT1_Init();
 4081              		.loc 1 2062 0
 4082 0156 FFF7FEFF 		bl	TMOUT1_Init
2063:../Generated_Code/Cpu.c ****   Tx1_Init(); /* ### RingBuffer "Tx1" init code ... */
 4083              		.loc 1 2063 0
 4084 015a FFF7FEFF 		bl	Tx1_Init
2064:../Generated_Code/Cpu.c ****   Rx1_Init(); /* ### RingBuffer "Rx1" init code ... */
 4085              		.loc 1 2064 0
 4086 015e FFF7FEFF 		bl	Rx1_Init
2065:../Generated_Code/Cpu.c ****   (void)USB1_Init();
 4087              		.loc 1 2065 0
 4088 0162 FFF7FEFF 		bl	USB1_Init
2066:../Generated_Code/Cpu.c ****   /* ### IntFLASH "IFsh1" init code ... */
2067:../Generated_Code/Cpu.c ****   IFsh1_Init();
 4089              		.loc 1 2067 0
 4090 0166 FFF7FEFF 		bl	IFsh1_Init
2068:../Generated_Code/Cpu.c ****   /* ### Init_USB_OTG "USB0" init code ... */
2069:../Generated_Code/Cpu.c ****   /* ### Call "USB0_Init();" init method in a user code, i.e. in the main code */
2070:../Generated_Code/Cpu.c **** 
2071:../Generated_Code/Cpu.c ****   /* ### Note:   To enable automatic calling of the "USB0" init code here,
2072:../Generated_Code/Cpu.c ****                  the 'Call Init method' property must be set to 'yes'.
2073:../Generated_Code/Cpu.c ****    */
2074:../Generated_Code/Cpu.c **** 
2075:../Generated_Code/Cpu.c **** 
2076:../Generated_Code/Cpu.c ****   /* ### ADC_LDD "ADC_Bat" component auto initialization. Auto initialization feature can be disabl
2077:../Generated_Code/Cpu.c ****   (void)ADC_Bat_Init(NULL);
 4091              		.loc 1 2077 0
 4092 016a 0020     		movs	r0, #0
 4093 016c FFF7FEFF 		bl	ADC_Bat_Init
2078:../Generated_Code/Cpu.c ****   /* ### GenericTimeDate "TmDt1" init code ... */
2079:../Generated_Code/Cpu.c **** #if TmDt1_INIT_IN_STARTUP
2080:../Generated_Code/Cpu.c ****   (void)TmDt1_Init();
 4094              		.loc 1 2080 0
 4095 0170 FFF7FEFF 		bl	TmDt1_Init
2081:../Generated_Code/Cpu.c **** #endif
2082:../Generated_Code/Cpu.c ****   /* Enable interrupts of the given priority level */
2083:../Generated_Code/Cpu.c ****   Cpu_SetBASEPRI(0U);
 4096              		.loc 1 2083 0
 4097 0174 0020     		movs	r0, #0
 4098 0176 FFF7FEFF 		bl	Cpu_SetBASEPRI
2084:../Generated_Code/Cpu.c **** }
 4099              		.loc 1 2084 0
 4100 017a 80BD     		pop	{r7, pc}
 4101              	.L109:
 4102              		.align	2
 4103              	.L108:
 4104 017c 00900440 		.word	1074040832
 4105 0180 00F00740 		.word	1074262016
 4106 0184 00700440 		.word	1074032640
 4107 0188 00D00040 		.word	1073795072
 4108 018c 00D00740 		.word	1074253824
 4109 0190 00E00740 		.word	1074257920
 4110 0194 00E100E0 		.word	-536813312
 4111              		.cfi_endproc
 4112              	.LFE97:
 4114              		.global	_cfm
 4115              		.section	.cfmconfig,"a",%progbits
 4116              		.align	2
 4119              	_cfm:
 4120 0000 FF       		.byte	-1
 4121 0001 FF       		.byte	-1
 4122 0002 FF       		.byte	-1
 4123 0003 FF       		.byte	-1
 4124 0004 FF       		.byte	-1
 4125 0005 FF       		.byte	-1
 4126 0006 FF       		.byte	-1
 4127 0007 FF       		.byte	-1
 4128 0008 FF       		.byte	-1
 4129 0009 FF       		.byte	-1
 4130 000a FF       		.byte	-1
 4131 000b FF       		.byte	-1
 4132 000c 7E       		.byte	126
 4133 000d FF       		.byte	-1
 4134 000e FF       		.byte	-1
 4135 000f FF       		.byte	-1
 4136              		.text
 4137              	.Letext0:
 4138              		.file 2 "c:\\freescale\\kds_v3\\toolchain\\arm-none-eabi\\include\\machine\\_default_types.h"
 4139              		.file 3 "c:\\freescale\\kds_v3\\toolchain\\arm-none-eabi\\include\\stdint.h"
 4140              		.file 4 "C:/INTRO_HS18/IntroAronAlex/TEAM_Robot/Static_Code/IO_Map/MK22F12.h"
 4141              		.file 5 "../Generated_Code/Cpu.h"
 4142              		.file 6 "../Generated_Code/TmDt1.h"
DEFINED SYMBOLS
                            *ABS*:00000000 Cpu.c
C:\Users\Aron\AppData\Local\Temp\cc0xcw1d.s:21     .rodata.TmDt1_DefaultTime:00000000 $d
C:\Users\Aron\AppData\Local\Temp\cc0xcw1d.s:24     .rodata.TmDt1_DefaultTime:00000000 TmDt1_DefaultTime
C:\Users\Aron\AppData\Local\Temp\cc0xcw1d.s:30     .rodata.TmDt1_DefaultDate:00000000 $d
C:\Users\Aron\AppData\Local\Temp\cc0xcw1d.s:33     .rodata.TmDt1_DefaultDate:00000000 TmDt1_DefaultDate
                            *COM*:00000001 SR_reg
C:\Users\Aron\AppData\Local\Temp\cc0xcw1d.s:42     .bss.SR_lock:00000000 SR_lock
C:\Users\Aron\AppData\Local\Temp\cc0xcw1d.s:43     .bss.SR_lock:00000000 $d
C:\Users\Aron\AppData\Local\Temp\cc0xcw1d.s:45     .text.Cpu_INT_NMIInterrupt:00000000 $t
C:\Users\Aron\AppData\Local\Temp\cc0xcw1d.s:50     .text.Cpu_INT_NMIInterrupt:00000000 Cpu_INT_NMIInterrupt
C:\Users\Aron\AppData\Local\Temp\cc0xcw1d.s:82     .text.Cpu_ivINT_Mem_Manage_Fault:00000000 $t
C:\Users\Aron\AppData\Local\Temp\cc0xcw1d.s:87     .text.Cpu_ivINT_Mem_Manage_Fault:00000000 Cpu_ivINT_Mem_Manage_Fault
C:\Users\Aron\AppData\Local\Temp\cc0xcw1d.s:120    .text.Cpu_ivINT_Bus_Fault:00000000 $t
C:\Users\Aron\AppData\Local\Temp\cc0xcw1d.s:125    .text.Cpu_ivINT_Bus_Fault:00000000 Cpu_ivINT_Bus_Fault
C:\Users\Aron\AppData\Local\Temp\cc0xcw1d.s:158    .text.Cpu_ivINT_Usage_Fault:00000000 $t
C:\Users\Aron\AppData\Local\Temp\cc0xcw1d.s:163    .text.Cpu_ivINT_Usage_Fault:00000000 Cpu_ivINT_Usage_Fault
C:\Users\Aron\AppData\Local\Temp\cc0xcw1d.s:196    .text.Cpu_ivINT_Reserved7:00000000 $t
C:\Users\Aron\AppData\Local\Temp\cc0xcw1d.s:201    .text.Cpu_ivINT_Reserved7:00000000 Cpu_ivINT_Reserved7
C:\Users\Aron\AppData\Local\Temp\cc0xcw1d.s:234    .text.Cpu_ivINT_Reserved8:00000000 $t
C:\Users\Aron\AppData\Local\Temp\cc0xcw1d.s:239    .text.Cpu_ivINT_Reserved8:00000000 Cpu_ivINT_Reserved8
C:\Users\Aron\AppData\Local\Temp\cc0xcw1d.s:272    .text.Cpu_ivINT_Reserved9:00000000 $t
C:\Users\Aron\AppData\Local\Temp\cc0xcw1d.s:277    .text.Cpu_ivINT_Reserved9:00000000 Cpu_ivINT_Reserved9
C:\Users\Aron\AppData\Local\Temp\cc0xcw1d.s:310    .text.Cpu_ivINT_Reserved10:00000000 $t
C:\Users\Aron\AppData\Local\Temp\cc0xcw1d.s:315    .text.Cpu_ivINT_Reserved10:00000000 Cpu_ivINT_Reserved10
C:\Users\Aron\AppData\Local\Temp\cc0xcw1d.s:348    .text.Cpu_ivINT_SVCall:00000000 $t
C:\Users\Aron\AppData\Local\Temp\cc0xcw1d.s:353    .text.Cpu_ivINT_SVCall:00000000 Cpu_ivINT_SVCall
C:\Users\Aron\AppData\Local\Temp\cc0xcw1d.s:386    .text.Cpu_ivINT_DebugMonitor:00000000 $t
C:\Users\Aron\AppData\Local\Temp\cc0xcw1d.s:391    .text.Cpu_ivINT_DebugMonitor:00000000 Cpu_ivINT_DebugMonitor
C:\Users\Aron\AppData\Local\Temp\cc0xcw1d.s:424    .text.Cpu_ivINT_Reserved13:00000000 $t
C:\Users\Aron\AppData\Local\Temp\cc0xcw1d.s:429    .text.Cpu_ivINT_Reserved13:00000000 Cpu_ivINT_Reserved13
C:\Users\Aron\AppData\Local\Temp\cc0xcw1d.s:462    .text.Cpu_ivINT_PendableSrvReq:00000000 $t
C:\Users\Aron\AppData\Local\Temp\cc0xcw1d.s:467    .text.Cpu_ivINT_PendableSrvReq:00000000 Cpu_ivINT_PendableSrvReq
C:\Users\Aron\AppData\Local\Temp\cc0xcw1d.s:500    .text.Cpu_ivINT_SysTick:00000000 $t
C:\Users\Aron\AppData\Local\Temp\cc0xcw1d.s:505    .text.Cpu_ivINT_SysTick:00000000 Cpu_ivINT_SysTick
C:\Users\Aron\AppData\Local\Temp\cc0xcw1d.s:538    .text.Cpu_ivINT_DMA0:00000000 $t
C:\Users\Aron\AppData\Local\Temp\cc0xcw1d.s:543    .text.Cpu_ivINT_DMA0:00000000 Cpu_ivINT_DMA0
C:\Users\Aron\AppData\Local\Temp\cc0xcw1d.s:576    .text.Cpu_ivINT_DMA1:00000000 $t
C:\Users\Aron\AppData\Local\Temp\cc0xcw1d.s:581    .text.Cpu_ivINT_DMA1:00000000 Cpu_ivINT_DMA1
C:\Users\Aron\AppData\Local\Temp\cc0xcw1d.s:614    .text.Cpu_ivINT_DMA2:00000000 $t
C:\Users\Aron\AppData\Local\Temp\cc0xcw1d.s:619    .text.Cpu_ivINT_DMA2:00000000 Cpu_ivINT_DMA2
C:\Users\Aron\AppData\Local\Temp\cc0xcw1d.s:652    .text.Cpu_ivINT_DMA3:00000000 $t
C:\Users\Aron\AppData\Local\Temp\cc0xcw1d.s:657    .text.Cpu_ivINT_DMA3:00000000 Cpu_ivINT_DMA3
C:\Users\Aron\AppData\Local\Temp\cc0xcw1d.s:690    .text.Cpu_ivINT_DMA4:00000000 $t
C:\Users\Aron\AppData\Local\Temp\cc0xcw1d.s:695    .text.Cpu_ivINT_DMA4:00000000 Cpu_ivINT_DMA4
C:\Users\Aron\AppData\Local\Temp\cc0xcw1d.s:728    .text.Cpu_ivINT_DMA5:00000000 $t
C:\Users\Aron\AppData\Local\Temp\cc0xcw1d.s:733    .text.Cpu_ivINT_DMA5:00000000 Cpu_ivINT_DMA5
C:\Users\Aron\AppData\Local\Temp\cc0xcw1d.s:766    .text.Cpu_ivINT_DMA6:00000000 $t
C:\Users\Aron\AppData\Local\Temp\cc0xcw1d.s:771    .text.Cpu_ivINT_DMA6:00000000 Cpu_ivINT_DMA6
C:\Users\Aron\AppData\Local\Temp\cc0xcw1d.s:804    .text.Cpu_ivINT_DMA7:00000000 $t
C:\Users\Aron\AppData\Local\Temp\cc0xcw1d.s:809    .text.Cpu_ivINT_DMA7:00000000 Cpu_ivINT_DMA7
C:\Users\Aron\AppData\Local\Temp\cc0xcw1d.s:842    .text.Cpu_ivINT_DMA8:00000000 $t
C:\Users\Aron\AppData\Local\Temp\cc0xcw1d.s:847    .text.Cpu_ivINT_DMA8:00000000 Cpu_ivINT_DMA8
C:\Users\Aron\AppData\Local\Temp\cc0xcw1d.s:880    .text.Cpu_ivINT_DMA9:00000000 $t
C:\Users\Aron\AppData\Local\Temp\cc0xcw1d.s:885    .text.Cpu_ivINT_DMA9:00000000 Cpu_ivINT_DMA9
C:\Users\Aron\AppData\Local\Temp\cc0xcw1d.s:918    .text.Cpu_ivINT_DMA10:00000000 $t
C:\Users\Aron\AppData\Local\Temp\cc0xcw1d.s:923    .text.Cpu_ivINT_DMA10:00000000 Cpu_ivINT_DMA10
C:\Users\Aron\AppData\Local\Temp\cc0xcw1d.s:956    .text.Cpu_ivINT_DMA11:00000000 $t
C:\Users\Aron\AppData\Local\Temp\cc0xcw1d.s:961    .text.Cpu_ivINT_DMA11:00000000 Cpu_ivINT_DMA11
C:\Users\Aron\AppData\Local\Temp\cc0xcw1d.s:994    .text.Cpu_ivINT_DMA12:00000000 $t
C:\Users\Aron\AppData\Local\Temp\cc0xcw1d.s:999    .text.Cpu_ivINT_DMA12:00000000 Cpu_ivINT_DMA12
C:\Users\Aron\AppData\Local\Temp\cc0xcw1d.s:1032   .text.Cpu_ivINT_DMA13:00000000 $t
C:\Users\Aron\AppData\Local\Temp\cc0xcw1d.s:1037   .text.Cpu_ivINT_DMA13:00000000 Cpu_ivINT_DMA13
C:\Users\Aron\AppData\Local\Temp\cc0xcw1d.s:1070   .text.Cpu_ivINT_DMA14:00000000 $t
C:\Users\Aron\AppData\Local\Temp\cc0xcw1d.s:1075   .text.Cpu_ivINT_DMA14:00000000 Cpu_ivINT_DMA14
C:\Users\Aron\AppData\Local\Temp\cc0xcw1d.s:1108   .text.Cpu_ivINT_DMA15:00000000 $t
C:\Users\Aron\AppData\Local\Temp\cc0xcw1d.s:1113   .text.Cpu_ivINT_DMA15:00000000 Cpu_ivINT_DMA15
C:\Users\Aron\AppData\Local\Temp\cc0xcw1d.s:1146   .text.Cpu_ivINT_DMA_Error:00000000 $t
C:\Users\Aron\AppData\Local\Temp\cc0xcw1d.s:1151   .text.Cpu_ivINT_DMA_Error:00000000 Cpu_ivINT_DMA_Error
C:\Users\Aron\AppData\Local\Temp\cc0xcw1d.s:1184   .text.Cpu_ivINT_MCM:00000000 $t
C:\Users\Aron\AppData\Local\Temp\cc0xcw1d.s:1189   .text.Cpu_ivINT_MCM:00000000 Cpu_ivINT_MCM
C:\Users\Aron\AppData\Local\Temp\cc0xcw1d.s:1222   .text.Cpu_ivINT_FTFE:00000000 $t
C:\Users\Aron\AppData\Local\Temp\cc0xcw1d.s:1227   .text.Cpu_ivINT_FTFE:00000000 Cpu_ivINT_FTFE
C:\Users\Aron\AppData\Local\Temp\cc0xcw1d.s:1260   .text.Cpu_ivINT_Read_Collision:00000000 $t
C:\Users\Aron\AppData\Local\Temp\cc0xcw1d.s:1265   .text.Cpu_ivINT_Read_Collision:00000000 Cpu_ivINT_Read_Collision
C:\Users\Aron\AppData\Local\Temp\cc0xcw1d.s:1298   .text.Cpu_ivINT_LVD_LVW:00000000 $t
C:\Users\Aron\AppData\Local\Temp\cc0xcw1d.s:1303   .text.Cpu_ivINT_LVD_LVW:00000000 Cpu_ivINT_LVD_LVW
C:\Users\Aron\AppData\Local\Temp\cc0xcw1d.s:1336   .text.Cpu_ivINT_LLWU:00000000 $t
C:\Users\Aron\AppData\Local\Temp\cc0xcw1d.s:1341   .text.Cpu_ivINT_LLWU:00000000 Cpu_ivINT_LLWU
C:\Users\Aron\AppData\Local\Temp\cc0xcw1d.s:1374   .text.Cpu_ivINT_WDOG_EWM:00000000 $t
C:\Users\Aron\AppData\Local\Temp\cc0xcw1d.s:1379   .text.Cpu_ivINT_WDOG_EWM:00000000 Cpu_ivINT_WDOG_EWM
C:\Users\Aron\AppData\Local\Temp\cc0xcw1d.s:1412   .text.Cpu_ivINT_Reserved39:00000000 $t
C:\Users\Aron\AppData\Local\Temp\cc0xcw1d.s:1417   .text.Cpu_ivINT_Reserved39:00000000 Cpu_ivINT_Reserved39
C:\Users\Aron\AppData\Local\Temp\cc0xcw1d.s:1450   .text.Cpu_ivINT_I2C0:00000000 $t
C:\Users\Aron\AppData\Local\Temp\cc0xcw1d.s:1455   .text.Cpu_ivINT_I2C0:00000000 Cpu_ivINT_I2C0
C:\Users\Aron\AppData\Local\Temp\cc0xcw1d.s:1488   .text.Cpu_ivINT_I2C1:00000000 $t
C:\Users\Aron\AppData\Local\Temp\cc0xcw1d.s:1493   .text.Cpu_ivINT_I2C1:00000000 Cpu_ivINT_I2C1
C:\Users\Aron\AppData\Local\Temp\cc0xcw1d.s:1526   .text.Cpu_ivINT_SPI0:00000000 $t
C:\Users\Aron\AppData\Local\Temp\cc0xcw1d.s:1531   .text.Cpu_ivINT_SPI0:00000000 Cpu_ivINT_SPI0
C:\Users\Aron\AppData\Local\Temp\cc0xcw1d.s:1564   .text.Cpu_ivINT_SPI1:00000000 $t
C:\Users\Aron\AppData\Local\Temp\cc0xcw1d.s:1569   .text.Cpu_ivINT_SPI1:00000000 Cpu_ivINT_SPI1
C:\Users\Aron\AppData\Local\Temp\cc0xcw1d.s:1602   .text.Cpu_ivINT_I2S0_Tx:00000000 $t
C:\Users\Aron\AppData\Local\Temp\cc0xcw1d.s:1607   .text.Cpu_ivINT_I2S0_Tx:00000000 Cpu_ivINT_I2S0_Tx
C:\Users\Aron\AppData\Local\Temp\cc0xcw1d.s:1640   .text.Cpu_ivINT_I2S0_Rx:00000000 $t
C:\Users\Aron\AppData\Local\Temp\cc0xcw1d.s:1645   .text.Cpu_ivINT_I2S0_Rx:00000000 Cpu_ivINT_I2S0_Rx
C:\Users\Aron\AppData\Local\Temp\cc0xcw1d.s:1678   .text.Cpu_ivINT_Reserved46:00000000 $t
C:\Users\Aron\AppData\Local\Temp\cc0xcw1d.s:1683   .text.Cpu_ivINT_Reserved46:00000000 Cpu_ivINT_Reserved46
C:\Users\Aron\AppData\Local\Temp\cc0xcw1d.s:1716   .text.Cpu_ivINT_UART0_RX_TX:00000000 $t
C:\Users\Aron\AppData\Local\Temp\cc0xcw1d.s:1721   .text.Cpu_ivINT_UART0_RX_TX:00000000 Cpu_ivINT_UART0_RX_TX
C:\Users\Aron\AppData\Local\Temp\cc0xcw1d.s:1754   .text.Cpu_ivINT_UART0_ERR:00000000 $t
C:\Users\Aron\AppData\Local\Temp\cc0xcw1d.s:1759   .text.Cpu_ivINT_UART0_ERR:00000000 Cpu_ivINT_UART0_ERR
C:\Users\Aron\AppData\Local\Temp\cc0xcw1d.s:1792   .text.Cpu_ivINT_UART1_RX_TX:00000000 $t
C:\Users\Aron\AppData\Local\Temp\cc0xcw1d.s:1797   .text.Cpu_ivINT_UART1_RX_TX:00000000 Cpu_ivINT_UART1_RX_TX
C:\Users\Aron\AppData\Local\Temp\cc0xcw1d.s:1830   .text.Cpu_ivINT_UART1_ERR:00000000 $t
C:\Users\Aron\AppData\Local\Temp\cc0xcw1d.s:1835   .text.Cpu_ivINT_UART1_ERR:00000000 Cpu_ivINT_UART1_ERR
C:\Users\Aron\AppData\Local\Temp\cc0xcw1d.s:1868   .text.Cpu_ivINT_UART2_RX_TX:00000000 $t
C:\Users\Aron\AppData\Local\Temp\cc0xcw1d.s:1873   .text.Cpu_ivINT_UART2_RX_TX:00000000 Cpu_ivINT_UART2_RX_TX
C:\Users\Aron\AppData\Local\Temp\cc0xcw1d.s:1906   .text.Cpu_ivINT_UART2_ERR:00000000 $t
C:\Users\Aron\AppData\Local\Temp\cc0xcw1d.s:1911   .text.Cpu_ivINT_UART2_ERR:00000000 Cpu_ivINT_UART2_ERR
C:\Users\Aron\AppData\Local\Temp\cc0xcw1d.s:1944   .text.Cpu_ivINT_UART3_RX_TX:00000000 $t
C:\Users\Aron\AppData\Local\Temp\cc0xcw1d.s:1949   .text.Cpu_ivINT_UART3_RX_TX:00000000 Cpu_ivINT_UART3_RX_TX
C:\Users\Aron\AppData\Local\Temp\cc0xcw1d.s:1982   .text.Cpu_ivINT_UART3_ERR:00000000 $t
C:\Users\Aron\AppData\Local\Temp\cc0xcw1d.s:1987   .text.Cpu_ivINT_UART3_ERR:00000000 Cpu_ivINT_UART3_ERR
C:\Users\Aron\AppData\Local\Temp\cc0xcw1d.s:2020   .text.Cpu_ivINT_ADC0:00000000 $t
C:\Users\Aron\AppData\Local\Temp\cc0xcw1d.s:2025   .text.Cpu_ivINT_ADC0:00000000 Cpu_ivINT_ADC0
C:\Users\Aron\AppData\Local\Temp\cc0xcw1d.s:2058   .text.Cpu_ivINT_CMP0:00000000 $t
C:\Users\Aron\AppData\Local\Temp\cc0xcw1d.s:2063   .text.Cpu_ivINT_CMP0:00000000 Cpu_ivINT_CMP0
C:\Users\Aron\AppData\Local\Temp\cc0xcw1d.s:2096   .text.Cpu_ivINT_CMP1:00000000 $t
C:\Users\Aron\AppData\Local\Temp\cc0xcw1d.s:2101   .text.Cpu_ivINT_CMP1:00000000 Cpu_ivINT_CMP1
C:\Users\Aron\AppData\Local\Temp\cc0xcw1d.s:2134   .text.Cpu_ivINT_FTM0:00000000 $t
C:\Users\Aron\AppData\Local\Temp\cc0xcw1d.s:2139   .text.Cpu_ivINT_FTM0:00000000 Cpu_ivINT_FTM0
C:\Users\Aron\AppData\Local\Temp\cc0xcw1d.s:2172   .text.Cpu_ivINT_FTM1:00000000 $t
C:\Users\Aron\AppData\Local\Temp\cc0xcw1d.s:2177   .text.Cpu_ivINT_FTM1:00000000 Cpu_ivINT_FTM1
C:\Users\Aron\AppData\Local\Temp\cc0xcw1d.s:2210   .text.Cpu_ivINT_FTM2:00000000 $t
C:\Users\Aron\AppData\Local\Temp\cc0xcw1d.s:2215   .text.Cpu_ivINT_FTM2:00000000 Cpu_ivINT_FTM2
C:\Users\Aron\AppData\Local\Temp\cc0xcw1d.s:2248   .text.Cpu_ivINT_CMT:00000000 $t
C:\Users\Aron\AppData\Local\Temp\cc0xcw1d.s:2253   .text.Cpu_ivINT_CMT:00000000 Cpu_ivINT_CMT
C:\Users\Aron\AppData\Local\Temp\cc0xcw1d.s:2286   .text.Cpu_ivINT_RTC:00000000 $t
C:\Users\Aron\AppData\Local\Temp\cc0xcw1d.s:2291   .text.Cpu_ivINT_RTC:00000000 Cpu_ivINT_RTC
C:\Users\Aron\AppData\Local\Temp\cc0xcw1d.s:2324   .text.Cpu_ivINT_RTC_Seconds:00000000 $t
C:\Users\Aron\AppData\Local\Temp\cc0xcw1d.s:2329   .text.Cpu_ivINT_RTC_Seconds:00000000 Cpu_ivINT_RTC_Seconds
C:\Users\Aron\AppData\Local\Temp\cc0xcw1d.s:2362   .text.Cpu_ivINT_PIT0:00000000 $t
C:\Users\Aron\AppData\Local\Temp\cc0xcw1d.s:2367   .text.Cpu_ivINT_PIT0:00000000 Cpu_ivINT_PIT0
C:\Users\Aron\AppData\Local\Temp\cc0xcw1d.s:2400   .text.Cpu_ivINT_PIT2:00000000 $t
C:\Users\Aron\AppData\Local\Temp\cc0xcw1d.s:2405   .text.Cpu_ivINT_PIT2:00000000 Cpu_ivINT_PIT2
C:\Users\Aron\AppData\Local\Temp\cc0xcw1d.s:2438   .text.Cpu_ivINT_PIT3:00000000 $t
C:\Users\Aron\AppData\Local\Temp\cc0xcw1d.s:2443   .text.Cpu_ivINT_PIT3:00000000 Cpu_ivINT_PIT3
C:\Users\Aron\AppData\Local\Temp\cc0xcw1d.s:2476   .text.Cpu_ivINT_PDB0:00000000 $t
C:\Users\Aron\AppData\Local\Temp\cc0xcw1d.s:2481   .text.Cpu_ivINT_PDB0:00000000 Cpu_ivINT_PDB0
C:\Users\Aron\AppData\Local\Temp\cc0xcw1d.s:2514   .text.Cpu_ivINT_USBDCD:00000000 $t
C:\Users\Aron\AppData\Local\Temp\cc0xcw1d.s:2519   .text.Cpu_ivINT_USBDCD:00000000 Cpu_ivINT_USBDCD
C:\Users\Aron\AppData\Local\Temp\cc0xcw1d.s:2552   .text.Cpu_ivINT_Reserved71:00000000 $t
C:\Users\Aron\AppData\Local\Temp\cc0xcw1d.s:2557   .text.Cpu_ivINT_Reserved71:00000000 Cpu_ivINT_Reserved71
C:\Users\Aron\AppData\Local\Temp\cc0xcw1d.s:2590   .text.Cpu_ivINT_DAC0:00000000 $t
C:\Users\Aron\AppData\Local\Temp\cc0xcw1d.s:2595   .text.Cpu_ivINT_DAC0:00000000 Cpu_ivINT_DAC0
C:\Users\Aron\AppData\Local\Temp\cc0xcw1d.s:2628   .text.Cpu_ivINT_MCG:00000000 $t
C:\Users\Aron\AppData\Local\Temp\cc0xcw1d.s:2633   .text.Cpu_ivINT_MCG:00000000 Cpu_ivINT_MCG
C:\Users\Aron\AppData\Local\Temp\cc0xcw1d.s:2666   .text.Cpu_ivINT_LPTMR0:00000000 $t
C:\Users\Aron\AppData\Local\Temp\cc0xcw1d.s:2671   .text.Cpu_ivINT_LPTMR0:00000000 Cpu_ivINT_LPTMR0
C:\Users\Aron\AppData\Local\Temp\cc0xcw1d.s:2704   .text.Cpu_ivINT_PORTA:00000000 $t
C:\Users\Aron\AppData\Local\Temp\cc0xcw1d.s:2709   .text.Cpu_ivINT_PORTA:00000000 Cpu_ivINT_PORTA
C:\Users\Aron\AppData\Local\Temp\cc0xcw1d.s:2742   .text.Cpu_ivINT_PORTB:00000000 $t
C:\Users\Aron\AppData\Local\Temp\cc0xcw1d.s:2747   .text.Cpu_ivINT_PORTB:00000000 Cpu_ivINT_PORTB
C:\Users\Aron\AppData\Local\Temp\cc0xcw1d.s:2780   .text.Cpu_ivINT_PORTC:00000000 $t
C:\Users\Aron\AppData\Local\Temp\cc0xcw1d.s:2785   .text.Cpu_ivINT_PORTC:00000000 Cpu_ivINT_PORTC
C:\Users\Aron\AppData\Local\Temp\cc0xcw1d.s:2818   .text.Cpu_ivINT_PORTD:00000000 $t
C:\Users\Aron\AppData\Local\Temp\cc0xcw1d.s:2823   .text.Cpu_ivINT_PORTD:00000000 Cpu_ivINT_PORTD
C:\Users\Aron\AppData\Local\Temp\cc0xcw1d.s:2856   .text.Cpu_ivINT_PORTE:00000000 $t
C:\Users\Aron\AppData\Local\Temp\cc0xcw1d.s:2861   .text.Cpu_ivINT_PORTE:00000000 Cpu_ivINT_PORTE
C:\Users\Aron\AppData\Local\Temp\cc0xcw1d.s:2894   .text.Cpu_ivINT_SWI:00000000 $t
C:\Users\Aron\AppData\Local\Temp\cc0xcw1d.s:2899   .text.Cpu_ivINT_SWI:00000000 Cpu_ivINT_SWI
C:\Users\Aron\AppData\Local\Temp\cc0xcw1d.s:2932   .text.Cpu_ivINT_Reserved81:00000000 $t
C:\Users\Aron\AppData\Local\Temp\cc0xcw1d.s:2937   .text.Cpu_ivINT_Reserved81:00000000 Cpu_ivINT_Reserved81
C:\Users\Aron\AppData\Local\Temp\cc0xcw1d.s:2970   .text.Cpu_ivINT_Reserved82:00000000 $t
C:\Users\Aron\AppData\Local\Temp\cc0xcw1d.s:2975   .text.Cpu_ivINT_Reserved82:00000000 Cpu_ivINT_Reserved82
C:\Users\Aron\AppData\Local\Temp\cc0xcw1d.s:3008   .text.Cpu_ivINT_Reserved83:00000000 $t
C:\Users\Aron\AppData\Local\Temp\cc0xcw1d.s:3013   .text.Cpu_ivINT_Reserved83:00000000 Cpu_ivINT_Reserved83
C:\Users\Aron\AppData\Local\Temp\cc0xcw1d.s:3046   .text.Cpu_ivINT_Reserved84:00000000 $t
C:\Users\Aron\AppData\Local\Temp\cc0xcw1d.s:3051   .text.Cpu_ivINT_Reserved84:00000000 Cpu_ivINT_Reserved84
C:\Users\Aron\AppData\Local\Temp\cc0xcw1d.s:3084   .text.Cpu_ivINT_Reserved85:00000000 $t
C:\Users\Aron\AppData\Local\Temp\cc0xcw1d.s:3089   .text.Cpu_ivINT_Reserved85:00000000 Cpu_ivINT_Reserved85
C:\Users\Aron\AppData\Local\Temp\cc0xcw1d.s:3122   .text.Cpu_ivINT_CMP2:00000000 $t
C:\Users\Aron\AppData\Local\Temp\cc0xcw1d.s:3127   .text.Cpu_ivINT_CMP2:00000000 Cpu_ivINT_CMP2
C:\Users\Aron\AppData\Local\Temp\cc0xcw1d.s:3160   .text.Cpu_ivINT_FTM3:00000000 $t
C:\Users\Aron\AppData\Local\Temp\cc0xcw1d.s:3165   .text.Cpu_ivINT_FTM3:00000000 Cpu_ivINT_FTM3
C:\Users\Aron\AppData\Local\Temp\cc0xcw1d.s:3198   .text.Cpu_ivINT_Reserved88:00000000 $t
C:\Users\Aron\AppData\Local\Temp\cc0xcw1d.s:3203   .text.Cpu_ivINT_Reserved88:00000000 Cpu_ivINT_Reserved88
C:\Users\Aron\AppData\Local\Temp\cc0xcw1d.s:3236   .text.Cpu_ivINT_ADC1:00000000 $t
C:\Users\Aron\AppData\Local\Temp\cc0xcw1d.s:3241   .text.Cpu_ivINT_ADC1:00000000 Cpu_ivINT_ADC1
C:\Users\Aron\AppData\Local\Temp\cc0xcw1d.s:3274   .text.Cpu_ivINT_I2C2:00000000 $t
C:\Users\Aron\AppData\Local\Temp\cc0xcw1d.s:3279   .text.Cpu_ivINT_I2C2:00000000 Cpu_ivINT_I2C2
C:\Users\Aron\AppData\Local\Temp\cc0xcw1d.s:3312   .text.Cpu_ivINT_CAN0_ORed_Message_buffer:00000000 $t
C:\Users\Aron\AppData\Local\Temp\cc0xcw1d.s:3317   .text.Cpu_ivINT_CAN0_ORed_Message_buffer:00000000 Cpu_ivINT_CAN0_ORed_Message_buffer
C:\Users\Aron\AppData\Local\Temp\cc0xcw1d.s:3350   .text.Cpu_ivINT_CAN0_Bus_Off:00000000 $t
C:\Users\Aron\AppData\Local\Temp\cc0xcw1d.s:3355   .text.Cpu_ivINT_CAN0_Bus_Off:00000000 Cpu_ivINT_CAN0_Bus_Off
C:\Users\Aron\AppData\Local\Temp\cc0xcw1d.s:3388   .text.Cpu_ivINT_CAN0_Error:00000000 $t
C:\Users\Aron\AppData\Local\Temp\cc0xcw1d.s:3393   .text.Cpu_ivINT_CAN0_Error:00000000 Cpu_ivINT_CAN0_Error
C:\Users\Aron\AppData\Local\Temp\cc0xcw1d.s:3426   .text.Cpu_ivINT_CAN0_Tx_Warning:00000000 $t
C:\Users\Aron\AppData\Local\Temp\cc0xcw1d.s:3431   .text.Cpu_ivINT_CAN0_Tx_Warning:00000000 Cpu_ivINT_CAN0_Tx_Warning
C:\Users\Aron\AppData\Local\Temp\cc0xcw1d.s:3464   .text.Cpu_ivINT_CAN0_Rx_Warning:00000000 $t
C:\Users\Aron\AppData\Local\Temp\cc0xcw1d.s:3469   .text.Cpu_ivINT_CAN0_Rx_Warning:00000000 Cpu_ivINT_CAN0_Rx_Warning
C:\Users\Aron\AppData\Local\Temp\cc0xcw1d.s:3502   .text.Cpu_ivINT_CAN0_Wake_Up:00000000 $t
C:\Users\Aron\AppData\Local\Temp\cc0xcw1d.s:3507   .text.Cpu_ivINT_CAN0_Wake_Up:00000000 Cpu_ivINT_CAN0_Wake_Up
C:\Users\Aron\AppData\Local\Temp\cc0xcw1d.s:3540   .text.Cpu_ivINT_SDHC:00000000 $t
C:\Users\Aron\AppData\Local\Temp\cc0xcw1d.s:3545   .text.Cpu_ivINT_SDHC:00000000 Cpu_ivINT_SDHC
C:\Users\Aron\AppData\Local\Temp\cc0xcw1d.s:3578   .text.Cpu_EnableInt:00000000 $t
C:\Users\Aron\AppData\Local\Temp\cc0xcw1d.s:3583   .text.Cpu_EnableInt:00000000 Cpu_EnableInt
C:\Users\Aron\AppData\Local\Temp\cc0xcw1d.s:3609   .text.Cpu_DisableInt:00000000 $t
C:\Users\Aron\AppData\Local\Temp\cc0xcw1d.s:3614   .text.Cpu_DisableInt:00000000 Cpu_DisableInt
C:\Users\Aron\AppData\Local\Temp\cc0xcw1d.s:3640   .text.__init_hardware:00000000 $t
C:\Users\Aron\AppData\Local\Temp\cc0xcw1d.s:3645   .text.__init_hardware:00000000 __init_hardware
C:\Users\Aron\AppData\Local\Temp\cc0xcw1d.s:3853   .text.__init_hardware:0000016c $d
C:\Users\Aron\AppData\Local\Temp\cc0xcw1d.s:3865   .text.Cpu_SetBASEPRI:00000000 $t
C:\Users\Aron\AppData\Local\Temp\cc0xcw1d.s:3870   .text.Cpu_SetBASEPRI:00000000 Cpu_SetBASEPRI
C:\Users\Aron\AppData\Local\Temp\cc0xcw1d.s:3901   .text.PE_low_level_init:00000000 $t
C:\Users\Aron\AppData\Local\Temp\cc0xcw1d.s:3906   .text.PE_low_level_init:00000000 PE_low_level_init
C:\Users\Aron\AppData\Local\Temp\cc0xcw1d.s:4104   .text.PE_low_level_init:0000017c $d
C:\Users\Aron\AppData\Local\Temp\cc0xcw1d.s:4119   .cfmconfig:00000000 _cfm
C:\Users\Aron\AppData\Local\Temp\cc0xcw1d.s:4116   .cfmconfig:00000000 $d
                     .debug_frame:00000010 $d
                           .group:00000000 wm4.0.22dcf9ce9babd46e5ea858ea4400d115
                           .group:00000000 wm4.MCUC1config.h.9.0bb8fec22d828f19e34a4cdf9951d555
                           .group:00000000 wm4.features.h.22.6a4ca7cd053637cc1d0db6c16f39b2d7
                           .group:00000000 wm4._default_types.h.15.8b2cb27e528498f8ff711db085d6e489
                           .group:00000000 wm4.stdint.h.20.796e373797e732130a803d4c0338fa1b
                           .group:00000000 wm4.PE_Types.h.68.de7a315b6e4c635a9a7a45ae6ec20b08
                           .group:00000000 wm4.PE_Error.h.60.6ccf96637e85421388d147a5dcbc3621
                           .group:00000000 wm4.PE_Const.h.60.44eca2ca2a72148441f11b3e43b344a9
                           .group:00000000 wm4.MK22F12.h.59.83dcc0895f45d7d67f2182a38aa7f04f
                           .group:00000000 wm4.Cpu.h.66.9574a96471c5a4e92ddf5418cbdcf9a5
                           .group:00000000 wm4.CLS1config.h.2.854bb35357facad932898800d8509913
                           .group:00000000 wm4.CLS1.h.122.6dfe00e3ccac8c27c20e405bc6b8e609
                           .group:00000000 wm4.WAIT1config.h.9.10dc563fdcbcf1b71ae6cd3c0d22fd32
                           .group:00000000 wm4.WAIT1.h.93.af9b975f9a6d5eb80ff72ca188861d18
                           .group:00000000 wm4.newlib.h.8.fec018e441fee7bfa1923812ad010f97
                           .group:00000000 wm4.config.h.212.4163ef2871a828c674038d036b081cfd
                           .group:00000000 wm4._ansi.h.23.2147fde150631f5584b9dc29b914d1b8
                           .group:00000000 wm4.stddef.h.39.daafd3d79fe2f3a84d2d73d7d4e706f8
                           .group:00000000 wm4.lock.h.2.9bc98482741e5e2a9450b12934a684ea
                           .group:00000000 wm4._types.h.54.d3d34a3b7f3cc230cd159baf022b4b08
                           .group:00000000 wm4.stddef.h.158.61317cdbfb4026324507d123a50b0fd6
                           .group:00000000 wm4.reent.h.17.8bd9e4098e0428508c282cad794fae43
                           .group:00000000 wm4.cdefs.h.56.a2d04de9d47039852021e66fca39bb58
                           .group:00000000 wm4.string.h.15.dab3980bf35408a4c507182805e2de3a
                           .group:00000000 wm4.stddef.h.158.a7efb00f6cbc6f43213b50e183c9830c
                           .group:00000000 wm4.UTIL1.h.779.3f4da336bf693064cf78522cb140d5f7
                           .group:00000000 wm4.XF1config.h.2.019525ef4bf64d9e3cd792a651ed2fc0
                           .group:00000000 wm4.stdarg.h.31.72c3aa8d68b291953fa52b9471bcdff7
                           .group:00000000 wm4.CS1config.h.2.e5153cf58e5fe0ee6ea0dc776d94aafd
                           .group:00000000 wm4.CS1.h.86.71773cc9f7a1189b60d5af00334fca8e
                           .group:00000000 wm4.CLS1.h.172.83b9daee286b58c7d453522f7dba0b4f
                           .group:00000000 wm4.HF1config.h.2.9ac2f63384419afc90014cf0377b0f43
                           .group:00000000 wm4.KIN1config.h.9.ab40a5871d92daf91163fbd666cce881
                           .group:00000000 wm4.KIN1.h.91.3d4462c05cb3114f21995efcad73491e
                           .group:00000000 wm4.PDD_Types.h.5.e0b4125fe5201c5e1f688b067f4f0d54
                           .group:00000000 wm4.GPIO_PDD.h.123.0d360e6978ec29f76970d5d88d4be5fd
                           .group:00000000 wm4.BitIoLdd1.h.106.6aefd12cf122f858b9a6e67e04698df3
                           .group:00000000 wm4.LEDPin1.h.120.0f7601ad191d04c80fd3ddb71251d171
                           .group:00000000 wm4.BitIoLdd2.h.84.64d657f533e4e051bbc2978dd6e2235b
                           .group:00000000 wm4.LEDPin2.h.120.c2ee03db2e7e458899a79b5e691b310f
                           .group:00000000 wm4.BitIoLdd3.h.80.f05901605addf9f16fd809d9e28a4caf
                           .group:00000000 wm4.BitIoLdd4.h.84.7eb71e610568b023506a69afad8f09fd
                           .group:00000000 wm4.BUZ1.h.120.8e6c531384bea9e8ca2bbc8bc2d3ddfa
                           .group:00000000 wm4.RTT1config.h.9.558b8e72f87fd463160ae39e042c41f1
                           .group:00000000 wm4.SEGGER_RTT_Conf.h.68.24b18c92ee0ed50596d5a2ac2446e1f3
                           .group:00000000 wm4.SEGGER_RTT.h.170.7440a65c6e414fb2a8040073a0d6a958
                           .group:00000000 wm4.RTT1.h.115.43f0ed708a6264c94c5a08549cc1736d
                           .group:00000000 wm4.BitIoLdd5.h.83.06666aca4789003a87ddf4a1c03c30bb
                           .group:00000000 wm4.LEDpin3.h.119.c8dbb0df9eaea76eb8c772f8b6a93b9e
                           .group:00000000 wm4.LED_IR.h.89.bb1bda720ff4993422313b57362152b8
                           .group:00000000 wm4.FTM_PDD.h.9.4bf67b81fa923530600b2f7d82fb2c82
                           .group:00000000 wm4.RefCnt.h.119.51c58ca380cb781004d49e143bcf25ce
                           .group:00000000 wm4.BitIoLdd6.h.86.8c3db6ace448db0460b7b918d55b052f
                           .group:00000000 wm4.IR1.h.115.7ad95a1efdb73410d85da1efd9af50ec
                           .group:00000000 wm4.BitIoLdd7.h.86.1aca84bdbe0d0f3eb31633a0dd178595
                           .group:00000000 wm4.IR2.h.115.4c52749d4740eb1eb024d7b73d3ae164
                           .group:00000000 wm4.BitIoLdd8.h.86.3f05f0deda60864e24298fccd4f84847
                           .group:00000000 wm4.IR3.h.115.487f3b2e89cbf00a9b70404b3ff28538
                           .group:00000000 wm4.BitIoLdd9.h.86.193660535d8a583368f21e5788049bc2
                           .group:00000000 wm4.IR4.h.115.43d770b35540c7b4c57f8578a4ac4859
                           .group:00000000 wm4.BitIoLdd10.h.86.0a65f301f331cf043a491a1d5af49375
                           .group:00000000 wm4.IR5.h.115.5fa5d4527eda62e01e2eb48ec2474852
                           .group:00000000 wm4.BitIoLdd11.h.86.118e31cee7bf502dc8f630e7613f28ff
                           .group:00000000 wm4.IR6.h.115.844e1ca32815ba11d89c1a6d4994d491
                           .group:00000000 wm4.BitIoLdd16.h.80.553771aed0ac977680127199a53411c3
                           .group:00000000 wm4.BitIoLdd17.h.80.4955ec09d8ba6218b2155bd2806c47ef
                           .group:00000000 wm4.Q4CLeft.h.95.e8e289488260c59685bbedea33440786
                           .group:00000000 wm4.BitIoLdd18.h.80.9bd8c96d631c658197bd9f5a96217378
                           .group:00000000 wm4.BitIoLdd19.h.80.3e408b47d901a6602b2ffb435d1bed45
                           .group:00000000 wm4.Q4CRight.h.95.2dcac9bda47be73a4c2f58b434332738
                           .group:00000000 wm4.MOTTU.h.132.efbe072b278d4563486200c24bc4d8f2
                           .group:00000000 wm4.BitIoLdd12.h.83.89ad729bdc6bcdd64dbdba0a7a785f29
                           .group:00000000 wm4.DIRL.h.119.0ba0dba920116942c24256eef94918d6
                           .group:00000000 wm4.PwmLdd2.h.98.bc83a6167704a236eb65a91868225596
                           .group:00000000 wm4.PWMR.h.104.1676261867e53519aacdeb0fe42a5e28
                           .group:00000000 wm4.BitIoLdd13.h.83.b3e4843c66f80c7b9f602fbe583579ff
                           .group:00000000 wm4.DIRR.h.119.3819064066d96bdb639e5fdeb31268a4
                           .group:00000000 wm4.PwmLdd3.h.98.4e755c5cacda2ff1bc644a2d16364051
                           .group:00000000 wm4.PWML.h.104.39854974e902631947e808c7b34a4660
                           .group:00000000 wm4.PIT_PDD.h.9.7be1c07eaee825acab7b9ea5f7bf2d60
                           .group:00000000 wm4.TU_QuadInt.h.119.c95e3fe39b4be442ba105baa4ac336a5
                           .group:00000000 wm4.TimerIntLdd2.h.115.d2bfa8e5c6927b3e9f2311b6b5c7077a
                           .group:00000000 wm4.TMOUT1.h.87.b6e8a0bc76f5ddb6885fb8160d83a276
                           .group:00000000 wm4.CDC1config.h.2.2be1a589b954aa914c1902ad9ba021c3
                           .group:00000000 wm4.Rx1config.h.2.c30e4a0e45f6e807cce9dde5ea425cff
                           .group:00000000 wm4.Tx1config.h.2.d91879c115169a321839683317c9c920
                           .group:00000000 wm4.CDC1.h.124.b4a2251cc75154da6719786102b54d8a
                           .group:00000000 wm4.USB1.h.87.d7dd529d6ff87e63a83403004f604115
                           .group:00000000 wm4.FTFE_PDD.h.9.40d68fd77e239c683ea3840917fd4e47
                           .group:00000000 wm4.FMC_PDD.h.9.181464bd332af8d36f15c072c1936de8
                           .group:00000000 wm4.IntFlashLdd1.h.119.6ef6fcca95541f24b629003abfa3038e
                           .group:00000000 wm4.IFsh1.h.121.c87d7033c18812659e3ae9b3118ceeb7
                           .group:00000000 wm4.USB0.h.229.b789068b5a727688d0846632d913cfef
                           .group:00000000 wm4.ADC_PDD.h.9.df8c50f584de4b57c0a352475fa7e81c
                           .group:00000000 wm4.ADC_Bat.h.137.a84b4e3a144db38a435c2634c7d72458
                           .group:00000000 wm4.TmDt1.h.123.693fa6f195c7fc631f6dcf3a45c64eb4

UNDEFINED SYMBOLS
Cpu_OnNMIINT
__vect_table
MCUC1_Init
WAIT1_Init
CS1_Init
XF1_Init
CLS1_Init
HF1_Init
BitIoLdd1_Init
BitIoLdd2_Init
BitIoLdd3_Init
BitIoLdd4_Init
RTT1_Init
BitIoLdd5_Init
LED_IR_Init
BitIoLdd6_Init
BitIoLdd7_Init
BitIoLdd8_Init
BitIoLdd9_Init
BitIoLdd10_Init
BitIoLdd11_Init
BitIoLdd16_Init
BitIoLdd17_Init
Q4CLeft_Init
BitIoLdd18_Init
BitIoLdd19_Init
Q4CRight_Init
BitIoLdd12_Init
PwmLdd2_Init
BitIoLdd13_Init
PwmLdd3_Init
TimerIntLdd2_Init
TMOUT1_Init
Tx1_Init
Rx1_Init
USB1_Init
IFsh1_Init
ADC_Bat_Init
TmDt1_Init
