   1              		.syntax unified
   2              		.cpu cortex-m4
   3              		.eabi_attribute 27, 3
   4              		.eabi_attribute 28, 1
   5              		.fpu fpv4-sp-d16
   6              		.eabi_attribute 20, 1
   7              		.eabi_attribute 21, 1
   8              		.eabi_attribute 23, 3
   9              		.eabi_attribute 24, 1
  10              		.eabi_attribute 25, 1
  11              		.eabi_attribute 26, 1
  12              		.eabi_attribute 30, 6
  13              		.eabi_attribute 34, 1
  14              		.eabi_attribute 18, 4
  15              		.thumb
  16              		.file	"CS1.c"
  17              		.text
  18              	.Ltext0:
  19              		.cfi_sections	.debug_frame
  20              		.section	.text.CS1_Deinit,"ax",%progbits
  21              		.align	2
  22              		.global	CS1_Deinit
  23              		.thumb
  24              		.thumb_func
  26              	CS1_Deinit:
  27              	.LFB0:
  28              		.file 1 "../Generated_Code/CS1.c"
   1:../Generated_Code/CS1.c **** /* ###################################################################
   2:../Generated_Code/CS1.c **** **     This component module is generated by Processor Expert. Do not modify it.
   3:../Generated_Code/CS1.c **** **     Filename    : CS1.c
   4:../Generated_Code/CS1.c **** **     Project     : TEAM_Robot
   5:../Generated_Code/CS1.c **** **     Processor   : MK22FX512VLK12
   6:../Generated_Code/CS1.c **** **     Component   : CriticalSection
   7:../Generated_Code/CS1.c **** **     Version     : Component 01.013, Driver 01.00, CPU db: 3.00.000
   8:../Generated_Code/CS1.c **** **     Repository  : My Components
   9:../Generated_Code/CS1.c **** **     Compiler    : GNU C Compiler
  10:../Generated_Code/CS1.c **** **     Date/Time   : 2018-09-28, 15:03, # CodeGen: 0
  11:../Generated_Code/CS1.c **** **     Abstract    :
  12:../Generated_Code/CS1.c **** **
  13:../Generated_Code/CS1.c **** **     Settings    :
  14:../Generated_Code/CS1.c **** **          Component name                                 : CS1
  15:../Generated_Code/CS1.c **** **          SDK                                            : MCUC1
  16:../Generated_Code/CS1.c **** **          Use Processor Expert Default                   : no
  17:../Generated_Code/CS1.c **** **          Use FreeRTOS                                   : no
  18:../Generated_Code/CS1.c **** **     Contents    :
  19:../Generated_Code/CS1.c **** **         CriticalVariable - void CS1_CriticalVariable(void);
  20:../Generated_Code/CS1.c **** **         EnterCritical    - void CS1_EnterCritical(void);
  21:../Generated_Code/CS1.c **** **         ExitCritical     - void CS1_ExitCritical(void);
  22:../Generated_Code/CS1.c **** **         Deinit           - void CS1_Deinit(void);
  23:../Generated_Code/CS1.c **** **         Init             - void CS1_Init(void);
  24:../Generated_Code/CS1.c **** **
  25:../Generated_Code/CS1.c **** **     * Copyright (c) 2014-2018, Erich Styger
  26:../Generated_Code/CS1.c **** **      * Web:         https://mcuoneclipse.com
  27:../Generated_Code/CS1.c **** **      * SourceForge: https://sourceforge.net/projects/mcuoneclipse
  28:../Generated_Code/CS1.c **** **      * Git:         https://github.com/ErichStyger/McuOnEclipse_PEx
  29:../Generated_Code/CS1.c **** **      * All rights reserved.
  30:../Generated_Code/CS1.c **** **      *
  31:../Generated_Code/CS1.c **** **      * Redistribution and use in source and binary forms, with or without modification,
  32:../Generated_Code/CS1.c **** **      * are permitted provided that the following conditions are met:
  33:../Generated_Code/CS1.c **** **      *
  34:../Generated_Code/CS1.c **** **      * - Redistributions of source code must retain the above copyright notice, this list
  35:../Generated_Code/CS1.c **** **      *   of conditions and the following disclaimer.
  36:../Generated_Code/CS1.c **** **      *
  37:../Generated_Code/CS1.c **** **      * - Redistributions in binary form must reproduce the above copyright notice, this
  38:../Generated_Code/CS1.c **** **      *   list of conditions and the following disclaimer in the documentation and/or
  39:../Generated_Code/CS1.c **** **      *   other materials provided with the distribution.
  40:../Generated_Code/CS1.c **** **      *
  41:../Generated_Code/CS1.c **** **      * THIS SOFTWARE IS PROVIDED BY THE COPYRIGHT HOLDERS AND CONTRIBUTORS "AS IS" AND
  42:../Generated_Code/CS1.c **** **      * ANY EXPRESS OR IMPLIED WARRANTIES, INCLUDING, BUT NOT LIMITED TO, THE IMPLIED
  43:../Generated_Code/CS1.c **** **      * WARRANTIES OF MERCHANTABILITY AND FITNESS FOR A PARTICULAR PURPOSE ARE
  44:../Generated_Code/CS1.c **** **      * DISCLAIMED. IN NO EVENT SHALL THE COPYRIGHT HOLDER OR CONTRIBUTORS BE LIABLE FOR
  45:../Generated_Code/CS1.c **** **      * ANY DIRECT, INDIRECT, INCIDENTAL, SPECIAL, EXEMPLARY, OR CONSEQUENTIAL DAMAGES
  46:../Generated_Code/CS1.c **** **      * (INCLUDING, BUT NOT LIMITED TO, PROCUREMENT OF SUBSTITUTE GOODS OR SERVICES;
  47:../Generated_Code/CS1.c **** **      * LOSS OF USE, DATA, OR PROFITS; OR BUSINESS INTERRUPTION) HOWEVER CAUSED AND ON
  48:../Generated_Code/CS1.c **** **      * ANY THEORY OF LIABILITY, WHETHER IN CONTRACT, STRICT LIABILITY, OR TORT
  49:../Generated_Code/CS1.c **** **      * (INCLUDING NEGLIGENCE OR OTHERWISE) ARISING IN ANY WAY OUT OF THE USE OF THIS
  50:../Generated_Code/CS1.c **** **      * SOFTWARE, EVEN IF ADVISED OF THE POSSIBILITY OF SUCH DAMAGE.
  51:../Generated_Code/CS1.c **** ** ###################################################################*/
  52:../Generated_Code/CS1.c **** /*!
  53:../Generated_Code/CS1.c **** ** @file CS1.c
  54:../Generated_Code/CS1.c **** ** @version 01.00
  55:../Generated_Code/CS1.c **** ** @brief
  56:../Generated_Code/CS1.c **** **
  57:../Generated_Code/CS1.c **** */         
  58:../Generated_Code/CS1.c **** /*!
  59:../Generated_Code/CS1.c **** **  @addtogroup CS1_module CS1 module documentation
  60:../Generated_Code/CS1.c **** **  @{
  61:../Generated_Code/CS1.c **** */         
  62:../Generated_Code/CS1.c **** 
  63:../Generated_Code/CS1.c **** /* MODULE CS1. */
  64:../Generated_Code/CS1.c **** 
  65:../Generated_Code/CS1.c **** #include "CS1.h"
  66:../Generated_Code/CS1.c **** 
  67:../Generated_Code/CS1.c **** /*
  68:../Generated_Code/CS1.c **** ** ===================================================================
  69:../Generated_Code/CS1.c **** **     Method      :  CS1_CriticalVariable (component CriticalSection)
  70:../Generated_Code/CS1.c **** **     Description :
  71:../Generated_Code/CS1.c **** **         Defines a variable if necessary. This is a macro.
  72:../Generated_Code/CS1.c **** **     Parameters  : None
  73:../Generated_Code/CS1.c **** **     Returns     : Nothing
  74:../Generated_Code/CS1.c **** ** ===================================================================
  75:../Generated_Code/CS1.c **** */
  76:../Generated_Code/CS1.c **** /*
  77:../Generated_Code/CS1.c **** void CS1_CriticalVariable(void)
  78:../Generated_Code/CS1.c **** {
  79:../Generated_Code/CS1.c ****   *** Implemented as macro in the header file CS1.h
  80:../Generated_Code/CS1.c **** }
  81:../Generated_Code/CS1.c **** */
  82:../Generated_Code/CS1.c **** 
  83:../Generated_Code/CS1.c **** /*
  84:../Generated_Code/CS1.c **** ** ===================================================================
  85:../Generated_Code/CS1.c **** **     Method      :  CS1_EnterCritical (component CriticalSection)
  86:../Generated_Code/CS1.c **** **     Description :
  87:../Generated_Code/CS1.c **** **         Enters a critical section
  88:../Generated_Code/CS1.c **** **     Parameters  : None
  89:../Generated_Code/CS1.c **** **     Returns     : Nothing
  90:../Generated_Code/CS1.c **** ** ===================================================================
  91:../Generated_Code/CS1.c **** */
  92:../Generated_Code/CS1.c **** /*
  93:../Generated_Code/CS1.c **** void CS1_EnterCritical(void)
  94:../Generated_Code/CS1.c **** {
  95:../Generated_Code/CS1.c ****   *** Implemented as macro in the header file CS1.h
  96:../Generated_Code/CS1.c **** }
  97:../Generated_Code/CS1.c **** */
  98:../Generated_Code/CS1.c **** 
  99:../Generated_Code/CS1.c **** /*
 100:../Generated_Code/CS1.c **** ** ===================================================================
 101:../Generated_Code/CS1.c **** **     Method      :  CS1_ExitCritical (component CriticalSection)
 102:../Generated_Code/CS1.c **** **     Description :
 103:../Generated_Code/CS1.c **** **         Exits a critical section
 104:../Generated_Code/CS1.c **** **     Parameters  : None
 105:../Generated_Code/CS1.c **** **     Returns     : Nothing
 106:../Generated_Code/CS1.c **** ** ===================================================================
 107:../Generated_Code/CS1.c **** */
 108:../Generated_Code/CS1.c **** /*
 109:../Generated_Code/CS1.c **** void CS1_ExitCritical(void)
 110:../Generated_Code/CS1.c **** {
 111:../Generated_Code/CS1.c ****   *** Implemented as macro in the header file CS1.h
 112:../Generated_Code/CS1.c **** }
 113:../Generated_Code/CS1.c **** */
 114:../Generated_Code/CS1.c **** 
 115:../Generated_Code/CS1.c **** /*
 116:../Generated_Code/CS1.c **** ** ===================================================================
 117:../Generated_Code/CS1.c **** **     Method      :  CS1_Deinit (component CriticalSection)
 118:../Generated_Code/CS1.c **** **     Description :
 119:../Generated_Code/CS1.c **** **         Driver de-initialization routine
 120:../Generated_Code/CS1.c **** **     Parameters  : None
 121:../Generated_Code/CS1.c **** **     Returns     : Nothing
 122:../Generated_Code/CS1.c **** ** ===================================================================
 123:../Generated_Code/CS1.c **** */
 124:../Generated_Code/CS1.c **** void CS1_Deinit(void)
 125:../Generated_Code/CS1.c **** {
  29              		.loc 1 125 0
  30              		.cfi_startproc
  31              		@ args = 0, pretend = 0, frame = 0
  32              		@ frame_needed = 1, uses_anonymous_args = 0
  33              		@ link register save eliminated.
  34 0000 80B4     		push	{r7}
  35              		.cfi_def_cfa_offset 4
  36              		.cfi_offset 7, -4
  37 0002 00AF     		add	r7, sp, #0
  38              		.cfi_def_cfa_register 7
 126:../Generated_Code/CS1.c ****   /* nothing needed */
 127:../Generated_Code/CS1.c **** }
  39              		.loc 1 127 0
  40 0004 BD46     		mov	sp, r7
  41              		@ sp needed
  42 0006 5DF8047B 		ldr	r7, [sp], #4
  43 000a 7047     		bx	lr
  44              		.cfi_endproc
  45              	.LFE0:
  47              		.section	.text.CS1_Init,"ax",%progbits
  48              		.align	2
  49              		.global	CS1_Init
  50              		.thumb
  51              		.thumb_func
  53              	CS1_Init:
  54              	.LFB1:
 128:../Generated_Code/CS1.c **** 
 129:../Generated_Code/CS1.c **** /*
 130:../Generated_Code/CS1.c **** ** ===================================================================
 131:../Generated_Code/CS1.c **** **     Method      :  CS1_Init (component CriticalSection)
 132:../Generated_Code/CS1.c **** **     Description :
 133:../Generated_Code/CS1.c **** **         driver initialization routine
 134:../Generated_Code/CS1.c **** **     Parameters  : None
 135:../Generated_Code/CS1.c **** **     Returns     : Nothing
 136:../Generated_Code/CS1.c **** ** ===================================================================
 137:../Generated_Code/CS1.c **** */
 138:../Generated_Code/CS1.c **** void CS1_Init(void)
 139:../Generated_Code/CS1.c **** {
  55              		.loc 1 139 0
  56              		.cfi_startproc
  57              		@ args = 0, pretend = 0, frame = 0
  58              		@ frame_needed = 1, uses_anonymous_args = 0
  59              		@ link register save eliminated.
  60 0000 80B4     		push	{r7}
  61              		.cfi_def_cfa_offset 4
  62              		.cfi_offset 7, -4
  63 0002 00AF     		add	r7, sp, #0
  64              		.cfi_def_cfa_register 7
 140:../Generated_Code/CS1.c ****   /* nothing needed */
 141:../Generated_Code/CS1.c **** }
  65              		.loc 1 141 0
  66 0004 BD46     		mov	sp, r7
  67              		@ sp needed
  68 0006 5DF8047B 		ldr	r7, [sp], #4
  69 000a 7047     		bx	lr
  70              		.cfi_endproc
  71              	.LFE1:
  73              		.text
  74              	.Letext0: