   1              		.syntax unified
   2              		.cpu cortex-m4
   3              		.eabi_attribute 27, 3
   4              		.eabi_attribute 28, 1
   5              		.fpu fpv4-sp-d16
   6              		.eabi_attribute 20, 1
   7              		.eabi_attribute 21, 1
   8              		.eabi_attribute 23, 3
   9              		.eabi_attribute 24, 1
  10              		.eabi_attribute 25, 1
  11              		.eabi_attribute 26, 1
  12              		.eabi_attribute 30, 6
  13              		.eabi_attribute 34, 1
  14              		.eabi_attribute 18, 4
  15              		.thumb
  16              		.file	"HF1.c"
  17              		.text
  18              	.Ltext0:
  19              		.cfi_sections	.debug_frame
  20              		.section	.text.HF1_HandlerC,"ax",%progbits
  21              		.align	2
  22              		.global	HF1_HandlerC
  23              		.thumb
  24              		.thumb_func
  26              	HF1_HandlerC:
  27              	.LFB0:
  28              		.file 1 "../Generated_Code/HF1.c"
   1:../Generated_Code/HF1.c **** /* ###################################################################
   2:../Generated_Code/HF1.c **** **     This component module is generated by Processor Expert. Do not modify it.
   3:../Generated_Code/HF1.c **** **     Filename    : HF1.c
   4:../Generated_Code/HF1.c **** **     Project     : TEAM_Robot
   5:../Generated_Code/HF1.c **** **     Processor   : MK22FX512VLK12
   6:../Generated_Code/HF1.c **** **     Component   : HardFault
   7:../Generated_Code/HF1.c **** **     Version     : Component 01.020, Driver 01.00, CPU db: 3.00.000
   8:../Generated_Code/HF1.c **** **     Repository  : My Components
   9:../Generated_Code/HF1.c **** **     Compiler    : GNU C Compiler
  10:../Generated_Code/HF1.c **** **     Date/Time   : 2018-09-28, 15:03, # CodeGen: 0
  11:../Generated_Code/HF1.c **** **     Abstract    :
  12:../Generated_Code/HF1.c **** **          Component to simplify hard faults for ARM/Kinetis.
  13:../Generated_Code/HF1.c **** **     Settings    :
  14:../Generated_Code/HF1.c **** **          Component name                                 : HF1
  15:../Generated_Code/HF1.c **** **          SDK                                            : MCUC1
  16:../Generated_Code/HF1.c **** **          Disable write buffer                           : yes
  17:../Generated_Code/HF1.c **** **     Contents    :
  18:../Generated_Code/HF1.c **** **         HardFaultHandler - void HF1_HardFaultHandler(void);
  19:../Generated_Code/HF1.c **** **         Deinit           - void HF1_Deinit(void);
  20:../Generated_Code/HF1.c **** **         Init             - void HF1_Init(void);
  21:../Generated_Code/HF1.c **** **
  22:../Generated_Code/HF1.c **** **     * Copyright (c) 2014-2017, Erich Styger
  23:../Generated_Code/HF1.c **** **      * Web:         https://mcuoneclipse.com
  24:../Generated_Code/HF1.c **** **      * SourceForge: https://sourceforge.net/projects/mcuoneclipse
  25:../Generated_Code/HF1.c **** **      * Git:         https://github.com/ErichStyger/McuOnEclipse_PEx
  26:../Generated_Code/HF1.c **** **      * All rights reserved.
  27:../Generated_Code/HF1.c **** **      *
  28:../Generated_Code/HF1.c **** **      * Redistribution and use in source and binary forms, with or without modification,
  29:../Generated_Code/HF1.c **** **      * are permitted provided that the following conditions are met:
  30:../Generated_Code/HF1.c **** **      *
  31:../Generated_Code/HF1.c **** **      * - Redistributions of source code must retain the above copyright notice, this list
  32:../Generated_Code/HF1.c **** **      *   of conditions and the following disclaimer.
  33:../Generated_Code/HF1.c **** **      *
  34:../Generated_Code/HF1.c **** **      * - Redistributions in binary form must reproduce the above copyright notice, this
  35:../Generated_Code/HF1.c **** **      *   list of conditions and the following disclaimer in the documentation and/or
  36:../Generated_Code/HF1.c **** **      *   other materials provided with the distribution.
  37:../Generated_Code/HF1.c **** **      *
  38:../Generated_Code/HF1.c **** **      * THIS SOFTWARE IS PROVIDED BY THE COPYRIGHT HOLDERS AND CONTRIBUTORS "AS IS" AND
  39:../Generated_Code/HF1.c **** **      * ANY EXPRESS OR IMPLIED WARRANTIES, INCLUDING, BUT NOT LIMITED TO, THE IMPLIED
  40:../Generated_Code/HF1.c **** **      * WARRANTIES OF MERCHANTABILITY AND FITNESS FOR A PARTICULAR PURPOSE ARE
  41:../Generated_Code/HF1.c **** **      * DISCLAIMED. IN NO EVENT SHALL THE COPYRIGHT HOLDER OR CONTRIBUTORS BE LIABLE FOR
  42:../Generated_Code/HF1.c **** **      * ANY DIRECT, INDIRECT, INCIDENTAL, SPECIAL, EXEMPLARY, OR CONSEQUENTIAL DAMAGES
  43:../Generated_Code/HF1.c **** **      * (INCLUDING, BUT NOT LIMITED TO, PROCUREMENT OF SUBSTITUTE GOODS OR SERVICES;
  44:../Generated_Code/HF1.c **** **      * LOSS OF USE, DATA, OR PROFITS; OR BUSINESS INTERRUPTION) HOWEVER CAUSED AND ON
  45:../Generated_Code/HF1.c **** **      * ANY THEORY OF LIABILITY, WHETHER IN CONTRACT, STRICT LIABILITY, OR TORT
  46:../Generated_Code/HF1.c **** **      * (INCLUDING NEGLIGENCE OR OTHERWISE) ARISING IN ANY WAY OUT OF THE USE OF THIS
  47:../Generated_Code/HF1.c **** **      * SOFTWARE, EVEN IF ADVISED OF THE POSSIBILITY OF SUCH DAMAGE.
  48:../Generated_Code/HF1.c **** ** ###################################################################*/
  49:../Generated_Code/HF1.c **** /*!
  50:../Generated_Code/HF1.c **** ** @file HF1.c
  51:../Generated_Code/HF1.c **** ** @version 01.00
  52:../Generated_Code/HF1.c **** ** @brief
  53:../Generated_Code/HF1.c **** **          Component to simplify hard faults for ARM/Kinetis.
  54:../Generated_Code/HF1.c **** */         
  55:../Generated_Code/HF1.c **** /*!
  56:../Generated_Code/HF1.c **** **  @addtogroup HF1_module HF1 module documentation
  57:../Generated_Code/HF1.c **** **  @{
  58:../Generated_Code/HF1.c **** */         
  59:../Generated_Code/HF1.c **** 
  60:../Generated_Code/HF1.c **** /* MODULE HF1. */
  61:../Generated_Code/HF1.c **** 
  62:../Generated_Code/HF1.c **** #include "HF1.h"
  63:../Generated_Code/HF1.c **** 
  64:../Generated_Code/HF1.c **** /*
  65:../Generated_Code/HF1.c **** ** ===================================================================
  66:../Generated_Code/HF1.c **** **     Method      :  HF1_HandlerC (component HardFault)
  67:../Generated_Code/HF1.c **** **
  68:../Generated_Code/HF1.c **** **     Description :
  69:../Generated_Code/HF1.c **** **         Additional handler which decodes the processor status
  70:../Generated_Code/HF1.c **** **         This method is internal. It is used by Processor Expert only.
  71:../Generated_Code/HF1.c **** ** ===================================================================
  72:../Generated_Code/HF1.c **** */
  73:../Generated_Code/HF1.c **** /**
  74:../Generated_Code/HF1.c ****  * This is called from the HardFaultHandler with a pointer the Fault stack
  75:../Generated_Code/HF1.c ****  * as the parameter. We can then read the values from the stack and place them
  76:../Generated_Code/HF1.c ****  * into local variables for ease of reading.
  77:../Generated_Code/HF1.c ****  * We then read the various Fault Status and Address Registers to help decode
  78:../Generated_Code/HF1.c ****  * cause of the fault.
  79:../Generated_Code/HF1.c ****  * The function ends with a BKPT instruction to force control back into the debugger
  80:../Generated_Code/HF1.c ****  */
  81:../Generated_Code/HF1.c **** #pragma GCC diagnostic ignored "-Wunused-but-set-variable"
  82:../Generated_Code/HF1.c **** void HF1_HandlerC(uint32_t *hardfault_args)
  83:../Generated_Code/HF1.c **** {
  29              		.loc 1 83 0
  30              		.cfi_startproc
  31              		@ args = 0, pretend = 0, frame = 8
  32              		@ frame_needed = 1, uses_anonymous_args = 0
  33              		@ link register save eliminated.
  34 0000 80B4     		push	{r7}
  35              		.cfi_def_cfa_offset 4
  36              		.cfi_offset 7, -4
  37 0002 83B0     		sub	sp, sp, #12
  38              		.cfi_def_cfa_offset 16
  39 0004 00AF     		add	r7, sp, #0
  40              		.cfi_def_cfa_register 7
  41 0006 7860     		str	r0, [r7, #4]
  84:../Generated_Code/HF1.c ****   /*lint -save  -e550 Symbol not accessed. */
  85:../Generated_Code/HF1.c ****   static volatile unsigned long stacked_r0;
  86:../Generated_Code/HF1.c ****   static volatile unsigned long stacked_r1;
  87:../Generated_Code/HF1.c ****   static volatile unsigned long stacked_r2;
  88:../Generated_Code/HF1.c ****   static volatile unsigned long stacked_r3;
  89:../Generated_Code/HF1.c ****   static volatile unsigned long stacked_r12;
  90:../Generated_Code/HF1.c ****   static volatile unsigned long stacked_lr;
  91:../Generated_Code/HF1.c ****   static volatile unsigned long stacked_pc;
  92:../Generated_Code/HF1.c ****   static volatile unsigned long stacked_psr;
  93:../Generated_Code/HF1.c ****   static volatile unsigned long _CFSR;
  94:../Generated_Code/HF1.c ****   static volatile unsigned long _HFSR;
  95:../Generated_Code/HF1.c ****   static volatile unsigned long _DFSR;
  96:../Generated_Code/HF1.c ****   static volatile unsigned long _AFSR;
  97:../Generated_Code/HF1.c ****   static volatile unsigned long _BFAR;
  98:../Generated_Code/HF1.c ****   static volatile unsigned long _MMAR;
  99:../Generated_Code/HF1.c ****   stacked_r0 = ((unsigned long)hardfault_args[0]);          // http://www.asciiworld.com/-Smiley,20
  42              		.loc 1 99 0
  43 0008 7B68     		ldr	r3, [r7, #4]
  44 000a 1A68     		ldr	r2, [r3]
  45 000c 1D4B     		ldr	r3, .L2
  46 000e 1A60     		str	r2, [r3]
 100:../Generated_Code/HF1.c ****   stacked_r1 = ((unsigned long)hardfault_args[1]);          //                         oooo$$$$$$$$
  47              		.loc 1 100 0
  48 0010 7B68     		ldr	r3, [r7, #4]
  49 0012 5A68     		ldr	r2, [r3, #4]
  50 0014 1C4B     		ldr	r3, .L2+4
  51 0016 1A60     		str	r2, [r3]
 101:../Generated_Code/HF1.c ****   stacked_r2 = ((unsigned long)hardfault_args[2]);          //                      oo$$$$$$$$$$$$$
  52              		.loc 1 101 0
  53 0018 7B68     		ldr	r3, [r7, #4]
  54 001a 9A68     		ldr	r2, [r3, #8]
  55 001c 1B4B     		ldr	r3, .L2+8
  56 001e 1A60     		str	r2, [r3]
 102:../Generated_Code/HF1.c ****   stacked_r3 = ((unsigned long)hardfault_args[3]);          //                    oo$$$$$$$$$$$$$$$
  57              		.loc 1 102 0
  58 0020 7B68     		ldr	r3, [r7, #4]
  59 0022 DA68     		ldr	r2, [r3, #12]
  60 0024 1A4B     		ldr	r3, .L2+12
  61 0026 1A60     		str	r2, [r3]
 103:../Generated_Code/HF1.c ****   stacked_r12 = ((unsigned long)hardfault_args[4]);         //    o $ oo        o$$$$$$$$$$$$$$$$$$
  62              		.loc 1 103 0
  63 0028 7B68     		ldr	r3, [r7, #4]
  64 002a 1A69     		ldr	r2, [r3, #16]
  65 002c 194B     		ldr	r3, .L2+16
  66 002e 1A60     		str	r2, [r3]
 104:../Generated_Code/HF1.c ****   stacked_lr = ((unsigned long)hardfault_args[5]);          // oo $ $ "$      o$$$$$$$$$    $$$$$$$
  67              		.loc 1 104 0
  68 0030 7B68     		ldr	r3, [r7, #4]
  69 0032 5A69     		ldr	r2, [r3, #20]
  70 0034 184B     		ldr	r3, .L2+20
  71 0036 1A60     		str	r2, [r3]
 105:../Generated_Code/HF1.c ****   stacked_pc = ((unsigned long)hardfault_args[6]);          // "$$$$$$o$     o$$$$$$$$$      $$$$$$
  72              		.loc 1 105 0
  73 0038 7B68     		ldr	r3, [r7, #4]
  74 003a 9A69     		ldr	r2, [r3, #24]
  75 003c 174B     		ldr	r3, .L2+24
  76 003e 1A60     		str	r2, [r3]
 106:../Generated_Code/HF1.c ****   stacked_psr = ((unsigned long)hardfault_args[7]);         //   $$$$$$$    $$$$$$$$$$$      $$$$$$
  77              		.loc 1 106 0
  78 0040 7B68     		ldr	r3, [r7, #4]
  79 0042 DA69     		ldr	r2, [r3, #28]
  80 0044 164B     		ldr	r3, .L2+28
  81 0046 1A60     		str	r2, [r3]
 107:../Generated_Code/HF1.c ****                                                             //   $$$$$$$$$$$$$$$$$$$$$$$    $$$$$$$
 108:../Generated_Code/HF1.c ****   /* Configurable Fault Status Register */                  //    "$$$""""$$$$$$$$$$$$$$$$$$$$$$$$$
 109:../Generated_Code/HF1.c ****   /* Consists of MMSR, BFSR and UFSR */                     //     $$$   o$$$$$$$$$$$$$$$$$$$$$$$$$
 110:../Generated_Code/HF1.c ****   _CFSR = (*((volatile unsigned long *)(0xE000ED28)));      //    o$$"   $$$$$$$$$$$$$$$$$$$$$$$$$$
  82              		.loc 1 110 0
  83 0048 164B     		ldr	r3, .L2+32
  84 004a 1A68     		ldr	r2, [r3]
  85 004c 164B     		ldr	r3, .L2+36
  86 004e 1A60     		str	r2, [r3]
 111:../Generated_Code/HF1.c ****                                                             //    $$$    $$$$$$$$$$$$$$$$$$$$$$$$$$
 112:../Generated_Code/HF1.c ****   /* Hard Fault Status Register */                          //   o$$$oooo$$$$$  $$$$$$$$$$$$$$$$$$$
 113:../Generated_Code/HF1.c ****   _HFSR = (*((volatile unsigned long *)(0xE000ED2C)));      //   $$$$$$$$"$$$$   $$$$$$$$$$$$$$$$$$
  87              		.loc 1 113 0
  88 0050 164B     		ldr	r3, .L2+40
  89 0052 1A68     		ldr	r2, [r3]
  90 0054 164B     		ldr	r3, .L2+44
  91 0056 1A60     		str	r2, [r3]
 114:../Generated_Code/HF1.c ****                                                             //  """"       $$$$    "$$$$$$$$$$$$$$$
 115:../Generated_Code/HF1.c ****   /* Debug Fault Status Register */                         //             "$$$o     """$$$$$$$$$$$
 116:../Generated_Code/HF1.c ****   _DFSR = (*((volatile unsigned long *)(0xE000ED30)));      //               $$$o          "$$""$$$
  92              		.loc 1 116 0
  93 0058 164B     		ldr	r3, .L2+48
  94 005a 1A68     		ldr	r2, [r3]
  95 005c 164B     		ldr	r3, .L2+52
  96 005e 1A60     		str	r2, [r3]
 117:../Generated_Code/HF1.c ****                                                             //                $$$$o                
 118:../Generated_Code/HF1.c ****   /* Auxiliary Fault Status Register */                     //                 "$$$$o      o$$$$$$o
 119:../Generated_Code/HF1.c ****   _AFSR = (*((volatile unsigned long *)(0xE000ED3C)));      //                   "$$$$$oo     ""$$$
  97              		.loc 1 119 0
  98 0060 164B     		ldr	r3, .L2+56
  99 0062 1A68     		ldr	r2, [r3]
 100 0064 164B     		ldr	r3, .L2+60
 101 0066 1A60     		str	r2, [r3]
 120:../Generated_Code/HF1.c ****                                                             //                      ""$$$$$oooo  "$
 121:../Generated_Code/HF1.c ****                                                             //                         ""$$$$$$$oo 
 122:../Generated_Code/HF1.c ****   /* Read the Fault Address Registers. */                   //                                 """"
 123:../Generated_Code/HF1.c ****   /* These may not contain valid values. */                 //                                     
 124:../Generated_Code/HF1.c ****   /* Check BFARVALID/MMARVALID to see */                    //                                     
 125:../Generated_Code/HF1.c ****   /* if they are valid values */                            //                                     
 126:../Generated_Code/HF1.c ****   /* MemManage Fault Address Register */
 127:../Generated_Code/HF1.c ****   _MMAR = (*((volatile unsigned long *)(0xE000ED34)));
 102              		.loc 1 127 0
 103 0068 164B     		ldr	r3, .L2+64
 104 006a 1A68     		ldr	r2, [r3]
 105 006c 164B     		ldr	r3, .L2+68
 106 006e 1A60     		str	r2, [r3]
 128:../Generated_Code/HF1.c ****   /* Bus Fault Address Register */
 129:../Generated_Code/HF1.c ****   _BFAR = (*((volatile unsigned long *)(0xE000ED38)));
 107              		.loc 1 129 0
 108 0070 164B     		ldr	r3, .L2+72
 109 0072 1A68     		ldr	r2, [r3]
 110 0074 164B     		ldr	r3, .L2+76
 111 0076 1A60     		str	r2, [r3]
 130:../Generated_Code/HF1.c **** 
 131:../Generated_Code/HF1.c **** #if 0 /* experimental, seems not to work properly with GDB in KDS V3.2.0 */
 132:../Generated_Code/HF1.c **** #ifdef __GNUC__ /* might improve stack, see https://www.element14.com/community/message/199113/l/gd
 133:../Generated_Code/HF1.c ****   __asm volatile (
 134:../Generated_Code/HF1.c ****       "tst lr,#4     \n" /* check which stack pointer we are using */
 135:../Generated_Code/HF1.c ****       "ite eq        \n"
 136:../Generated_Code/HF1.c ****       "mrseq r0, msp \n" /* use MSP */
 137:../Generated_Code/HF1.c ****       "mrsne r0, psp \n" /* use PSP */
 138:../Generated_Code/HF1.c ****       "mov sp, r0    \n" /* set stack pointer so GDB shows proper stack frame */
 139:../Generated_Code/HF1.c ****   );
 140:../Generated_Code/HF1.c **** #endif
 141:../Generated_Code/HF1.c **** #endif
 142:../Generated_Code/HF1.c ****   __asm("BKPT #0\n") ; /* cause the debugger to stop */
 112              		.loc 1 142 0
 113              	@ 142 "../Generated_Code/HF1.c" 1
 114 0078 00BE     		BKPT #0
 115              	
 116              	@ 0 "" 2
 143:../Generated_Code/HF1.c ****   /*lint -restore */
 144:../Generated_Code/HF1.c **** }
 117              		.loc 1 144 0
 118              		.thumb
 119 007a 0C37     		adds	r7, r7, #12
 120 007c BD46     		mov	sp, r7
 121              		@ sp needed
 122 007e 5DF8047B 		ldr	r7, [sp], #4
 123 0082 7047     		bx	lr
 124              	.L3:
 125              		.align	2
 126              	.L2:
 127 0084 00000000 		.word	stacked_r0.6232
 128 0088 00000000 		.word	stacked_r1.6233
 129 008c 00000000 		.word	stacked_r2.6234
 130 0090 00000000 		.word	stacked_r3.6235
 131 0094 00000000 		.word	stacked_r12.6236
 132 0098 00000000 		.word	stacked_lr.6237
 133 009c 00000000 		.word	stacked_pc.6238
 134 00a0 00000000 		.word	stacked_psr.6239
 135 00a4 28ED00E0 		.word	-536810200
 136 00a8 00000000 		.word	_CFSR.6240
 137 00ac 2CED00E0 		.word	-536810196
 138 00b0 00000000 		.word	_HFSR.6241
 139 00b4 30ED00E0 		.word	-536810192
 140 00b8 00000000 		.word	_DFSR.6242
 141 00bc 3CED00E0 		.word	-536810180
 142 00c0 00000000 		.word	_AFSR.6243
 143 00c4 34ED00E0 		.word	-536810188
 144 00c8 00000000 		.word	_MMAR.6245
 145 00cc 38ED00E0 		.word	-536810184
 146 00d0 00000000 		.word	_BFAR.6244
 147              		.cfi_endproc
 148              	.LFE0:
 150              		.section	.text.HF1_HardFaultHandler,"ax",%progbits
 151              		.align	2
 152              		.global	HF1_HardFaultHandler
 153              		.thumb
 154              		.thumb_func
 156              	HF1_HardFaultHandler:
 157              	.LFB1:
 145:../Generated_Code/HF1.c **** 
 146:../Generated_Code/HF1.c **** /*
 147:../Generated_Code/HF1.c **** ** ===================================================================
 148:../Generated_Code/HF1.c **** **     Method      :  HF1_HardFaultHandler (component HardFault)
 149:../Generated_Code/HF1.c **** **     Description :
 150:../Generated_Code/HF1.c **** **         Hard Fault Handler
 151:../Generated_Code/HF1.c **** **     Parameters  : None
 152:../Generated_Code/HF1.c **** **     Returns     : Nothing
 153:../Generated_Code/HF1.c **** ** ===================================================================
 154:../Generated_Code/HF1.c **** */
 155:../Generated_Code/HF1.c **** #pragma GCC diagnostic ignored "-Wunused-but-set-variable"
 156:../Generated_Code/HF1.c **** __attribute__((naked))
 157:../Generated_Code/HF1.c **** #if MCUC1_CONFIG_SDK_VERSION_USED != MCUC1_CONFIG_SDK_PROCESSOR_EXPERT
 158:../Generated_Code/HF1.c **** void HardFault_Handler(void)
 159:../Generated_Code/HF1.c **** #else
 160:../Generated_Code/HF1.c **** void HF1_HardFaultHandler(void)
 161:../Generated_Code/HF1.c **** #endif
 162:../Generated_Code/HF1.c **** {
 158              		.loc 1 162 0
 159              		.cfi_startproc
 160              		@ Naked Function: prologue and epilogue provided by programmer.
 161              		@ args = 0, pretend = 0, frame = 0
 162              		@ frame_needed = 1, uses_anonymous_args = 0
 163:../Generated_Code/HF1.c ****   __asm volatile (
 163              		.loc 1 163 0
 164              	@ 163 "../Generated_Code/HF1.c" 1
 165 0000 0420     		 movs r0,#4      
 166 0002 7146     	 mov r1, lr      
 167 0004 0842     	 tst r0, r1      
 168 0006 00F00480 	 beq _MSP        
 169 000a EFF30980 	 mrs r0, psp     
 170 000e 00F002B8 	 b _GetPC        
 171              	_MSP:              
 172 0012 EFF30880 	 mrs r0, msp     
 173              	_GetPC:            
 174 0016 4169     	 ldr r1,[r0,#20] 
 175 0018 FFF7FEBF 	 b HF1_HandlerC   
 176              	
 177              	@ 0 "" 2
 164:../Generated_Code/HF1.c ****     " movs r0,#4      \n"  /* load bit mask into R0 */
 165:../Generated_Code/HF1.c ****     " mov r1, lr      \n"  /* load link register into R1 */
 166:../Generated_Code/HF1.c ****     " tst r0, r1      \n"  /* compare with bitmask */
 167:../Generated_Code/HF1.c ****     " beq _MSP        \n"  /* if bitmask is set: stack pointer is in PSP. Otherwise in MSP */
 168:../Generated_Code/HF1.c ****     " mrs r0, psp     \n"  /* otherwise: stack pointer is in PSP */
 169:../Generated_Code/HF1.c ****     " b _GetPC        \n"  /* go to part which loads the PC */
 170:../Generated_Code/HF1.c ****   "_MSP:              \n"  /* stack pointer is in MSP register */
 171:../Generated_Code/HF1.c ****     " mrs r0, msp     \n"  /* load stack pointer into R0 */
 172:../Generated_Code/HF1.c ****   "_GetPC:            \n"  /* find out where the hard fault happened */
 173:../Generated_Code/HF1.c ****     " ldr r1,[r0,#20] \n"  /* load program counter into R1. R1 contains address of the next instruc
 174:../Generated_Code/HF1.c ****     " b HF1_HandlerC   \n"  /* decode more information. R0 contains pointer to stack frame */
 175:../Generated_Code/HF1.c ****   );
 176:../Generated_Code/HF1.c **** }
 178              		.loc 1 176 0
 179              		.thumb
 180              		.cfi_endproc
 181              	.LFE1:
 183              		.section	.text.HF1_Deinit,"ax",%progbits
 184              		.align	2
 185              		.global	HF1_Deinit
 186              		.thumb
 187              		.thumb_func
 189              	HF1_Deinit:
 190              	.LFB2:
 177:../Generated_Code/HF1.c **** 
 178:../Generated_Code/HF1.c **** /*
 179:../Generated_Code/HF1.c **** ** ===================================================================
 180:../Generated_Code/HF1.c **** **     Method      :  HF1_Deinit (component HardFault)
 181:../Generated_Code/HF1.c **** **     Description :
 182:../Generated_Code/HF1.c **** **         Deinitializes the driver
 183:../Generated_Code/HF1.c **** **     Parameters  : None
 184:../Generated_Code/HF1.c **** **     Returns     : Nothing
 185:../Generated_Code/HF1.c **** ** ===================================================================
 186:../Generated_Code/HF1.c **** */
 187:../Generated_Code/HF1.c **** void HF1_Deinit(void)
 188:../Generated_Code/HF1.c **** {
 191              		.loc 1 188 0
 192              		.cfi_startproc
 193              		@ args = 0, pretend = 0, frame = 0
 194              		@ frame_needed = 1, uses_anonymous_args = 0
 195              		@ link register save eliminated.
 196 0000 80B4     		push	{r7}
 197              		.cfi_def_cfa_offset 4
 198              		.cfi_offset 7, -4
 199 0002 00AF     		add	r7, sp, #0
 200              		.cfi_def_cfa_register 7
 189:../Generated_Code/HF1.c **** #if HF1_CONFIG_SETTING_DISABLE_WRITE_BUFFER
 190:../Generated_Code/HF1.c ****   #if MCUC1_CONFIG_SDK_VERSION_USED == MCUC1_CONFIG_SDK_PROCESSOR_EXPERT
 191:../Generated_Code/HF1.c ****     SCB_ACTLR &= ~(SCB_ACTLR_DISDEFWBUF_MASK); /* write buffer bit, see https://community.nxp.com/d
 201              		.loc 1 191 0
 202 0004 4FF0E023 		mov	r3, #-536813568
 203 0008 4FF0E022 		mov	r2, #-536813568
 204 000c 9268     		ldr	r2, [r2, #8]
 205 000e 22F00202 		bic	r2, r2, #2
 206 0012 9A60     		str	r2, [r3, #8]
 192:../Generated_Code/HF1.c ****   #elif MCUC1_CONFIG_NXP_SDK_USED
 193:../Generated_Code/HF1.c ****     SCnSCB->ACTLR &= ~SCnSCB_ACTLR_DISDEFWBUF_Msk;
 194:../Generated_Code/HF1.c ****   #endif
 195:../Generated_Code/HF1.c **** #endif
 196:../Generated_Code/HF1.c **** }
 207              		.loc 1 196 0
 208 0014 BD46     		mov	sp, r7
 209              		@ sp needed
 210 0016 5DF8047B 		ldr	r7, [sp], #4
 211 001a 7047     		bx	lr
 212              		.cfi_endproc
 213              	.LFE2:
 215              		.section	.text.HF1_Init,"ax",%progbits
 216              		.align	2
 217              		.global	HF1_Init
 218              		.thumb
 219              		.thumb_func
 221              	HF1_Init:
 222              	.LFB3:
 197:../Generated_Code/HF1.c **** 
 198:../Generated_Code/HF1.c **** /*
 199:../Generated_Code/HF1.c **** ** ===================================================================
 200:../Generated_Code/HF1.c **** **     Method      :  HF1_Init (component HardFault)
 201:../Generated_Code/HF1.c **** **     Description :
 202:../Generated_Code/HF1.c **** **         Initializes the driver
 203:../Generated_Code/HF1.c **** **     Parameters  : None
 204:../Generated_Code/HF1.c **** **     Returns     : Nothing
 205:../Generated_Code/HF1.c **** ** ===================================================================
 206:../Generated_Code/HF1.c **** */
 207:../Generated_Code/HF1.c **** void HF1_Init(void)
 208:../Generated_Code/HF1.c **** {
 223              		.loc 1 208 0
 224              		.cfi_startproc
 225              		@ args = 0, pretend = 0, frame = 0
 226              		@ frame_needed = 1, uses_anonymous_args = 0
 227              		@ link register save eliminated.
 228 0000 80B4     		push	{r7}
 229              		.cfi_def_cfa_offset 4
 230              		.cfi_offset 7, -4
 231 0002 00AF     		add	r7, sp, #0
 232              		.cfi_def_cfa_register 7
 209:../Generated_Code/HF1.c **** #if HF1_CONFIG_SETTING_DISABLE_WRITE_BUFFER
 210:../Generated_Code/HF1.c ****   #if MCUC1_CONFIG_SDK_VERSION_USED == MCUC1_CONFIG_SDK_PROCESSOR_EXPERT
 211:../Generated_Code/HF1.c ****     SCB_ACTLR |= SCB_ACTLR_DISDEFWBUF_MASK; /* write buffer bit, see https://community.nxp.com/docs
 233              		.loc 1 211 0
 234 0004 4FF0E023 		mov	r3, #-536813568
 235 0008 4FF0E022 		mov	r2, #-536813568
 236 000c 9268     		ldr	r2, [r2, #8]
 237 000e 42F00202 		orr	r2, r2, #2
 238 0012 9A60     		str	r2, [r3, #8]
 212:../Generated_Code/HF1.c ****   #elif MCUC1_CONFIG_NXP_SDK_USED
 213:../Generated_Code/HF1.c ****     SCnSCB->ACTLR |= SCnSCB_ACTLR_DISDEFWBUF_Msk;
 214:../Generated_Code/HF1.c ****   #endif
 215:../Generated_Code/HF1.c **** #endif
 216:../Generated_Code/HF1.c **** }
 239              		.loc 1 216 0
 240 0014 BD46     		mov	sp, r7
 241              		@ sp needed
 242 0016 5DF8047B 		ldr	r7, [sp], #4
 243 001a 7047     		bx	lr
 244              		.cfi_endproc
 245              	.LFE3:
 247              		.section	.bss.stacked_r0.6232,"aw",%nobits
 248              		.align	2
 251              	stacked_r0.6232:
 252 0000 00000000 		.space	4
 253              		.section	.bss.stacked_r1.6233,"aw",%nobits
 254              		.align	2
 257              	stacked_r1.6233:
 258 0000 00000000 		.space	4
 259              		.section	.bss.stacked_r2.6234,"aw",%nobits
 260              		.align	2
 263              	stacked_r2.6234:
 264 0000 00000000 		.space	4
 265              		.section	.bss.stacked_r3.6235,"aw",%nobits
 266              		.align	2
 269              	stacked_r3.6235:
 270 0000 00000000 		.space	4
 271              		.section	.bss.stacked_r12.6236,"aw",%nobits
 272              		.align	2
 275              	stacked_r12.6236:
 276 0000 00000000 		.space	4
 277              		.section	.bss.stacked_lr.6237,"aw",%nobits
 278              		.align	2
 281              	stacked_lr.6237:
 282 0000 00000000 		.space	4
 283              		.section	.bss.stacked_pc.6238,"aw",%nobits
 284              		.align	2
 287              	stacked_pc.6238:
 288 0000 00000000 		.space	4
 289              		.section	.bss.stacked_psr.6239,"aw",%nobits
 290              		.align	2
 293              	stacked_psr.6239:
 294 0000 00000000 		.space	4
 295              		.section	.bss._CFSR.6240,"aw",%nobits
 296              		.align	2
 299              	_CFSR.6240:
 300 0000 00000000 		.space	4
 301              		.section	.bss._HFSR.6241,"aw",%nobits
 302              		.align	2
 305              	_HFSR.6241:
 306 0000 00000000 		.space	4
 307              		.section	.bss._DFSR.6242,"aw",%nobits
 308              		.align	2
 311              	_DFSR.6242:
 312 0000 00000000 		.space	4
 313              		.section	.bss._AFSR.6243,"aw",%nobits
 314              		.align	2
 317              	_AFSR.6243:
 318 0000 00000000 		.space	4
 319              		.section	.bss._MMAR.6245,"aw",%nobits
 320              		.align	2
 323              	_MMAR.6245:
 324 0000 00000000 		.space	4
 325              		.section	.bss._BFAR.6244,"aw",%nobits
 326              		.align	2
 329              	_BFAR.6244:
 330 0000 00000000 		.space	4
 331              		.text
 332              	.Letext0:
 333              		.file 2 "c:\\freescale\\kds_v3\\toolchain\\arm-none-eabi\\include\\machine\\_default_types.h"
 334              		.file 3 "c:\\freescale\\kds_v3\\toolchain\\arm-none-eabi\\include\\stdint.h"
 335              		.file 4 "C:/INTRO_HS18/IntroAronAlex/TEAM_Robot/Static_Code/IO_Map/MK22F12.h"