   1              		.syntax unified
   2              		.cpu cortex-m4
   3              		.eabi_attribute 27, 3
   4              		.eabi_attribute 28, 1
   5              		.fpu fpv4-sp-d16
   6              		.eabi_attribute 20, 1
   7              		.eabi_attribute 21, 1
   8              		.eabi_attribute 23, 3
   9              		.eabi_attribute 24, 1
  10              		.eabi_attribute 25, 1
  11              		.eabi_attribute 26, 1
  12              		.eabi_attribute 30, 6
  13              		.eabi_attribute 34, 1
  14              		.eabi_attribute 18, 4
  15              		.thumb
  16              		.file	"QuadInt.c"
  17              		.text
  18              	.Ltext0:
  19              		.cfi_sections	.debug_frame
  20              		.section	.rodata.TmDt1_DefaultTime,"a",%progbits
  21              		.align	2
  24              	TmDt1_DefaultTime:
  25 0000 11       		.byte	17
  26 0001 33       		.byte	51
  27 0002 1F       		.byte	31
  28 0003 00       		.byte	0
  29              		.section	.rodata.TmDt1_DefaultDate,"a",%progbits
  30              		.align	2
  33              	TmDt1_DefaultDate:
  34 0000 DC07     		.short	2012
  35 0002 07       		.byte	7
  36 0003 16       		.byte	22
  37              		.section	.text.TimerIntLdd2_OnInterrupt,"ax",%progbits
  38              		.align	2
  39              		.global	TimerIntLdd2_OnInterrupt
  40              		.thumb
  41              		.thumb_func
  43              	TimerIntLdd2_OnInterrupt:
  44              	.LFB0:
  45              		.file 1 "../Generated_Code/QuadInt.c"
   1:../Generated_Code/QuadInt.c **** /* ###################################################################
   2:../Generated_Code/QuadInt.c **** **     This component module is generated by Processor Expert. Do not modify it.
   3:../Generated_Code/QuadInt.c **** **     Filename    : QuadInt.c
   4:../Generated_Code/QuadInt.c **** **     Project     : TEAM_Robot
   5:../Generated_Code/QuadInt.c **** **     Processor   : MK22FX512VLK12
   6:../Generated_Code/QuadInt.c **** **     Component   : TimerInt
   7:../Generated_Code/QuadInt.c **** **     Version     : Component 02.161, Driver 01.02, CPU db: 3.00.000
   8:../Generated_Code/QuadInt.c **** **     Repository  : Kinetis
   9:../Generated_Code/QuadInt.c **** **     Compiler    : GNU C Compiler
  10:../Generated_Code/QuadInt.c **** **     Date/Time   : 2018-09-28, 15:03, # CodeGen: 0
  11:../Generated_Code/QuadInt.c **** **     Abstract    :
  12:../Generated_Code/QuadInt.c **** **         This component "TimerInt" implements a periodic interrupt.
  13:../Generated_Code/QuadInt.c **** **         When the component and its events are enabled, the "OnInterrupt"
  14:../Generated_Code/QuadInt.c **** **         event is called periodically with the period that you specify.
  15:../Generated_Code/QuadInt.c **** **         TimerInt supports also changing the period in runtime.
  16:../Generated_Code/QuadInt.c **** **         The source of periodic interrupt can be timer compare or reload
  17:../Generated_Code/QuadInt.c **** **         register or timer-overflow interrupt (of free running counter).
  18:../Generated_Code/QuadInt.c **** **     Settings    :
  19:../Generated_Code/QuadInt.c **** **          Component name                                 : QuadInt
  20:../Generated_Code/QuadInt.c **** **          Periodic interrupt source                      : PIT_LDVAL1
  21:../Generated_Code/QuadInt.c **** **          Counter                                        : PIT_CVAL1
  22:../Generated_Code/QuadInt.c **** **          Interrupt service/event                        : Enabled
  23:../Generated_Code/QuadInt.c **** **            Interrupt                                    : INT_PIT1
  24:../Generated_Code/QuadInt.c **** **            Interrupt priority                           : minimal priority
  25:../Generated_Code/QuadInt.c **** **          Interrupt period                               : 10 ms
  26:../Generated_Code/QuadInt.c **** **          Same period in modes                           : yes
  27:../Generated_Code/QuadInt.c **** **          Component uses entire timer                    : no
  28:../Generated_Code/QuadInt.c **** **          Initialization                                 : 
  29:../Generated_Code/QuadInt.c **** **            Enabled in init. code                        : yes
  30:../Generated_Code/QuadInt.c **** **            Events enabled in init.                      : yes
  31:../Generated_Code/QuadInt.c **** **          CPU clock/speed selection                      : 
  32:../Generated_Code/QuadInt.c **** **            High speed mode                              : This component enabled
  33:../Generated_Code/QuadInt.c **** **            Low speed mode                               : This component disabled
  34:../Generated_Code/QuadInt.c **** **            Slow speed mode                              : This component disabled
  35:../Generated_Code/QuadInt.c **** **          Referenced components                          : 
  36:../Generated_Code/QuadInt.c **** **            TimerInt_LDD                                 : TimerInt_LDD
  37:../Generated_Code/QuadInt.c **** **     Contents    :
  38:../Generated_Code/QuadInt.c **** **         No public methods
  39:../Generated_Code/QuadInt.c **** **
  40:../Generated_Code/QuadInt.c **** **     Copyright : 1997 - 2015 Freescale Semiconductor, Inc. 
  41:../Generated_Code/QuadInt.c **** **     All Rights Reserved.
  42:../Generated_Code/QuadInt.c **** **     
  43:../Generated_Code/QuadInt.c **** **     Redistribution and use in source and binary forms, with or without modification,
  44:../Generated_Code/QuadInt.c **** **     are permitted provided that the following conditions are met:
  45:../Generated_Code/QuadInt.c **** **     
  46:../Generated_Code/QuadInt.c **** **     o Redistributions of source code must retain the above copyright notice, this list
  47:../Generated_Code/QuadInt.c **** **       of conditions and the following disclaimer.
  48:../Generated_Code/QuadInt.c **** **     
  49:../Generated_Code/QuadInt.c **** **     o Redistributions in binary form must reproduce the above copyright notice, this
  50:../Generated_Code/QuadInt.c **** **       list of conditions and the following disclaimer in the documentation and/or
  51:../Generated_Code/QuadInt.c **** **       other materials provided with the distribution.
  52:../Generated_Code/QuadInt.c **** **     
  53:../Generated_Code/QuadInt.c **** **     o Neither the name of Freescale Semiconductor, Inc. nor the names of its
  54:../Generated_Code/QuadInt.c **** **       contributors may be used to endorse or promote products derived from this
  55:../Generated_Code/QuadInt.c **** **       software without specific prior written permission.
  56:../Generated_Code/QuadInt.c **** **     
  57:../Generated_Code/QuadInt.c **** **     THIS SOFTWARE IS PROVIDED BY THE COPYRIGHT HOLDERS AND CONTRIBUTORS "AS IS" AND
  58:../Generated_Code/QuadInt.c **** **     ANY EXPRESS OR IMPLIED WARRANTIES, INCLUDING, BUT NOT LIMITED TO, THE IMPLIED
  59:../Generated_Code/QuadInt.c **** **     WARRANTIES OF MERCHANTABILITY AND FITNESS FOR A PARTICULAR PURPOSE ARE
  60:../Generated_Code/QuadInt.c **** **     DISCLAIMED. IN NO EVENT SHALL THE COPYRIGHT HOLDER OR CONTRIBUTORS BE LIABLE FOR
  61:../Generated_Code/QuadInt.c **** **     ANY DIRECT, INDIRECT, INCIDENTAL, SPECIAL, EXEMPLARY, OR CONSEQUENTIAL DAMAGES
  62:../Generated_Code/QuadInt.c **** **     (INCLUDING, BUT NOT LIMITED TO, PROCUREMENT OF SUBSTITUTE GOODS OR SERVICES;
  63:../Generated_Code/QuadInt.c **** **     LOSS OF USE, DATA, OR PROFITS; OR BUSINESS INTERRUPTION) HOWEVER CAUSED AND ON
  64:../Generated_Code/QuadInt.c **** **     ANY THEORY OF LIABILITY, WHETHER IN CONTRACT, STRICT LIABILITY, OR TORT
  65:../Generated_Code/QuadInt.c **** **     (INCLUDING NEGLIGENCE OR OTHERWISE) ARISING IN ANY WAY OUT OF THE USE OF THIS
  66:../Generated_Code/QuadInt.c **** **     SOFTWARE, EVEN IF ADVISED OF THE POSSIBILITY OF SUCH DAMAGE.
  67:../Generated_Code/QuadInt.c **** **     
  68:../Generated_Code/QuadInt.c **** **     http: www.freescale.com
  69:../Generated_Code/QuadInt.c **** **     mail: support@freescale.com
  70:../Generated_Code/QuadInt.c **** ** ###################################################################*/
  71:../Generated_Code/QuadInt.c **** /*!
  72:../Generated_Code/QuadInt.c **** ** @file QuadInt.c
  73:../Generated_Code/QuadInt.c **** ** @version 01.02
  74:../Generated_Code/QuadInt.c **** ** @brief
  75:../Generated_Code/QuadInt.c **** **         This component "TimerInt" implements a periodic interrupt.
  76:../Generated_Code/QuadInt.c **** **         When the component and its events are enabled, the "OnInterrupt"
  77:../Generated_Code/QuadInt.c **** **         event is called periodically with the period that you specify.
  78:../Generated_Code/QuadInt.c **** **         TimerInt supports also changing the period in runtime.
  79:../Generated_Code/QuadInt.c **** **         The source of periodic interrupt can be timer compare or reload
  80:../Generated_Code/QuadInt.c **** **         register or timer-overflow interrupt (of free running counter).
  81:../Generated_Code/QuadInt.c **** */         
  82:../Generated_Code/QuadInt.c **** /*!
  83:../Generated_Code/QuadInt.c **** **  @addtogroup QuadInt_module QuadInt module documentation
  84:../Generated_Code/QuadInt.c **** **  @{
  85:../Generated_Code/QuadInt.c **** */         
  86:../Generated_Code/QuadInt.c **** 
  87:../Generated_Code/QuadInt.c **** /* MODULE QuadInt. */
  88:../Generated_Code/QuadInt.c **** 
  89:../Generated_Code/QuadInt.c **** #include "Events.h"
  90:../Generated_Code/QuadInt.c **** #include "QuadInt.h"
  91:../Generated_Code/QuadInt.c **** 
  92:../Generated_Code/QuadInt.c **** #ifdef __cplusplus
  93:../Generated_Code/QuadInt.c **** extern "C" {
  94:../Generated_Code/QuadInt.c **** #endif 
  95:../Generated_Code/QuadInt.c **** 
  96:../Generated_Code/QuadInt.c **** /*
  97:../Generated_Code/QuadInt.c **** ** ===================================================================
  98:../Generated_Code/QuadInt.c **** **     Method      :  QuadInt_OnInterrupt (component TimerInt)
  99:../Generated_Code/QuadInt.c **** **
 100:../Generated_Code/QuadInt.c **** **     Description :
 101:../Generated_Code/QuadInt.c **** **         This method is internal. It is used by Processor Expert only.
 102:../Generated_Code/QuadInt.c **** ** ===================================================================
 103:../Generated_Code/QuadInt.c **** */
 104:../Generated_Code/QuadInt.c **** void TimerIntLdd2_OnInterrupt(LDD_TUserData *UserDataPtr)
 105:../Generated_Code/QuadInt.c **** {
  46              		.loc 1 105 0
  47              		.cfi_startproc
  48              		@ args = 0, pretend = 0, frame = 8
  49              		@ frame_needed = 1, uses_anonymous_args = 0
  50 0000 80B5     		push	{r7, lr}
  51              		.cfi_def_cfa_offset 8
  52              		.cfi_offset 7, -8
  53              		.cfi_offset 14, -4
  54 0002 82B0     		sub	sp, sp, #8
  55              		.cfi_def_cfa_offset 16
  56 0004 00AF     		add	r7, sp, #0
  57              		.cfi_def_cfa_register 7
  58 0006 7860     		str	r0, [r7, #4]
 106:../Generated_Code/QuadInt.c ****   (void)UserDataPtr;                   /* Parameter is not used, suppress unused argument warning *
 107:../Generated_Code/QuadInt.c ****   QuadInt_OnInterrupt();               /* Invoke OnInterrupt event */
  59              		.loc 1 107 0
  60 0008 FFF7FEFF 		bl	QuadInt_OnInterrupt
 108:../Generated_Code/QuadInt.c **** }
  61              		.loc 1 108 0
  62 000c 0837     		adds	r7, r7, #8
  63 000e BD46     		mov	sp, r7
  64              		@ sp needed
  65 0010 80BD     		pop	{r7, pc}
  66              		.cfi_endproc
  67              	.LFE0:
  69 0012 00BF     		.text
  70              	.Letext0:
  71              		.file 2 "c:\\freescale\\kds_v3\\toolchain\\arm-none-eabi\\include\\machine\\_default_types.h"
  72              		.file 3 "c:\\freescale\\kds_v3\\toolchain\\arm-none-eabi\\include\\stdint.h"
  73              		.file 4 "C:/INTRO_HS18/IntroAronAlex/TEAM_Robot/Generated_Code/TmDt1.h"
  74              		.file 5 "C:/INTRO_HS18/IntroAronAlex/TEAM_Robot/Generated_Code/PE_Types.h"