   1              		.syntax unified
   2              		.cpu cortex-m4
   3              		.eabi_attribute 27, 3
   4              		.eabi_attribute 28, 1
   5              		.fpu fpv4-sp-d16
   6              		.eabi_attribute 20, 1
   7              		.eabi_attribute 21, 1
   8              		.eabi_attribute 23, 3
   9              		.eabi_attribute 24, 1
  10              		.eabi_attribute 25, 1
  11              		.eabi_attribute 26, 1
  12              		.eabi_attribute 30, 6
  13              		.eabi_attribute 34, 1
  14              		.eabi_attribute 18, 4
  15              		.thumb
  16              		.file	"Rx1.c"
  17              		.text
  18              	.Ltext0:
  19              		.cfi_sections	.debug_frame
  20              		.section	.bss.Rx1_buffer,"aw",%nobits
  21              		.align	2
  24              	Rx1_buffer:
  25 0000 00000000 		.space	128
  25      00000000 
  25      00000000 
  25      00000000 
  25      00000000 
  26              		.section	.bss.Rx1_inIdx,"aw",%nobits
  29              	Rx1_inIdx:
  30 0000 00       		.space	1
  31              		.section	.bss.Rx1_outIdx,"aw",%nobits
  34              	Rx1_outIdx:
  35 0000 00       		.space	1
  36              		.section	.bss.Rx1_inSize,"aw",%nobits
  39              	Rx1_inSize:
  40 0000 00       		.space	1
  41              		.section	.text.Rx1_Put,"ax",%progbits
  42              		.align	2
  43              		.global	Rx1_Put
  44              		.thumb
  45              		.thumb_func
  47              	Rx1_Put:
  48              	.LFB0:
  49              		.file 1 "../Generated_Code/Rx1.c"
   1:../Generated_Code/Rx1.c **** /* ###################################################################
   2:../Generated_Code/Rx1.c **** **     This component module is generated by Processor Expert. Do not modify it.
   3:../Generated_Code/Rx1.c **** **     Filename    : Rx1.c
   4:../Generated_Code/Rx1.c **** **     Project     : TEAM_Robot
   5:../Generated_Code/Rx1.c **** **     Processor   : MK22FX512VLK12
   6:../Generated_Code/Rx1.c **** **     Component   : RingBuffer
   7:../Generated_Code/Rx1.c **** **     Version     : Component 01.053, Driver 01.00, CPU db: 3.00.000
   8:../Generated_Code/Rx1.c **** **     Repository  : My Components
   9:../Generated_Code/Rx1.c **** **     Compiler    : GNU C Compiler
  10:../Generated_Code/Rx1.c **** **     Date/Time   : 2018-09-28, 15:03, # CodeGen: 0
  11:../Generated_Code/Rx1.c **** **     Abstract    :
  12:../Generated_Code/Rx1.c **** **         This component implements a ring buffer for different integer data type.
  13:../Generated_Code/Rx1.c **** **     Settings    :
  14:../Generated_Code/Rx1.c **** **          Component name                                 : Rx1
  15:../Generated_Code/Rx1.c **** **          SDK                                            : MCUC1
  16:../Generated_Code/Rx1.c **** **          Reentrant                                      : yes
  17:../Generated_Code/Rx1.c **** **          Critical Section                               : CS1
  18:../Generated_Code/Rx1.c **** **          Buffer Elements                                : 128
  19:../Generated_Code/Rx1.c **** **          Element Size                                   : 1 Byte
  20:../Generated_Code/Rx1.c **** **     Contents    :
  21:../Generated_Code/Rx1.c **** **         Clear           - void Rx1_Clear(void);
  22:../Generated_Code/Rx1.c **** **         Put             - uint8_t Rx1_Put(Rx1_ElementType elem);
  23:../Generated_Code/Rx1.c **** **         Get             - uint8_t Rx1_Get(Rx1_ElementType *elemP);
  24:../Generated_Code/Rx1.c **** **         Peek            - uint8_t Rx1_Peek(Rx1_BufSizeType index, Rx1_ElementType *elemP);
  25:../Generated_Code/Rx1.c **** **         Update          - uint8_t Rx1_Update(Rx1_BufSizeType index, Rx1_ElementType *elemP);
  26:../Generated_Code/Rx1.c **** **         Putn            - uint8_t Rx1_Putn(Rx1_ElementType *elem, Rx1_BufSizeType nof);
  27:../Generated_Code/Rx1.c **** **         Getn            - uint8_t Rx1_Getn(Rx1_ElementType *buf, Rx1_BufSizeType nof);
  28:../Generated_Code/Rx1.c **** **         Compare         - uint8_t Rx1_Compare(Rx1_BufSizeType index, Rx1_ElementType *elemP,...
  29:../Generated_Code/Rx1.c **** **         Delete          - uint8_t Rx1_Delete(void);
  30:../Generated_Code/Rx1.c **** **         NofElements     - Rx1_BufSizeType Rx1_NofElements(void);
  31:../Generated_Code/Rx1.c **** **         NofFreeElements - Rx1_BufSizeType Rx1_NofFreeElements(void);
  32:../Generated_Code/Rx1.c **** **         Deinit          - void Rx1_Deinit(void);
  33:../Generated_Code/Rx1.c **** **         Init            - void Rx1_Init(void);
  34:../Generated_Code/Rx1.c **** **
  35:../Generated_Code/Rx1.c **** **     * Copyright (c) 2014-2018, Erich Styger
  36:../Generated_Code/Rx1.c **** **      * Web:         https://mcuoneclipse.com
  37:../Generated_Code/Rx1.c **** **      * SourceForge: https://sourceforge.net/projects/mcuoneclipse
  38:../Generated_Code/Rx1.c **** **      * Git:         https://github.com/ErichStyger/McuOnEclipse_PEx
  39:../Generated_Code/Rx1.c **** **      * All rights reserved.
  40:../Generated_Code/Rx1.c **** **      *
  41:../Generated_Code/Rx1.c **** **      * Redistribution and use in source and binary forms, with or without modification,
  42:../Generated_Code/Rx1.c **** **      * are permitted provided that the following conditions are met:
  43:../Generated_Code/Rx1.c **** **      *
  44:../Generated_Code/Rx1.c **** **      * - Redistributions of source code must retain the above copyright notice, this list
  45:../Generated_Code/Rx1.c **** **      *   of conditions and the following disclaimer.
  46:../Generated_Code/Rx1.c **** **      *
  47:../Generated_Code/Rx1.c **** **      * - Redistributions in binary form must reproduce the above copyright notice, this
  48:../Generated_Code/Rx1.c **** **      *   list of conditions and the following disclaimer in the documentation and/or
  49:../Generated_Code/Rx1.c **** **      *   other materials provided with the distribution.
  50:../Generated_Code/Rx1.c **** **      *
  51:../Generated_Code/Rx1.c **** **      * THIS SOFTWARE IS PROVIDED BY THE COPYRIGHT HOLDERS AND CONTRIBUTORS "AS IS" AND
  52:../Generated_Code/Rx1.c **** **      * ANY EXPRESS OR IMPLIED WARRANTIES, INCLUDING, BUT NOT LIMITED TO, THE IMPLIED
  53:../Generated_Code/Rx1.c **** **      * WARRANTIES OF MERCHANTABILITY AND FITNESS FOR A PARTICULAR PURPOSE ARE
  54:../Generated_Code/Rx1.c **** **      * DISCLAIMED. IN NO EVENT SHALL THE COPYRIGHT HOLDER OR CONTRIBUTORS BE LIABLE FOR
  55:../Generated_Code/Rx1.c **** **      * ANY DIRECT, INDIRECT, INCIDENTAL, SPECIAL, EXEMPLARY, OR CONSEQUENTIAL DAMAGES
  56:../Generated_Code/Rx1.c **** **      * (INCLUDING, BUT NOT LIMITED TO, PROCUREMENT OF SUBSTITUTE GOODS OR SERVICES;
  57:../Generated_Code/Rx1.c **** **      * LOSS OF USE, DATA, OR PROFITS; OR BUSINESS INTERRUPTION) HOWEVER CAUSED AND ON
  58:../Generated_Code/Rx1.c **** **      * ANY THEORY OF LIABILITY, WHETHER IN CONTRACT, STRICT LIABILITY, OR TORT
  59:../Generated_Code/Rx1.c **** **      * (INCLUDING NEGLIGENCE OR OTHERWISE) ARISING IN ANY WAY OUT OF THE USE OF THIS
  60:../Generated_Code/Rx1.c **** **      * SOFTWARE, EVEN IF ADVISED OF THE POSSIBILITY OF SUCH DAMAGE.
  61:../Generated_Code/Rx1.c **** ** ###################################################################*/
  62:../Generated_Code/Rx1.c **** /*!
  63:../Generated_Code/Rx1.c **** ** @file Rx1.c
  64:../Generated_Code/Rx1.c **** ** @version 01.00
  65:../Generated_Code/Rx1.c **** ** @brief
  66:../Generated_Code/Rx1.c **** **         This component implements a ring buffer for different integer data type.
  67:../Generated_Code/Rx1.c **** */         
  68:../Generated_Code/Rx1.c **** /*!
  69:../Generated_Code/Rx1.c **** **  @addtogroup Rx1_module Rx1 module documentation
  70:../Generated_Code/Rx1.c **** **  @{
  71:../Generated_Code/Rx1.c **** */         
  72:../Generated_Code/Rx1.c **** 
  73:../Generated_Code/Rx1.c **** /* MODULE Rx1. */
  74:../Generated_Code/Rx1.c **** 
  75:../Generated_Code/Rx1.c **** #include "Rx1.h"
  76:../Generated_Code/Rx1.c **** 
  77:../Generated_Code/Rx1.c **** #if Rx1_CONFIG_REENTRANT
  78:../Generated_Code/Rx1.c ****   #define Rx1_DEFINE_CRITICAL() CS1_CriticalVariable()
  79:../Generated_Code/Rx1.c ****   #define Rx1_ENTER_CRITICAL()  CS1_EnterCritical()
  80:../Generated_Code/Rx1.c ****   #define Rx1_EXIT_CRITICAL()   CS1_ExitCritical()
  81:../Generated_Code/Rx1.c **** #else
  82:../Generated_Code/Rx1.c ****   #define Rx1_DEFINE_CRITICAL() /* nothing */
  83:../Generated_Code/Rx1.c ****   #define Rx1_ENTER_CRITICAL()  /* nothing */
  84:../Generated_Code/Rx1.c ****   #define Rx1_EXIT_CRITICAL()   /* nothing */
  85:../Generated_Code/Rx1.c **** #endif
  86:../Generated_Code/Rx1.c **** static Rx1_ElementType Rx1_buffer[Rx1_CONFIG_BUF_SIZE]; /* ring buffer */
  87:../Generated_Code/Rx1.c **** static Rx1_BufSizeType Rx1_inIdx;  /* input index */
  88:../Generated_Code/Rx1.c **** static Rx1_BufSizeType Rx1_outIdx; /* output index */
  89:../Generated_Code/Rx1.c **** static Rx1_BufSizeType Rx1_inSize; /* size data in buffer */
  90:../Generated_Code/Rx1.c **** /*
  91:../Generated_Code/Rx1.c **** ** ===================================================================
  92:../Generated_Code/Rx1.c **** **     Method      :  Rx1_Put (component RingBuffer)
  93:../Generated_Code/Rx1.c **** **     Description :
  94:../Generated_Code/Rx1.c **** **         Puts a new element into the buffer
  95:../Generated_Code/Rx1.c **** **     Parameters  :
  96:../Generated_Code/Rx1.c **** **         NAME            - DESCRIPTION
  97:../Generated_Code/Rx1.c **** **         elem            - New element to be put into the buffer
  98:../Generated_Code/Rx1.c **** **     Returns     :
  99:../Generated_Code/Rx1.c **** **         ---             - Error code
 100:../Generated_Code/Rx1.c **** ** ===================================================================
 101:../Generated_Code/Rx1.c **** */
 102:../Generated_Code/Rx1.c **** uint8_t Rx1_Put(Rx1_ElementType elem)
 103:../Generated_Code/Rx1.c **** {
  50              		.loc 1 103 0
  51              		.cfi_startproc
  52              		@ args = 0, pretend = 0, frame = 16
  53              		@ frame_needed = 1, uses_anonymous_args = 0
  54              		@ link register save eliminated.
  55 0000 80B4     		push	{r7}
  56              		.cfi_def_cfa_offset 4
  57              		.cfi_offset 7, -4
  58 0002 85B0     		sub	sp, sp, #20
  59              		.cfi_def_cfa_offset 24
  60 0004 00AF     		add	r7, sp, #0
  61              		.cfi_def_cfa_register 7
  62 0006 0346     		mov	r3, r0
  63 0008 FB71     		strb	r3, [r7, #7]
 104:../Generated_Code/Rx1.c ****   uint8_t res = ERR_OK;
  64              		.loc 1 104 0
  65 000a 0023     		movs	r3, #0
  66 000c FB73     		strb	r3, [r7, #15]
 105:../Generated_Code/Rx1.c ****   Rx1_DEFINE_CRITICAL();
 106:../Generated_Code/Rx1.c **** 
 107:../Generated_Code/Rx1.c ****   Rx1_ENTER_CRITICAL();
  67              		.loc 1 107 0
  68              	@ 107 "../Generated_Code/Rx1.c" 1
  69 000e EFF31080 		mrs   r0, PRIMASK     
  70 0012 72B6     		cpsid i               
  71 0014 B873     		strb r0, [r7, #14]   
  72              		
  73              	@ 0 "" 2
 108:../Generated_Code/Rx1.c ****   if (Rx1_inSize==Rx1_CONFIG_BUF_SIZE) {
  74              		.loc 1 108 0
  75              		.thumb
  76 0016 144B     		ldr	r3, .L6
  77 0018 1B78     		ldrb	r3, [r3]	@ zero_extendqisi2
  78 001a 802B     		cmp	r3, #128
  79 001c 02D1     		bne	.L2
 109:../Generated_Code/Rx1.c ****     res = ERR_TXFULL;
  80              		.loc 1 109 0
  81 001e 0B23     		movs	r3, #11
  82 0020 FB73     		strb	r3, [r7, #15]
  83 0022 17E0     		b	.L3
  84              	.L2:
 110:../Generated_Code/Rx1.c ****   } else {
 111:../Generated_Code/Rx1.c ****     Rx1_buffer[Rx1_inIdx] = elem;
  85              		.loc 1 111 0
  86 0024 114B     		ldr	r3, .L6+4
  87 0026 1B78     		ldrb	r3, [r3]	@ zero_extendqisi2
  88 0028 114A     		ldr	r2, .L6+8
  89 002a F979     		ldrb	r1, [r7, #7]
  90 002c D154     		strb	r1, [r2, r3]
 112:../Generated_Code/Rx1.c ****     Rx1_inIdx++;
  91              		.loc 1 112 0
  92 002e 0F4B     		ldr	r3, .L6+4
  93 0030 1B78     		ldrb	r3, [r3]	@ zero_extendqisi2
  94 0032 0133     		adds	r3, r3, #1
  95 0034 DAB2     		uxtb	r2, r3
  96 0036 0D4B     		ldr	r3, .L6+4
  97 0038 1A70     		strb	r2, [r3]
 113:../Generated_Code/Rx1.c ****     if (Rx1_inIdx==Rx1_CONFIG_BUF_SIZE) {
  98              		.loc 1 113 0
  99 003a 0C4B     		ldr	r3, .L6+4
 100 003c 1B78     		ldrb	r3, [r3]	@ zero_extendqisi2
 101 003e 802B     		cmp	r3, #128
 102 0040 02D1     		bne	.L4
 114:../Generated_Code/Rx1.c ****       Rx1_inIdx = 0;
 103              		.loc 1 114 0
 104 0042 0A4B     		ldr	r3, .L6+4
 105 0044 0022     		movs	r2, #0
 106 0046 1A70     		strb	r2, [r3]
 107              	.L4:
 115:../Generated_Code/Rx1.c ****     }
 116:../Generated_Code/Rx1.c ****     Rx1_inSize++;
 108              		.loc 1 116 0
 109 0048 074B     		ldr	r3, .L6
 110 004a 1B78     		ldrb	r3, [r3]	@ zero_extendqisi2
 111 004c 0133     		adds	r3, r3, #1
 112 004e DAB2     		uxtb	r2, r3
 113 0050 054B     		ldr	r3, .L6
 114 0052 1A70     		strb	r2, [r3]
 115              	.L3:
 117:../Generated_Code/Rx1.c ****   }
 118:../Generated_Code/Rx1.c ****   Rx1_EXIT_CRITICAL();
 116              		.loc 1 118 0
 117              	@ 118 "../Generated_Code/Rx1.c" 1
 118 0054 B87B     		ldrb r0, [r7, #14]    
 119 0056 80F31088 		msr PRIMASK,r0        
 120              		
 121              	@ 0 "" 2
 119:../Generated_Code/Rx1.c ****   return res;
 122              		.loc 1 119 0
 123              		.thumb
 124 005a FB7B     		ldrb	r3, [r7, #15]	@ zero_extendqisi2
 120:../Generated_Code/Rx1.c **** }
 125              		.loc 1 120 0
 126 005c 1846     		mov	r0, r3
 127 005e 1437     		adds	r7, r7, #20
 128 0060 BD46     		mov	sp, r7
 129              		@ sp needed
 130 0062 5DF8047B 		ldr	r7, [sp], #4
 131 0066 7047     		bx	lr
 132              	.L7:
 133              		.align	2
 134              	.L6:
 135 0068 00000000 		.word	Rx1_inSize
 136 006c 00000000 		.word	Rx1_inIdx
 137 0070 00000000 		.word	Rx1_buffer
 138              		.cfi_endproc
 139              	.LFE0:
 141              		.section	.text.Rx1_Putn,"ax",%progbits
 142              		.align	2
 143              		.global	Rx1_Putn
 144              		.thumb
 145              		.thumb_func
 147              	Rx1_Putn:
 148              	.LFB1:
 121:../Generated_Code/Rx1.c **** 
 122:../Generated_Code/Rx1.c **** /*
 123:../Generated_Code/Rx1.c **** ** ===================================================================
 124:../Generated_Code/Rx1.c **** **     Method      :  Rx1_Putn (component RingBuffer)
 125:../Generated_Code/Rx1.c **** **     Description :
 126:../Generated_Code/Rx1.c **** **         Put a number new element into the buffer.
 127:../Generated_Code/Rx1.c **** **     Parameters  :
 128:../Generated_Code/Rx1.c **** **         NAME            - DESCRIPTION
 129:../Generated_Code/Rx1.c **** **       * elem            - Pointer to new elements to be put into
 130:../Generated_Code/Rx1.c **** **                           the buffer
 131:../Generated_Code/Rx1.c **** **         nof             - number of elements
 132:../Generated_Code/Rx1.c **** **     Returns     :
 133:../Generated_Code/Rx1.c **** **         ---             - Error code
 134:../Generated_Code/Rx1.c **** ** ===================================================================
 135:../Generated_Code/Rx1.c **** */
 136:../Generated_Code/Rx1.c **** uint8_t Rx1_Putn(Rx1_ElementType *elem, Rx1_BufSizeType nof)
 137:../Generated_Code/Rx1.c **** {
 149              		.loc 1 137 0
 150              		.cfi_startproc
 151              		@ args = 0, pretend = 0, frame = 16
 152              		@ frame_needed = 1, uses_anonymous_args = 0
 153 0000 80B5     		push	{r7, lr}
 154              		.cfi_def_cfa_offset 8
 155              		.cfi_offset 7, -8
 156              		.cfi_offset 14, -4
 157 0002 84B0     		sub	sp, sp, #16
 158              		.cfi_def_cfa_offset 24
 159 0004 00AF     		add	r7, sp, #0
 160              		.cfi_def_cfa_register 7
 161 0006 7860     		str	r0, [r7, #4]
 162 0008 0B46     		mov	r3, r1
 163 000a FB70     		strb	r3, [r7, #3]
 138:../Generated_Code/Rx1.c ****   uint8_t res = ERR_OK;
 164              		.loc 1 138 0
 165 000c 0023     		movs	r3, #0
 166 000e FB73     		strb	r3, [r7, #15]
 139:../Generated_Code/Rx1.c **** 
 140:../Generated_Code/Rx1.c ****   while(nof>0) {
 167              		.loc 1 140 0
 168 0010 10E0     		b	.L9
 169              	.L12:
 141:../Generated_Code/Rx1.c ****     res = Rx1_Put(*elem);
 170              		.loc 1 141 0
 171 0012 7B68     		ldr	r3, [r7, #4]
 172 0014 1B78     		ldrb	r3, [r3]	@ zero_extendqisi2
 173 0016 1846     		mov	r0, r3
 174 0018 FFF7FEFF 		bl	Rx1_Put
 175 001c 0346     		mov	r3, r0
 176 001e FB73     		strb	r3, [r7, #15]
 142:../Generated_Code/Rx1.c ****     if (res!=ERR_OK) {
 177              		.loc 1 142 0
 178 0020 FB7B     		ldrb	r3, [r7, #15]	@ zero_extendqisi2
 179 0022 002B     		cmp	r3, #0
 180 0024 00D0     		beq	.L10
 143:../Generated_Code/Rx1.c ****       break;
 181              		.loc 1 143 0
 182 0026 08E0     		b	.L11
 183              	.L10:
 144:../Generated_Code/Rx1.c ****     }
 145:../Generated_Code/Rx1.c ****     elem++; nof--;
 184              		.loc 1 145 0
 185 0028 7B68     		ldr	r3, [r7, #4]
 186 002a 0133     		adds	r3, r3, #1
 187 002c 7B60     		str	r3, [r7, #4]
 188 002e FB78     		ldrb	r3, [r7, #3]	@ zero_extendqisi2
 189 0030 013B     		subs	r3, r3, #1
 190 0032 FB70     		strb	r3, [r7, #3]
 191              	.L9:
 140:../Generated_Code/Rx1.c ****   while(nof>0) {
 192              		.loc 1 140 0 discriminator 1
 193 0034 FB78     		ldrb	r3, [r7, #3]	@ zero_extendqisi2
 194 0036 002B     		cmp	r3, #0
 195 0038 EBD1     		bne	.L12
 196              	.L11:
 146:../Generated_Code/Rx1.c ****   }
 147:../Generated_Code/Rx1.c ****   return res;
 197              		.loc 1 147 0
 198 003a FB7B     		ldrb	r3, [r7, #15]	@ zero_extendqisi2
 148:../Generated_Code/Rx1.c **** }
 199              		.loc 1 148 0
 200 003c 1846     		mov	r0, r3
 201 003e 1037     		adds	r7, r7, #16
 202 0040 BD46     		mov	sp, r7
 203              		@ sp needed
 204 0042 80BD     		pop	{r7, pc}
 205              		.cfi_endproc
 206              	.LFE1:
 208              		.section	.text.Rx1_Get,"ax",%progbits
 209              		.align	2
 210              		.global	Rx1_Get
 211              		.thumb
 212              		.thumb_func
 214              	Rx1_Get:
 215              	.LFB2:
 149:../Generated_Code/Rx1.c **** 
 150:../Generated_Code/Rx1.c **** /*
 151:../Generated_Code/Rx1.c **** ** ===================================================================
 152:../Generated_Code/Rx1.c **** **     Method      :  Rx1_Get (component RingBuffer)
 153:../Generated_Code/Rx1.c **** **     Description :
 154:../Generated_Code/Rx1.c **** **         Removes an element from the buffer
 155:../Generated_Code/Rx1.c **** **     Parameters  :
 156:../Generated_Code/Rx1.c **** **         NAME            - DESCRIPTION
 157:../Generated_Code/Rx1.c **** **       * elemP           - Pointer to where to store the received
 158:../Generated_Code/Rx1.c **** **                           element
 159:../Generated_Code/Rx1.c **** **     Returns     :
 160:../Generated_Code/Rx1.c **** **         ---             - Error code
 161:../Generated_Code/Rx1.c **** ** ===================================================================
 162:../Generated_Code/Rx1.c **** */
 163:../Generated_Code/Rx1.c **** uint8_t Rx1_Get(Rx1_ElementType *elemP)
 164:../Generated_Code/Rx1.c **** {
 216              		.loc 1 164 0
 217              		.cfi_startproc
 218              		@ args = 0, pretend = 0, frame = 16
 219              		@ frame_needed = 1, uses_anonymous_args = 0
 220              		@ link register save eliminated.
 221 0000 80B4     		push	{r7}
 222              		.cfi_def_cfa_offset 4
 223              		.cfi_offset 7, -4
 224 0002 85B0     		sub	sp, sp, #20
 225              		.cfi_def_cfa_offset 24
 226 0004 00AF     		add	r7, sp, #0
 227              		.cfi_def_cfa_register 7
 228 0006 7860     		str	r0, [r7, #4]
 165:../Generated_Code/Rx1.c ****   uint8_t res = ERR_OK;
 229              		.loc 1 165 0
 230 0008 0023     		movs	r3, #0
 231 000a FB73     		strb	r3, [r7, #15]
 166:../Generated_Code/Rx1.c ****   Rx1_DEFINE_CRITICAL();
 167:../Generated_Code/Rx1.c **** 
 168:../Generated_Code/Rx1.c ****   Rx1_ENTER_CRITICAL();
 232              		.loc 1 168 0
 233              	@ 168 "../Generated_Code/Rx1.c" 1
 234 000c EFF31080 		mrs   r0, PRIMASK     
 235 0010 72B6     		cpsid i               
 236 0012 B873     		strb r0, [r7, #14]   
 237              		
 238              	@ 0 "" 2
 169:../Generated_Code/Rx1.c ****   if (Rx1_inSize==0) {
 239              		.loc 1 169 0
 240              		.thumb
 241 0014 144B     		ldr	r3, .L18
 242 0016 1B78     		ldrb	r3, [r3]	@ zero_extendqisi2
 243 0018 002B     		cmp	r3, #0
 244 001a 02D1     		bne	.L15
 170:../Generated_Code/Rx1.c ****     res = ERR_RXEMPTY;
 245              		.loc 1 170 0
 246 001c 0A23     		movs	r3, #10
 247 001e FB73     		strb	r3, [r7, #15]
 248 0020 18E0     		b	.L16
 249              	.L15:
 171:../Generated_Code/Rx1.c ****   } else {
 172:../Generated_Code/Rx1.c ****     *elemP = Rx1_buffer[Rx1_outIdx];
 250              		.loc 1 172 0
 251 0022 124B     		ldr	r3, .L18+4
 252 0024 1B78     		ldrb	r3, [r3]	@ zero_extendqisi2
 253 0026 124A     		ldr	r2, .L18+8
 254 0028 D25C     		ldrb	r2, [r2, r3]	@ zero_extendqisi2
 255 002a 7B68     		ldr	r3, [r7, #4]
 256 002c 1A70     		strb	r2, [r3]
 173:../Generated_Code/Rx1.c ****     Rx1_inSize--;
 257              		.loc 1 173 0
 258 002e 0E4B     		ldr	r3, .L18
 259 0030 1B78     		ldrb	r3, [r3]	@ zero_extendqisi2
 260 0032 013B     		subs	r3, r3, #1
 261 0034 DAB2     		uxtb	r2, r3
 262 0036 0C4B     		ldr	r3, .L18
 263 0038 1A70     		strb	r2, [r3]
 174:../Generated_Code/Rx1.c ****     Rx1_outIdx++;
 264              		.loc 1 174 0
 265 003a 0C4B     		ldr	r3, .L18+4
 266 003c 1B78     		ldrb	r3, [r3]	@ zero_extendqisi2
 267 003e 0133     		adds	r3, r3, #1
 268 0040 DAB2     		uxtb	r2, r3
 269 0042 0A4B     		ldr	r3, .L18+4
 270 0044 1A70     		strb	r2, [r3]
 175:../Generated_Code/Rx1.c ****     if (Rx1_outIdx==Rx1_CONFIG_BUF_SIZE) {
 271              		.loc 1 175 0
 272 0046 094B     		ldr	r3, .L18+4
 273 0048 1B78     		ldrb	r3, [r3]	@ zero_extendqisi2
 274 004a 802B     		cmp	r3, #128
 275 004c 02D1     		bne	.L16
 176:../Generated_Code/Rx1.c ****       Rx1_outIdx = 0;
 276              		.loc 1 176 0
 277 004e 074B     		ldr	r3, .L18+4
 278 0050 0022     		movs	r2, #0
 279 0052 1A70     		strb	r2, [r3]
 280              	.L16:
 177:../Generated_Code/Rx1.c ****     }
 178:../Generated_Code/Rx1.c ****   }
 179:../Generated_Code/Rx1.c ****   Rx1_EXIT_CRITICAL();
 281              		.loc 1 179 0
 282              	@ 179 "../Generated_Code/Rx1.c" 1
 283 0054 B87B     		ldrb r0, [r7, #14]    
 284 0056 80F31088 		msr PRIMASK,r0        
 285              		
 286              	@ 0 "" 2
 180:../Generated_Code/Rx1.c ****   return res;
 287              		.loc 1 180 0
 288              		.thumb
 289 005a FB7B     		ldrb	r3, [r7, #15]	@ zero_extendqisi2
 181:../Generated_Code/Rx1.c **** }
 290              		.loc 1 181 0
 291 005c 1846     		mov	r0, r3
 292 005e 1437     		adds	r7, r7, #20
 293 0060 BD46     		mov	sp, r7
 294              		@ sp needed
 295 0062 5DF8047B 		ldr	r7, [sp], #4
 296 0066 7047     		bx	lr
 297              	.L19:
 298              		.align	2
 299              	.L18:
 300 0068 00000000 		.word	Rx1_inSize
 301 006c 00000000 		.word	Rx1_outIdx
 302 0070 00000000 		.word	Rx1_buffer
 303              		.cfi_endproc
 304              	.LFE2:
 306              		.section	.text.Rx1_Getn,"ax",%progbits
 307              		.align	2
 308              		.global	Rx1_Getn
 309              		.thumb
 310              		.thumb_func
 312              	Rx1_Getn:
 313              	.LFB3:
 182:../Generated_Code/Rx1.c **** 
 183:../Generated_Code/Rx1.c **** /*
 184:../Generated_Code/Rx1.c **** ** ===================================================================
 185:../Generated_Code/Rx1.c **** **     Method      :  Rx1_Getn (component RingBuffer)
 186:../Generated_Code/Rx1.c **** **     Description :
 187:../Generated_Code/Rx1.c **** **         Get a number elements into a buffer.
 188:../Generated_Code/Rx1.c **** **     Parameters  :
 189:../Generated_Code/Rx1.c **** **         NAME            - DESCRIPTION
 190:../Generated_Code/Rx1.c **** **       * buf             - Pointer to buffer where to store the
 191:../Generated_Code/Rx1.c **** **                           elements
 192:../Generated_Code/Rx1.c **** **         nof             - number of elements
 193:../Generated_Code/Rx1.c **** **     Returns     :
 194:../Generated_Code/Rx1.c **** **         ---             - Error code
 195:../Generated_Code/Rx1.c **** ** ===================================================================
 196:../Generated_Code/Rx1.c **** */
 197:../Generated_Code/Rx1.c **** uint8_t Rx1_Getn(Rx1_ElementType *buf, Rx1_BufSizeType nof)
 198:../Generated_Code/Rx1.c **** {
 314              		.loc 1 198 0
 315              		.cfi_startproc
 316              		@ args = 0, pretend = 0, frame = 16
 317              		@ frame_needed = 1, uses_anonymous_args = 0
 318 0000 80B5     		push	{r7, lr}
 319              		.cfi_def_cfa_offset 8
 320              		.cfi_offset 7, -8
 321              		.cfi_offset 14, -4
 322 0002 84B0     		sub	sp, sp, #16
 323              		.cfi_def_cfa_offset 24
 324 0004 00AF     		add	r7, sp, #0
 325              		.cfi_def_cfa_register 7
 326 0006 7860     		str	r0, [r7, #4]
 327 0008 0B46     		mov	r3, r1
 328 000a FB70     		strb	r3, [r7, #3]
 199:../Generated_Code/Rx1.c ****   uint8_t res = ERR_OK;
 329              		.loc 1 199 0
 330 000c 0023     		movs	r3, #0
 331 000e FB73     		strb	r3, [r7, #15]
 200:../Generated_Code/Rx1.c **** 
 201:../Generated_Code/Rx1.c ****   while(nof>0) {
 332              		.loc 1 201 0
 333 0010 0EE0     		b	.L21
 334              	.L24:
 202:../Generated_Code/Rx1.c ****     res = Rx1_Get(buf);
 335              		.loc 1 202 0
 336 0012 7868     		ldr	r0, [r7, #4]
 337 0014 FFF7FEFF 		bl	Rx1_Get
 338 0018 0346     		mov	r3, r0
 339 001a FB73     		strb	r3, [r7, #15]
 203:../Generated_Code/Rx1.c ****     if (res!=ERR_OK) {
 340              		.loc 1 203 0
 341 001c FB7B     		ldrb	r3, [r7, #15]	@ zero_extendqisi2
 342 001e 002B     		cmp	r3, #0
 343 0020 00D0     		beq	.L22
 204:../Generated_Code/Rx1.c ****       break;
 344              		.loc 1 204 0
 345 0022 08E0     		b	.L23
 346              	.L22:
 205:../Generated_Code/Rx1.c ****     }
 206:../Generated_Code/Rx1.c ****     buf++; nof--;
 347              		.loc 1 206 0
 348 0024 7B68     		ldr	r3, [r7, #4]
 349 0026 0133     		adds	r3, r3, #1
 350 0028 7B60     		str	r3, [r7, #4]
 351 002a FB78     		ldrb	r3, [r7, #3]	@ zero_extendqisi2
 352 002c 013B     		subs	r3, r3, #1
 353 002e FB70     		strb	r3, [r7, #3]
 354              	.L21:
 201:../Generated_Code/Rx1.c ****   while(nof>0) {
 355              		.loc 1 201 0 discriminator 1
 356 0030 FB78     		ldrb	r3, [r7, #3]	@ zero_extendqisi2
 357 0032 002B     		cmp	r3, #0
 358 0034 EDD1     		bne	.L24
 359              	.L23:
 207:../Generated_Code/Rx1.c ****   }
 208:../Generated_Code/Rx1.c ****   return res;
 360              		.loc 1 208 0
 361 0036 FB7B     		ldrb	r3, [r7, #15]	@ zero_extendqisi2
 209:../Generated_Code/Rx1.c **** }
 362              		.loc 1 209 0
 363 0038 1846     		mov	r0, r3
 364 003a 1037     		adds	r7, r7, #16
 365 003c BD46     		mov	sp, r7
 366              		@ sp needed
 367 003e 80BD     		pop	{r7, pc}
 368              		.cfi_endproc
 369              	.LFE3:
 371              		.section	.text.Rx1_NofElements,"ax",%progbits
 372              		.align	2
 373              		.global	Rx1_NofElements
 374              		.thumb
 375              		.thumb_func
 377              	Rx1_NofElements:
 378              	.LFB4:
 210:../Generated_Code/Rx1.c **** 
 211:../Generated_Code/Rx1.c **** /*
 212:../Generated_Code/Rx1.c **** ** ===================================================================
 213:../Generated_Code/Rx1.c **** **     Method      :  Rx1_NofElements (component RingBuffer)
 214:../Generated_Code/Rx1.c **** **     Description :
 215:../Generated_Code/Rx1.c **** **         Returns the actual number of elements in the buffer.
 216:../Generated_Code/Rx1.c **** **     Parameters  : None
 217:../Generated_Code/Rx1.c **** **     Returns     :
 218:../Generated_Code/Rx1.c **** **         ---             - Number of elements in the buffer.
 219:../Generated_Code/Rx1.c **** ** ===================================================================
 220:../Generated_Code/Rx1.c **** */
 221:../Generated_Code/Rx1.c **** Rx1_BufSizeType Rx1_NofElements(void)
 222:../Generated_Code/Rx1.c **** {
 379              		.loc 1 222 0
 380              		.cfi_startproc
 381              		@ args = 0, pretend = 0, frame = 0
 382              		@ frame_needed = 1, uses_anonymous_args = 0
 383              		@ link register save eliminated.
 384 0000 80B4     		push	{r7}
 385              		.cfi_def_cfa_offset 4
 386              		.cfi_offset 7, -4
 387 0002 00AF     		add	r7, sp, #0
 388              		.cfi_def_cfa_register 7
 223:../Generated_Code/Rx1.c ****   return Rx1_inSize;
 389              		.loc 1 223 0
 390 0004 034B     		ldr	r3, .L28
 391 0006 1B78     		ldrb	r3, [r3]	@ zero_extendqisi2
 224:../Generated_Code/Rx1.c **** }
 392              		.loc 1 224 0
 393 0008 1846     		mov	r0, r3
 394 000a BD46     		mov	sp, r7
 395              		@ sp needed
 396 000c 5DF8047B 		ldr	r7, [sp], #4
 397 0010 7047     		bx	lr
 398              	.L29:
 399 0012 00BF     		.align	2
 400              	.L28:
 401 0014 00000000 		.word	Rx1_inSize
 402              		.cfi_endproc
 403              	.LFE4:
 405              		.section	.text.Rx1_NofFreeElements,"ax",%progbits
 406              		.align	2
 407              		.global	Rx1_NofFreeElements
 408              		.thumb
 409              		.thumb_func
 411              	Rx1_NofFreeElements:
 412              	.LFB5:
 225:../Generated_Code/Rx1.c **** 
 226:../Generated_Code/Rx1.c **** /*
 227:../Generated_Code/Rx1.c **** ** ===================================================================
 228:../Generated_Code/Rx1.c **** **     Method      :  Rx1_NofFreeElements (component RingBuffer)
 229:../Generated_Code/Rx1.c **** **     Description :
 230:../Generated_Code/Rx1.c **** **         Returns the actual number of free elements/space in the
 231:../Generated_Code/Rx1.c **** **         buffer.
 232:../Generated_Code/Rx1.c **** **     Parameters  : None
 233:../Generated_Code/Rx1.c **** **     Returns     :
 234:../Generated_Code/Rx1.c **** **         ---             - Number of elements in the buffer.
 235:../Generated_Code/Rx1.c **** ** ===================================================================
 236:../Generated_Code/Rx1.c **** */
 237:../Generated_Code/Rx1.c **** Rx1_BufSizeType Rx1_NofFreeElements(void)
 238:../Generated_Code/Rx1.c **** {
 413              		.loc 1 238 0
 414              		.cfi_startproc
 415              		@ args = 0, pretend = 0, frame = 0
 416              		@ frame_needed = 1, uses_anonymous_args = 0
 417              		@ link register save eliminated.
 418 0000 80B4     		push	{r7}
 419              		.cfi_def_cfa_offset 4
 420              		.cfi_offset 7, -4
 421 0002 00AF     		add	r7, sp, #0
 422              		.cfi_def_cfa_register 7
 239:../Generated_Code/Rx1.c ****   return (Rx1_BufSizeType)(Rx1_CONFIG_BUF_SIZE-Rx1_inSize);
 423              		.loc 1 239 0
 424 0004 054B     		ldr	r3, .L32
 425 0006 1A78     		ldrb	r2, [r3]	@ zero_extendqisi2
 426 0008 6FF07F03 		mvn	r3, #127
 427 000c 9B1A     		subs	r3, r3, r2
 428 000e DBB2     		uxtb	r3, r3
 240:../Generated_Code/Rx1.c **** }
 429              		.loc 1 240 0
 430 0010 1846     		mov	r0, r3
 431 0012 BD46     		mov	sp, r7
 432              		@ sp needed
 433 0014 5DF8047B 		ldr	r7, [sp], #4
 434 0018 7047     		bx	lr
 435              	.L33:
 436 001a 00BF     		.align	2
 437              	.L32:
 438 001c 00000000 		.word	Rx1_inSize
 439              		.cfi_endproc
 440              	.LFE5:
 442              		.section	.text.Rx1_Init,"ax",%progbits
 443              		.align	2
 444              		.global	Rx1_Init
 445              		.thumb
 446              		.thumb_func
 448              	Rx1_Init:
 449              	.LFB6:
 241:../Generated_Code/Rx1.c **** 
 242:../Generated_Code/Rx1.c **** /*
 243:../Generated_Code/Rx1.c **** ** ===================================================================
 244:../Generated_Code/Rx1.c **** **     Method      :  Rx1_Init (component RingBuffer)
 245:../Generated_Code/Rx1.c **** **     Description :
 246:../Generated_Code/Rx1.c **** **         Initializes the data structure
 247:../Generated_Code/Rx1.c **** **     Parameters  : None
 248:../Generated_Code/Rx1.c **** **     Returns     : Nothing
 249:../Generated_Code/Rx1.c **** ** ===================================================================
 250:../Generated_Code/Rx1.c **** */
 251:../Generated_Code/Rx1.c **** void Rx1_Init(void)
 252:../Generated_Code/Rx1.c **** {
 450              		.loc 1 252 0
 451              		.cfi_startproc
 452              		@ args = 0, pretend = 0, frame = 0
 453              		@ frame_needed = 1, uses_anonymous_args = 0
 454              		@ link register save eliminated.
 455 0000 80B4     		push	{r7}
 456              		.cfi_def_cfa_offset 4
 457              		.cfi_offset 7, -4
 458 0002 00AF     		add	r7, sp, #0
 459              		.cfi_def_cfa_register 7
 253:../Generated_Code/Rx1.c ****   Rx1_inIdx = 0;
 460              		.loc 1 253 0
 461 0004 064B     		ldr	r3, .L35
 462 0006 0022     		movs	r2, #0
 463 0008 1A70     		strb	r2, [r3]
 254:../Generated_Code/Rx1.c ****   Rx1_outIdx = 0;
 464              		.loc 1 254 0
 465 000a 064B     		ldr	r3, .L35+4
 466 000c 0022     		movs	r2, #0
 467 000e 1A70     		strb	r2, [r3]
 255:../Generated_Code/Rx1.c ****   Rx1_inSize = 0;
 468              		.loc 1 255 0
 469 0010 054B     		ldr	r3, .L35+8
 470 0012 0022     		movs	r2, #0
 471 0014 1A70     		strb	r2, [r3]
 256:../Generated_Code/Rx1.c **** }
 472              		.loc 1 256 0
 473 0016 BD46     		mov	sp, r7
 474              		@ sp needed
 475 0018 5DF8047B 		ldr	r7, [sp], #4
 476 001c 7047     		bx	lr
 477              	.L36:
 478 001e 00BF     		.align	2
 479              	.L35:
 480 0020 00000000 		.word	Rx1_inIdx
 481 0024 00000000 		.word	Rx1_outIdx
 482 0028 00000000 		.word	Rx1_inSize
 483              		.cfi_endproc
 484              	.LFE6:
 486              		.section	.text.Rx1_Clear,"ax",%progbits
 487              		.align	2
 488              		.global	Rx1_Clear
 489              		.thumb
 490              		.thumb_func
 492              	Rx1_Clear:
 493              	.LFB7:
 257:../Generated_Code/Rx1.c **** 
 258:../Generated_Code/Rx1.c **** /*
 259:../Generated_Code/Rx1.c **** ** ===================================================================
 260:../Generated_Code/Rx1.c **** **     Method      :  Rx1_Clear (component RingBuffer)
 261:../Generated_Code/Rx1.c **** **     Description :
 262:../Generated_Code/Rx1.c **** **         Clear (empty) the ring buffer.
 263:../Generated_Code/Rx1.c **** **     Parameters  : None
 264:../Generated_Code/Rx1.c **** **     Returns     : Nothing
 265:../Generated_Code/Rx1.c **** ** ===================================================================
 266:../Generated_Code/Rx1.c **** */
 267:../Generated_Code/Rx1.c **** void Rx1_Clear(void)
 268:../Generated_Code/Rx1.c **** {
 494              		.loc 1 268 0
 495              		.cfi_startproc
 496              		@ args = 0, pretend = 0, frame = 8
 497              		@ frame_needed = 1, uses_anonymous_args = 0
 498 0000 80B5     		push	{r7, lr}
 499              		.cfi_def_cfa_offset 8
 500              		.cfi_offset 7, -8
 501              		.cfi_offset 14, -4
 502 0002 82B0     		sub	sp, sp, #8
 503              		.cfi_def_cfa_offset 16
 504 0004 00AF     		add	r7, sp, #0
 505              		.cfi_def_cfa_register 7
 269:../Generated_Code/Rx1.c ****   Rx1_DEFINE_CRITICAL();
 270:../Generated_Code/Rx1.c **** 
 271:../Generated_Code/Rx1.c ****   Rx1_ENTER_CRITICAL();
 506              		.loc 1 271 0
 507              	@ 271 "../Generated_Code/Rx1.c" 1
 508 0006 EFF31080 		mrs   r0, PRIMASK     
 509 000a 72B6     		cpsid i               
 510 000c F871     		strb r0, [r7, #7]   
 511              		
 512              	@ 0 "" 2
 272:../Generated_Code/Rx1.c ****   Rx1_Init();
 513              		.loc 1 272 0
 514              		.thumb
 515 000e FFF7FEFF 		bl	Rx1_Init
 273:../Generated_Code/Rx1.c ****   Rx1_EXIT_CRITICAL();
 516              		.loc 1 273 0
 517              	@ 273 "../Generated_Code/Rx1.c" 1
 518 0012 F879     		ldrb r0, [r7, #7]    
 519 0014 80F31088 		msr PRIMASK,r0        
 520              		
 521              	@ 0 "" 2
 274:../Generated_Code/Rx1.c **** }
 522              		.loc 1 274 0
 523              		.thumb
 524 0018 0837     		adds	r7, r7, #8
 525 001a BD46     		mov	sp, r7
 526              		@ sp needed
 527 001c 80BD     		pop	{r7, pc}
 528              		.cfi_endproc
 529              	.LFE7:
 531 001e 00BF     		.section	.text.Rx1_Peek,"ax",%progbits
 532              		.align	2
 533              		.global	Rx1_Peek
 534              		.thumb
 535              		.thumb_func
 537              	Rx1_Peek:
 538              	.LFB8:
 275:../Generated_Code/Rx1.c **** 
 276:../Generated_Code/Rx1.c **** /*
 277:../Generated_Code/Rx1.c **** ** ===================================================================
 278:../Generated_Code/Rx1.c **** **     Method      :  Rx1_Peek (component RingBuffer)
 279:../Generated_Code/Rx1.c **** **     Description :
 280:../Generated_Code/Rx1.c **** **         Returns an element of the buffer without removiing it.
 281:../Generated_Code/Rx1.c **** **     Parameters  :
 282:../Generated_Code/Rx1.c **** **         NAME            - DESCRIPTION
 283:../Generated_Code/Rx1.c **** **         index           - Index of element. 0 peeks the top
 284:../Generated_Code/Rx1.c **** **                           element, 1 the next, and so on.
 285:../Generated_Code/Rx1.c **** **       * elemP           - Pointer to where to store the received
 286:../Generated_Code/Rx1.c **** **                           element
 287:../Generated_Code/Rx1.c **** **     Returns     :
 288:../Generated_Code/Rx1.c **** **         ---             - Error code
 289:../Generated_Code/Rx1.c **** ** ===================================================================
 290:../Generated_Code/Rx1.c **** */
 291:../Generated_Code/Rx1.c **** uint8_t Rx1_Peek(Rx1_BufSizeType index, Rx1_ElementType *elemP)
 292:../Generated_Code/Rx1.c **** {
 539              		.loc 1 292 0
 540              		.cfi_startproc
 541              		@ args = 0, pretend = 0, frame = 24
 542              		@ frame_needed = 1, uses_anonymous_args = 0
 543              		@ link register save eliminated.
 544 0000 80B4     		push	{r7}
 545              		.cfi_def_cfa_offset 4
 546              		.cfi_offset 7, -4
 547 0002 87B0     		sub	sp, sp, #28
 548              		.cfi_def_cfa_offset 32
 549 0004 00AF     		add	r7, sp, #0
 550              		.cfi_def_cfa_register 7
 551 0006 0346     		mov	r3, r0
 552 0008 3960     		str	r1, [r7]
 553 000a FB71     		strb	r3, [r7, #7]
 293:../Generated_Code/Rx1.c ****   uint8_t res = ERR_OK;
 554              		.loc 1 293 0
 555 000c 0023     		movs	r3, #0
 556 000e FB75     		strb	r3, [r7, #23]
 294:../Generated_Code/Rx1.c ****   int idx; /* index inside ring buffer */
 295:../Generated_Code/Rx1.c ****   Rx1_DEFINE_CRITICAL();
 296:../Generated_Code/Rx1.c **** 
 297:../Generated_Code/Rx1.c ****   Rx1_ENTER_CRITICAL();
 557              		.loc 1 297 0
 558              	@ 297 "../Generated_Code/Rx1.c" 1
 559 0010 EFF31080 		mrs   r0, PRIMASK     
 560 0014 72B6     		cpsid i               
 561 0016 F873     		strb r0, [r7, #15]   
 562              		
 563              	@ 0 "" 2
 298:../Generated_Code/Rx1.c ****   if (index>=Rx1_CONFIG_BUF_SIZE) {
 564              		.loc 1 298 0
 565              		.thumb
 566 0018 FB79     		ldrb	r3, [r7, #7]	@ zero_extendqisi2
 567 001a 5BB2     		sxtb	r3, r3
 568 001c 002B     		cmp	r3, #0
 569 001e 02DA     		bge	.L39
 299:../Generated_Code/Rx1.c ****     res = ERR_OVERFLOW; /* asking for an element outside of ring buffer size */
 570              		.loc 1 299 0
 571 0020 0423     		movs	r3, #4
 572 0022 FB75     		strb	r3, [r7, #23]
 573 0024 15E0     		b	.L40
 574              	.L39:
 300:../Generated_Code/Rx1.c ****   } else if (index<Rx1_inSize) {
 575              		.loc 1 300 0
 576 0026 104B     		ldr	r3, .L43
 577 0028 1B78     		ldrb	r3, [r3]	@ zero_extendqisi2
 578 002a FA79     		ldrb	r2, [r7, #7]	@ zero_extendqisi2
 579 002c 9A42     		cmp	r2, r3
 580 002e 0ED2     		bcs	.L41
 301:../Generated_Code/Rx1.c ****     idx = (Rx1_outIdx+index)%Rx1_CONFIG_BUF_SIZE;
 581              		.loc 1 301 0
 582 0030 0E4B     		ldr	r3, .L43+4
 583 0032 1B78     		ldrb	r3, [r3]	@ zero_extendqisi2
 584 0034 1A46     		mov	r2, r3
 585 0036 FB79     		ldrb	r3, [r7, #7]	@ zero_extendqisi2
 586 0038 1344     		add	r3, r3, r2
 587 003a 03F07F03 		and	r3, r3, #127
 588 003e 3B61     		str	r3, [r7, #16]
 302:../Generated_Code/Rx1.c ****     *elemP = Rx1_buffer[idx];
 589              		.loc 1 302 0
 590 0040 0B4A     		ldr	r2, .L43+8
 591 0042 3B69     		ldr	r3, [r7, #16]
 592 0044 1344     		add	r3, r3, r2
 593 0046 1A78     		ldrb	r2, [r3]	@ zero_extendqisi2
 594 0048 3B68     		ldr	r3, [r7]
 595 004a 1A70     		strb	r2, [r3]
 596 004c 01E0     		b	.L40
 597              	.L41:
 303:../Generated_Code/Rx1.c ****   } else { /* asking for an element which does not exist */
 304:../Generated_Code/Rx1.c ****     res = ERR_RXEMPTY;
 598              		.loc 1 304 0
 599 004e 0A23     		movs	r3, #10
 600 0050 FB75     		strb	r3, [r7, #23]
 601              	.L40:
 305:../Generated_Code/Rx1.c ****   }
 306:../Generated_Code/Rx1.c ****   Rx1_EXIT_CRITICAL();
 602              		.loc 1 306 0
 603              	@ 306 "../Generated_Code/Rx1.c" 1
 604 0052 F87B     		ldrb r0, [r7, #15]    
 605 0054 80F31088 		msr PRIMASK,r0        
 606              		
 607              	@ 0 "" 2
 307:../Generated_Code/Rx1.c ****   return res;
 608              		.loc 1 307 0
 609              		.thumb
 610 0058 FB7D     		ldrb	r3, [r7, #23]	@ zero_extendqisi2
 308:../Generated_Code/Rx1.c **** }
 611              		.loc 1 308 0
 612 005a 1846     		mov	r0, r3
 613 005c 1C37     		adds	r7, r7, #28
 614 005e BD46     		mov	sp, r7
 615              		@ sp needed
 616 0060 5DF8047B 		ldr	r7, [sp], #4
 617 0064 7047     		bx	lr
 618              	.L44:
 619 0066 00BF     		.align	2
 620              	.L43:
 621 0068 00000000 		.word	Rx1_inSize
 622 006c 00000000 		.word	Rx1_outIdx
 623 0070 00000000 		.word	Rx1_buffer
 624              		.cfi_endproc
 625              	.LFE8:
 627              		.section	.text.Rx1_Compare,"ax",%progbits
 628              		.align	2
 629              		.global	Rx1_Compare
 630              		.thumb
 631              		.thumb_func
 633              	Rx1_Compare:
 634              	.LFB9:
 309:../Generated_Code/Rx1.c **** 
 310:../Generated_Code/Rx1.c **** /*
 311:../Generated_Code/Rx1.c **** ** ===================================================================
 312:../Generated_Code/Rx1.c **** **     Method      :  Rx1_Compare (component RingBuffer)
 313:../Generated_Code/Rx1.c **** **     Description :
 314:../Generated_Code/Rx1.c **** **         Compares the elements in the buffer.
 315:../Generated_Code/Rx1.c **** **     Parameters  :
 316:../Generated_Code/Rx1.c **** **         NAME            - DESCRIPTION
 317:../Generated_Code/Rx1.c **** **         index           - Index of element. 0 peeks the top
 318:../Generated_Code/Rx1.c **** **                           element, 1 the next, and so on.
 319:../Generated_Code/Rx1.c **** **       * elemP           - Pointer to elements to compare with
 320:../Generated_Code/Rx1.c **** **         nof             - number of elements to compare
 321:../Generated_Code/Rx1.c **** **     Returns     :
 322:../Generated_Code/Rx1.c **** **         ---             - zero if elements are the same, -1 otherwise
 323:../Generated_Code/Rx1.c **** ** ===================================================================
 324:../Generated_Code/Rx1.c **** */
 325:../Generated_Code/Rx1.c **** uint8_t Rx1_Compare(Rx1_BufSizeType index, Rx1_ElementType *elemP, Rx1_BufSizeType nof)
 326:../Generated_Code/Rx1.c **** {
 635              		.loc 1 326 0
 636              		.cfi_startproc
 637              		@ args = 0, pretend = 0, frame = 16
 638              		@ frame_needed = 1, uses_anonymous_args = 0
 639 0000 80B5     		push	{r7, lr}
 640              		.cfi_def_cfa_offset 8
 641              		.cfi_offset 7, -8
 642              		.cfi_offset 14, -4
 643 0002 84B0     		sub	sp, sp, #16
 644              		.cfi_def_cfa_offset 24
 645 0004 00AF     		add	r7, sp, #0
 646              		.cfi_def_cfa_register 7
 647 0006 3960     		str	r1, [r7]
 648 0008 1346     		mov	r3, r2
 649 000a 0246     		mov	r2, r0
 650 000c FA71     		strb	r2, [r7, #7]
 651 000e BB71     		strb	r3, [r7, #6]
 327:../Generated_Code/Rx1.c ****   uint8_t cmpResult = 0;
 652              		.loc 1 327 0
 653 0010 0023     		movs	r3, #0
 654 0012 FB73     		strb	r3, [r7, #15]
 328:../Generated_Code/Rx1.c ****   uint8_t res;
 329:../Generated_Code/Rx1.c ****   Rx1_ElementType val;
 330:../Generated_Code/Rx1.c **** 
 331:../Generated_Code/Rx1.c ****   while(nof>0) {
 655              		.loc 1 331 0
 656 0014 1FE0     		b	.L46
 657              	.L50:
 332:../Generated_Code/Rx1.c ****     res = Rx1_Peek(index, &val);
 658              		.loc 1 332 0
 659 0016 FA79     		ldrb	r2, [r7, #7]	@ zero_extendqisi2
 660 0018 07F10D03 		add	r3, r7, #13
 661 001c 1046     		mov	r0, r2
 662 001e 1946     		mov	r1, r3
 663 0020 FFF7FEFF 		bl	Rx1_Peek
 664 0024 0346     		mov	r3, r0
 665 0026 BB73     		strb	r3, [r7, #14]
 333:../Generated_Code/Rx1.c ****     if (res!=ERR_OK) { /* general failure? */
 666              		.loc 1 333 0
 667 0028 BB7B     		ldrb	r3, [r7, #14]	@ zero_extendqisi2
 668 002a 002B     		cmp	r3, #0
 669 002c 02D0     		beq	.L47
 334:../Generated_Code/Rx1.c ****       cmpResult = (uint8_t)-1; /* no match */
 670              		.loc 1 334 0
 671 002e FF23     		movs	r3, #255
 672 0030 FB73     		strb	r3, [r7, #15]
 335:../Generated_Code/Rx1.c ****       break;
 673              		.loc 1 335 0
 674 0032 13E0     		b	.L48
 675              	.L47:
 336:../Generated_Code/Rx1.c ****     }
 337:../Generated_Code/Rx1.c ****     if (val!=*elemP) { /* mismatch */
 676              		.loc 1 337 0
 677 0034 3B68     		ldr	r3, [r7]
 678 0036 1A78     		ldrb	r2, [r3]	@ zero_extendqisi2
 679 0038 7B7B     		ldrb	r3, [r7, #13]	@ zero_extendqisi2
 680 003a 9A42     		cmp	r2, r3
 681 003c 02D0     		beq	.L49
 338:../Generated_Code/Rx1.c ****       cmpResult = (uint8_t)-1; /* no match */
 682              		.loc 1 338 0
 683 003e FF23     		movs	r3, #255
 684 0040 FB73     		strb	r3, [r7, #15]
 339:../Generated_Code/Rx1.c ****       break;
 685              		.loc 1 339 0
 686 0042 0BE0     		b	.L48
 687              	.L49:
 340:../Generated_Code/Rx1.c ****     }
 341:../Generated_Code/Rx1.c ****     elemP++; index++; nof--;
 688              		.loc 1 341 0
 689 0044 3B68     		ldr	r3, [r7]
 690 0046 0133     		adds	r3, r3, #1
 691 0048 3B60     		str	r3, [r7]
 692 004a FB79     		ldrb	r3, [r7, #7]	@ zero_extendqisi2
 693 004c 0133     		adds	r3, r3, #1
 694 004e FB71     		strb	r3, [r7, #7]
 695 0050 BB79     		ldrb	r3, [r7, #6]	@ zero_extendqisi2
 696 0052 013B     		subs	r3, r3, #1
 697 0054 BB71     		strb	r3, [r7, #6]
 698              	.L46:
 331:../Generated_Code/Rx1.c ****   while(nof>0) {
 699              		.loc 1 331 0 discriminator 1
 700 0056 BB79     		ldrb	r3, [r7, #6]	@ zero_extendqisi2
 701 0058 002B     		cmp	r3, #0
 702 005a DCD1     		bne	.L50
 703              	.L48:
 342:../Generated_Code/Rx1.c ****   }
 343:../Generated_Code/Rx1.c **** 
 344:../Generated_Code/Rx1.c ****   return cmpResult;
 704              		.loc 1 344 0
 705 005c FB7B     		ldrb	r3, [r7, #15]	@ zero_extendqisi2
 345:../Generated_Code/Rx1.c **** }
 706              		.loc 1 345 0
 707 005e 1846     		mov	r0, r3
 708 0060 1037     		adds	r7, r7, #16
 709 0062 BD46     		mov	sp, r7
 710              		@ sp needed
 711 0064 80BD     		pop	{r7, pc}
 712              		.cfi_endproc
 713              	.LFE9:
 715 0066 00BF     		.section	.text.Rx1_Delete,"ax",%progbits
 716              		.align	2
 717              		.global	Rx1_Delete
 718              		.thumb
 719              		.thumb_func
 721              	Rx1_Delete:
 722              	.LFB10:
 346:../Generated_Code/Rx1.c **** 
 347:../Generated_Code/Rx1.c **** /*
 348:../Generated_Code/Rx1.c **** ** ===================================================================
 349:../Generated_Code/Rx1.c **** **     Method      :  Rx1_Deinit (component RingBuffer)
 350:../Generated_Code/Rx1.c **** **     Description :
 351:../Generated_Code/Rx1.c **** **         Driver de-initialization
 352:../Generated_Code/Rx1.c **** **     Parameters  : None
 353:../Generated_Code/Rx1.c **** **     Returns     : Nothing
 354:../Generated_Code/Rx1.c **** ** ===================================================================
 355:../Generated_Code/Rx1.c **** */
 356:../Generated_Code/Rx1.c **** /**
 357:../Generated_Code/Rx1.c **** void Rx1_Deinit(void)
 358:../Generated_Code/Rx1.c **** {
 359:../Generated_Code/Rx1.c ****   ** Function is implemented as macro in the header file
 360:../Generated_Code/Rx1.c **** }
 361:../Generated_Code/Rx1.c **** */
 362:../Generated_Code/Rx1.c **** /*
 363:../Generated_Code/Rx1.c **** ** ===================================================================
 364:../Generated_Code/Rx1.c **** **     Method      :  Rx1_Delete (component RingBuffer)
 365:../Generated_Code/Rx1.c **** **     Description :
 366:../Generated_Code/Rx1.c **** **         Removes an element from the buffer
 367:../Generated_Code/Rx1.c **** **     Parameters  : None
 368:../Generated_Code/Rx1.c **** **     Returns     :
 369:../Generated_Code/Rx1.c **** **         ---             - Error code
 370:../Generated_Code/Rx1.c **** ** ===================================================================
 371:../Generated_Code/Rx1.c **** */
 372:../Generated_Code/Rx1.c **** uint8_t Rx1_Delete(void)
 373:../Generated_Code/Rx1.c **** {
 723              		.loc 1 373 0
 724              		.cfi_startproc
 725              		@ args = 0, pretend = 0, frame = 8
 726              		@ frame_needed = 1, uses_anonymous_args = 0
 727              		@ link register save eliminated.
 728 0000 80B4     		push	{r7}
 729              		.cfi_def_cfa_offset 4
 730              		.cfi_offset 7, -4
 731 0002 83B0     		sub	sp, sp, #12
 732              		.cfi_def_cfa_offset 16
 733 0004 00AF     		add	r7, sp, #0
 734              		.cfi_def_cfa_register 7
 374:../Generated_Code/Rx1.c ****   uint8_t res = ERR_OK;
 735              		.loc 1 374 0
 736 0006 0023     		movs	r3, #0
 737 0008 FB71     		strb	r3, [r7, #7]
 375:../Generated_Code/Rx1.c ****   Rx1_DEFINE_CRITICAL();
 376:../Generated_Code/Rx1.c **** 
 377:../Generated_Code/Rx1.c ****   Rx1_ENTER_CRITICAL();
 738              		.loc 1 377 0
 739              	@ 377 "../Generated_Code/Rx1.c" 1
 740 000a EFF31080 		mrs   r0, PRIMASK     
 741 000e 72B6     		cpsid i               
 742 0010 B871     		strb r0, [r7, #6]   
 743              		
 744              	@ 0 "" 2
 378:../Generated_Code/Rx1.c ****   if (Rx1_inSize==0) {
 745              		.loc 1 378 0
 746              		.thumb
 747 0012 124B     		ldr	r3, .L56
 748 0014 1B78     		ldrb	r3, [r3]	@ zero_extendqisi2
 749 0016 002B     		cmp	r3, #0
 750 0018 02D1     		bne	.L53
 379:../Generated_Code/Rx1.c ****     res = ERR_RXEMPTY;
 751              		.loc 1 379 0
 752 001a 0A23     		movs	r3, #10
 753 001c FB71     		strb	r3, [r7, #7]
 754 001e 12E0     		b	.L54
 755              	.L53:
 380:../Generated_Code/Rx1.c ****   } else {
 381:../Generated_Code/Rx1.c ****     Rx1_inSize--;
 756              		.loc 1 381 0
 757 0020 0E4B     		ldr	r3, .L56
 758 0022 1B78     		ldrb	r3, [r3]	@ zero_extendqisi2
 759 0024 013B     		subs	r3, r3, #1
 760 0026 DAB2     		uxtb	r2, r3
 761 0028 0C4B     		ldr	r3, .L56
 762 002a 1A70     		strb	r2, [r3]
 382:../Generated_Code/Rx1.c ****     Rx1_outIdx++;
 763              		.loc 1 382 0
 764 002c 0C4B     		ldr	r3, .L56+4
 765 002e 1B78     		ldrb	r3, [r3]	@ zero_extendqisi2
 766 0030 0133     		adds	r3, r3, #1
 767 0032 DAB2     		uxtb	r2, r3
 768 0034 0A4B     		ldr	r3, .L56+4
 769 0036 1A70     		strb	r2, [r3]
 383:../Generated_Code/Rx1.c ****     if (Rx1_outIdx==Rx1_CONFIG_BUF_SIZE) {
 770              		.loc 1 383 0
 771 0038 094B     		ldr	r3, .L56+4
 772 003a 1B78     		ldrb	r3, [r3]	@ zero_extendqisi2
 773 003c 802B     		cmp	r3, #128
 774 003e 02D1     		bne	.L54
 384:../Generated_Code/Rx1.c ****       Rx1_outIdx = 0;
 775              		.loc 1 384 0
 776 0040 074B     		ldr	r3, .L56+4
 777 0042 0022     		movs	r2, #0
 778 0044 1A70     		strb	r2, [r3]
 779              	.L54:
 385:../Generated_Code/Rx1.c ****     }
 386:../Generated_Code/Rx1.c ****   }
 387:../Generated_Code/Rx1.c ****   Rx1_EXIT_CRITICAL();
 780              		.loc 1 387 0
 781              	@ 387 "../Generated_Code/Rx1.c" 1
 782 0046 B879     		ldrb r0, [r7, #6]    
 783 0048 80F31088 		msr PRIMASK,r0        
 784              		
 785              	@ 0 "" 2
 388:../Generated_Code/Rx1.c ****   return res;
 786              		.loc 1 388 0
 787              		.thumb
 788 004c FB79     		ldrb	r3, [r7, #7]	@ zero_extendqisi2
 389:../Generated_Code/Rx1.c **** }
 789              		.loc 1 389 0
 790 004e 1846     		mov	r0, r3
 791 0050 0C37     		adds	r7, r7, #12
 792 0052 BD46     		mov	sp, r7
 793              		@ sp needed
 794 0054 5DF8047B 		ldr	r7, [sp], #4
 795 0058 7047     		bx	lr
 796              	.L57:
 797 005a 00BF     		.align	2
 798              	.L56:
 799 005c 00000000 		.word	Rx1_inSize
 800 0060 00000000 		.word	Rx1_outIdx
 801              		.cfi_endproc
 802              	.LFE10:
 804              		.section	.text.Rx1_Update,"ax",%progbits
 805              		.align	2
 806              		.global	Rx1_Update
 807              		.thumb
 808              		.thumb_func
 810              	Rx1_Update:
 811              	.LFB11:
 390:../Generated_Code/Rx1.c **** 
 391:../Generated_Code/Rx1.c **** /*
 392:../Generated_Code/Rx1.c **** ** ===================================================================
 393:../Generated_Code/Rx1.c **** **     Method      :  Rx1_Update (component RingBuffer)
 394:../Generated_Code/Rx1.c **** **     Description :
 395:../Generated_Code/Rx1.c **** **         Updates the data of an element.
 396:../Generated_Code/Rx1.c **** **     Parameters  :
 397:../Generated_Code/Rx1.c **** **         NAME            - DESCRIPTION
 398:../Generated_Code/Rx1.c **** **         index           - Index of element. 0 peeks the top
 399:../Generated_Code/Rx1.c **** **                           element, 1 the next, and so on.
 400:../Generated_Code/Rx1.c **** **       * elemP           - Pointer to where to store the received
 401:../Generated_Code/Rx1.c **** **                           element
 402:../Generated_Code/Rx1.c **** **     Returns     :
 403:../Generated_Code/Rx1.c **** **         ---             - Error code
 404:../Generated_Code/Rx1.c **** ** ===================================================================
 405:../Generated_Code/Rx1.c **** */
 406:../Generated_Code/Rx1.c **** uint8_t Rx1_Update(Rx1_BufSizeType index, Rx1_ElementType *elemP)
 407:../Generated_Code/Rx1.c **** {
 812              		.loc 1 407 0
 813              		.cfi_startproc
 814              		@ args = 0, pretend = 0, frame = 24
 815              		@ frame_needed = 1, uses_anonymous_args = 0
 816              		@ link register save eliminated.
 817 0000 80B4     		push	{r7}
 818              		.cfi_def_cfa_offset 4
 819              		.cfi_offset 7, -4
 820 0002 87B0     		sub	sp, sp, #28
 821              		.cfi_def_cfa_offset 32
 822 0004 00AF     		add	r7, sp, #0
 823              		.cfi_def_cfa_register 7
 824 0006 0346     		mov	r3, r0
 825 0008 3960     		str	r1, [r7]
 826 000a FB71     		strb	r3, [r7, #7]
 408:../Generated_Code/Rx1.c ****   uint8_t res = ERR_OK;
 827              		.loc 1 408 0
 828 000c 0023     		movs	r3, #0
 829 000e FB75     		strb	r3, [r7, #23]
 409:../Generated_Code/Rx1.c ****   int idx; /* index inside ring buffer */
 410:../Generated_Code/Rx1.c ****   Rx1_DEFINE_CRITICAL();
 411:../Generated_Code/Rx1.c **** 
 412:../Generated_Code/Rx1.c ****   Rx1_ENTER_CRITICAL();
 830              		.loc 1 412 0
 831              	@ 412 "../Generated_Code/Rx1.c" 1
 832 0010 EFF31080 		mrs   r0, PRIMASK     
 833 0014 72B6     		cpsid i               
 834 0016 F873     		strb r0, [r7, #15]   
 835              		
 836              	@ 0 "" 2
 413:../Generated_Code/Rx1.c ****   if (index>=Rx1_CONFIG_BUF_SIZE) {
 837              		.loc 1 413 0
 838              		.thumb
 839 0018 FB79     		ldrb	r3, [r7, #7]	@ zero_extendqisi2
 840 001a 5BB2     		sxtb	r3, r3
 841 001c 002B     		cmp	r3, #0
 842 001e 02DA     		bge	.L59
 414:../Generated_Code/Rx1.c ****     res = ERR_OVERFLOW; /* asking for an element outside of ring buffer size */
 843              		.loc 1 414 0
 844 0020 0423     		movs	r3, #4
 845 0022 FB75     		strb	r3, [r7, #23]
 846 0024 15E0     		b	.L60
 847              	.L59:
 415:../Generated_Code/Rx1.c ****   } else if (index<Rx1_inSize) {
 848              		.loc 1 415 0
 849 0026 104B     		ldr	r3, .L63
 850 0028 1B78     		ldrb	r3, [r3]	@ zero_extendqisi2
 851 002a FA79     		ldrb	r2, [r7, #7]	@ zero_extendqisi2
 852 002c 9A42     		cmp	r2, r3
 853 002e 0ED2     		bcs	.L61
 416:../Generated_Code/Rx1.c ****     idx = (Rx1_outIdx+index)%Rx1_CONFIG_BUF_SIZE;
 854              		.loc 1 416 0
 855 0030 0E4B     		ldr	r3, .L63+4
 856 0032 1B78     		ldrb	r3, [r3]	@ zero_extendqisi2
 857 0034 1A46     		mov	r2, r3
 858 0036 FB79     		ldrb	r3, [r7, #7]	@ zero_extendqisi2
 859 0038 1344     		add	r3, r3, r2
 860 003a 03F07F03 		and	r3, r3, #127
 861 003e 3B61     		str	r3, [r7, #16]
 417:../Generated_Code/Rx1.c ****     Rx1_buffer[idx] = *elemP; /* replace element */
 862              		.loc 1 417 0
 863 0040 3B68     		ldr	r3, [r7]
 864 0042 1A78     		ldrb	r2, [r3]	@ zero_extendqisi2
 865 0044 0A49     		ldr	r1, .L63+8
 866 0046 3B69     		ldr	r3, [r7, #16]
 867 0048 0B44     		add	r3, r3, r1
 868 004a 1A70     		strb	r2, [r3]
 869 004c 01E0     		b	.L60
 870              	.L61:
 418:../Generated_Code/Rx1.c ****   } else { /* asking for an element which does not exist */
 419:../Generated_Code/Rx1.c ****     res = ERR_RXEMPTY;
 871              		.loc 1 419 0
 872 004e 0A23     		movs	r3, #10
 873 0050 FB75     		strb	r3, [r7, #23]
 874              	.L60:
 420:../Generated_Code/Rx1.c ****   }
 421:../Generated_Code/Rx1.c ****   Rx1_EXIT_CRITICAL();
 875              		.loc 1 421 0
 876              	@ 421 "../Generated_Code/Rx1.c" 1
 877 0052 F87B     		ldrb r0, [r7, #15]    
 878 0054 80F31088 		msr PRIMASK,r0        
 879              		
 880              	@ 0 "" 2
 422:../Generated_Code/Rx1.c ****   return res;
 881              		.loc 1 422 0
 882              		.thumb
 883 0058 FB7D     		ldrb	r3, [r7, #23]	@ zero_extendqisi2
 423:../Generated_Code/Rx1.c **** }
 884              		.loc 1 423 0
 885 005a 1846     		mov	r0, r3
 886 005c 1C37     		adds	r7, r7, #28
 887 005e BD46     		mov	sp, r7
 888              		@ sp needed
 889 0060 5DF8047B 		ldr	r7, [sp], #4
 890 0064 7047     		bx	lr
 891              	.L64:
 892 0066 00BF     		.align	2
 893              	.L63:
 894 0068 00000000 		.word	Rx1_inSize
 895 006c 00000000 		.word	Rx1_outIdx
 896 0070 00000000 		.word	Rx1_buffer
 897              		.cfi_endproc
 898              	.LFE11:
 900              		.text
 901              	.Letext0:
 902              		.file 2 "c:\\freescale\\kds_v3\\toolchain\\arm-none-eabi\\include\\machine\\_default_types.h"
 903              		.file 3 "c:\\freescale\\kds_v3\\toolchain\\arm-none-eabi\\include\\stdint.h"
 904              		.file 4 "../Generated_Code/Rx1.h"