   1              		.syntax unified
   2              		.cpu cortex-m4
   3              		.eabi_attribute 27, 3
   4              		.eabi_attribute 28, 1
   5              		.fpu fpv4-sp-d16
   6              		.eabi_attribute 20, 1
   7              		.eabi_attribute 21, 1
   8              		.eabi_attribute 23, 3
   9              		.eabi_attribute 24, 1
  10              		.eabi_attribute 25, 1
  11              		.eabi_attribute 26, 1
  12              		.eabi_attribute 30, 6
  13              		.eabi_attribute 34, 1
  14              		.eabi_attribute 18, 4
  15              		.thumb
  16              		.file	"Tx1.c"
  17              		.text
  18              	.Ltext0:
  19              		.cfi_sections	.debug_frame
  20              		.section	.bss.Tx1_buffer,"aw",%nobits
  21              		.align	2
  24              	Tx1_buffer:
  25 0000 00000000 		.space	256
  25      00000000 
  25      00000000 
  25      00000000 
  25      00000000 
  26              		.section	.bss.Tx1_inIdx,"aw",%nobits
  27              		.align	1
  30              	Tx1_inIdx:
  31 0000 0000     		.space	2
  32              		.section	.bss.Tx1_outIdx,"aw",%nobits
  33              		.align	1
  36              	Tx1_outIdx:
  37 0000 0000     		.space	2
  38              		.section	.bss.Tx1_inSize,"aw",%nobits
  39              		.align	1
  42              	Tx1_inSize:
  43 0000 0000     		.space	2
  44              		.section	.text.Tx1_Put,"ax",%progbits
  45              		.align	2
  46              		.global	Tx1_Put
  47              		.thumb
  48              		.thumb_func
  50              	Tx1_Put:
  51              	.LFB0:
  52              		.file 1 "../Generated_Code/Tx1.c"
   1:../Generated_Code/Tx1.c **** /* ###################################################################
   2:../Generated_Code/Tx1.c **** **     This component module is generated by Processor Expert. Do not modify it.
   3:../Generated_Code/Tx1.c **** **     Filename    : Tx1.c
   4:../Generated_Code/Tx1.c **** **     Project     : TEAM_Robot
   5:../Generated_Code/Tx1.c **** **     Processor   : MK22FX512VLK12
   6:../Generated_Code/Tx1.c **** **     Component   : RingBuffer
   7:../Generated_Code/Tx1.c **** **     Version     : Component 01.053, Driver 01.00, CPU db: 3.00.000
   8:../Generated_Code/Tx1.c **** **     Repository  : My Components
   9:../Generated_Code/Tx1.c **** **     Compiler    : GNU C Compiler
  10:../Generated_Code/Tx1.c **** **     Date/Time   : 2018-09-28, 15:03, # CodeGen: 0
  11:../Generated_Code/Tx1.c **** **     Abstract    :
  12:../Generated_Code/Tx1.c **** **         This component implements a ring buffer for different integer data type.
  13:../Generated_Code/Tx1.c **** **     Settings    :
  14:../Generated_Code/Tx1.c **** **          Component name                                 : Tx1
  15:../Generated_Code/Tx1.c **** **          SDK                                            : MCUC1
  16:../Generated_Code/Tx1.c **** **          Reentrant                                      : yes
  17:../Generated_Code/Tx1.c **** **          Critical Section                               : CS1
  18:../Generated_Code/Tx1.c **** **          Buffer Elements                                : 256
  19:../Generated_Code/Tx1.c **** **          Element Size                                   : 1 Byte
  20:../Generated_Code/Tx1.c **** **     Contents    :
  21:../Generated_Code/Tx1.c **** **         Clear           - void Tx1_Clear(void);
  22:../Generated_Code/Tx1.c **** **         Put             - uint8_t Tx1_Put(Tx1_ElementType elem);
  23:../Generated_Code/Tx1.c **** **         Get             - uint8_t Tx1_Get(Tx1_ElementType *elemP);
  24:../Generated_Code/Tx1.c **** **         Peek            - uint8_t Tx1_Peek(Tx1_BufSizeType index, Tx1_ElementType *elemP);
  25:../Generated_Code/Tx1.c **** **         Update          - uint8_t Tx1_Update(Tx1_BufSizeType index, Tx1_ElementType *elemP);
  26:../Generated_Code/Tx1.c **** **         Putn            - uint8_t Tx1_Putn(Tx1_ElementType *elem, Tx1_BufSizeType nof);
  27:../Generated_Code/Tx1.c **** **         Getn            - uint8_t Tx1_Getn(Tx1_ElementType *buf, Tx1_BufSizeType nof);
  28:../Generated_Code/Tx1.c **** **         Compare         - uint8_t Tx1_Compare(Tx1_BufSizeType index, Tx1_ElementType *elemP,...
  29:../Generated_Code/Tx1.c **** **         Delete          - uint8_t Tx1_Delete(void);
  30:../Generated_Code/Tx1.c **** **         NofElements     - Tx1_BufSizeType Tx1_NofElements(void);
  31:../Generated_Code/Tx1.c **** **         NofFreeElements - Tx1_BufSizeType Tx1_NofFreeElements(void);
  32:../Generated_Code/Tx1.c **** **         Deinit          - void Tx1_Deinit(void);
  33:../Generated_Code/Tx1.c **** **         Init            - void Tx1_Init(void);
  34:../Generated_Code/Tx1.c **** **
  35:../Generated_Code/Tx1.c **** **     * Copyright (c) 2014-2018, Erich Styger
  36:../Generated_Code/Tx1.c **** **      * Web:         https://mcuoneclipse.com
  37:../Generated_Code/Tx1.c **** **      * SourceForge: https://sourceforge.net/projects/mcuoneclipse
  38:../Generated_Code/Tx1.c **** **      * Git:         https://github.com/ErichStyger/McuOnEclipse_PEx
  39:../Generated_Code/Tx1.c **** **      * All rights reserved.
  40:../Generated_Code/Tx1.c **** **      *
  41:../Generated_Code/Tx1.c **** **      * Redistribution and use in source and binary forms, with or without modification,
  42:../Generated_Code/Tx1.c **** **      * are permitted provided that the following conditions are met:
  43:../Generated_Code/Tx1.c **** **      *
  44:../Generated_Code/Tx1.c **** **      * - Redistributions of source code must retain the above copyright notice, this list
  45:../Generated_Code/Tx1.c **** **      *   of conditions and the following disclaimer.
  46:../Generated_Code/Tx1.c **** **      *
  47:../Generated_Code/Tx1.c **** **      * - Redistributions in binary form must reproduce the above copyright notice, this
  48:../Generated_Code/Tx1.c **** **      *   list of conditions and the following disclaimer in the documentation and/or
  49:../Generated_Code/Tx1.c **** **      *   other materials provided with the distribution.
  50:../Generated_Code/Tx1.c **** **      *
  51:../Generated_Code/Tx1.c **** **      * THIS SOFTWARE IS PROVIDED BY THE COPYRIGHT HOLDERS AND CONTRIBUTORS "AS IS" AND
  52:../Generated_Code/Tx1.c **** **      * ANY EXPRESS OR IMPLIED WARRANTIES, INCLUDING, BUT NOT LIMITED TO, THE IMPLIED
  53:../Generated_Code/Tx1.c **** **      * WARRANTIES OF MERCHANTABILITY AND FITNESS FOR A PARTICULAR PURPOSE ARE
  54:../Generated_Code/Tx1.c **** **      * DISCLAIMED. IN NO EVENT SHALL THE COPYRIGHT HOLDER OR CONTRIBUTORS BE LIABLE FOR
  55:../Generated_Code/Tx1.c **** **      * ANY DIRECT, INDIRECT, INCIDENTAL, SPECIAL, EXEMPLARY, OR CONSEQUENTIAL DAMAGES
  56:../Generated_Code/Tx1.c **** **      * (INCLUDING, BUT NOT LIMITED TO, PROCUREMENT OF SUBSTITUTE GOODS OR SERVICES;
  57:../Generated_Code/Tx1.c **** **      * LOSS OF USE, DATA, OR PROFITS; OR BUSINESS INTERRUPTION) HOWEVER CAUSED AND ON
  58:../Generated_Code/Tx1.c **** **      * ANY THEORY OF LIABILITY, WHETHER IN CONTRACT, STRICT LIABILITY, OR TORT
  59:../Generated_Code/Tx1.c **** **      * (INCLUDING NEGLIGENCE OR OTHERWISE) ARISING IN ANY WAY OUT OF THE USE OF THIS
  60:../Generated_Code/Tx1.c **** **      * SOFTWARE, EVEN IF ADVISED OF THE POSSIBILITY OF SUCH DAMAGE.
  61:../Generated_Code/Tx1.c **** ** ###################################################################*/
  62:../Generated_Code/Tx1.c **** /*!
  63:../Generated_Code/Tx1.c **** ** @file Tx1.c
  64:../Generated_Code/Tx1.c **** ** @version 01.00
  65:../Generated_Code/Tx1.c **** ** @brief
  66:../Generated_Code/Tx1.c **** **         This component implements a ring buffer for different integer data type.
  67:../Generated_Code/Tx1.c **** */         
  68:../Generated_Code/Tx1.c **** /*!
  69:../Generated_Code/Tx1.c **** **  @addtogroup Tx1_module Tx1 module documentation
  70:../Generated_Code/Tx1.c **** **  @{
  71:../Generated_Code/Tx1.c **** */         
  72:../Generated_Code/Tx1.c **** 
  73:../Generated_Code/Tx1.c **** /* MODULE Tx1. */
  74:../Generated_Code/Tx1.c **** 
  75:../Generated_Code/Tx1.c **** #include "Tx1.h"
  76:../Generated_Code/Tx1.c **** 
  77:../Generated_Code/Tx1.c **** #if Tx1_CONFIG_REENTRANT
  78:../Generated_Code/Tx1.c ****   #define Tx1_DEFINE_CRITICAL() CS1_CriticalVariable()
  79:../Generated_Code/Tx1.c ****   #define Tx1_ENTER_CRITICAL()  CS1_EnterCritical()
  80:../Generated_Code/Tx1.c ****   #define Tx1_EXIT_CRITICAL()   CS1_ExitCritical()
  81:../Generated_Code/Tx1.c **** #else
  82:../Generated_Code/Tx1.c ****   #define Tx1_DEFINE_CRITICAL() /* nothing */
  83:../Generated_Code/Tx1.c ****   #define Tx1_ENTER_CRITICAL()  /* nothing */
  84:../Generated_Code/Tx1.c ****   #define Tx1_EXIT_CRITICAL()   /* nothing */
  85:../Generated_Code/Tx1.c **** #endif
  86:../Generated_Code/Tx1.c **** static Tx1_ElementType Tx1_buffer[Tx1_CONFIG_BUF_SIZE]; /* ring buffer */
  87:../Generated_Code/Tx1.c **** static Tx1_BufSizeType Tx1_inIdx;  /* input index */
  88:../Generated_Code/Tx1.c **** static Tx1_BufSizeType Tx1_outIdx; /* output index */
  89:../Generated_Code/Tx1.c **** static Tx1_BufSizeType Tx1_inSize; /* size data in buffer */
  90:../Generated_Code/Tx1.c **** /*
  91:../Generated_Code/Tx1.c **** ** ===================================================================
  92:../Generated_Code/Tx1.c **** **     Method      :  Tx1_Put (component RingBuffer)
  93:../Generated_Code/Tx1.c **** **     Description :
  94:../Generated_Code/Tx1.c **** **         Puts a new element into the buffer
  95:../Generated_Code/Tx1.c **** **     Parameters  :
  96:../Generated_Code/Tx1.c **** **         NAME            - DESCRIPTION
  97:../Generated_Code/Tx1.c **** **         elem            - New element to be put into the buffer
  98:../Generated_Code/Tx1.c **** **     Returns     :
  99:../Generated_Code/Tx1.c **** **         ---             - Error code
 100:../Generated_Code/Tx1.c **** ** ===================================================================
 101:../Generated_Code/Tx1.c **** */
 102:../Generated_Code/Tx1.c **** uint8_t Tx1_Put(Tx1_ElementType elem)
 103:../Generated_Code/Tx1.c **** {
  53              		.loc 1 103 0
  54              		.cfi_startproc
  55              		@ args = 0, pretend = 0, frame = 16
  56              		@ frame_needed = 1, uses_anonymous_args = 0
  57              		@ link register save eliminated.
  58 0000 80B4     		push	{r7}
  59              		.cfi_def_cfa_offset 4
  60              		.cfi_offset 7, -4
  61 0002 85B0     		sub	sp, sp, #20
  62              		.cfi_def_cfa_offset 24
  63 0004 00AF     		add	r7, sp, #0
  64              		.cfi_def_cfa_register 7
  65 0006 0346     		mov	r3, r0
  66 0008 FB71     		strb	r3, [r7, #7]
 104:../Generated_Code/Tx1.c ****   uint8_t res = ERR_OK;
  67              		.loc 1 104 0
  68 000a 0023     		movs	r3, #0
  69 000c FB73     		strb	r3, [r7, #15]
 105:../Generated_Code/Tx1.c ****   Tx1_DEFINE_CRITICAL();
 106:../Generated_Code/Tx1.c **** 
 107:../Generated_Code/Tx1.c ****   Tx1_ENTER_CRITICAL();
  70              		.loc 1 107 0
  71              	@ 107 "../Generated_Code/Tx1.c" 1
  72 000e EFF31080 		mrs   r0, PRIMASK     
  73 0012 72B6     		cpsid i               
  74 0014 B873     		strb r0, [r7, #14]   
  75              		
  76              	@ 0 "" 2
 108:../Generated_Code/Tx1.c ****   if (Tx1_inSize==Tx1_CONFIG_BUF_SIZE) {
  77              		.loc 1 108 0
  78              		.thumb
  79 0016 154B     		ldr	r3, .L6
  80 0018 1B88     		ldrh	r3, [r3]
  81 001a B3F5807F 		cmp	r3, #256
  82 001e 02D1     		bne	.L2
 109:../Generated_Code/Tx1.c ****     res = ERR_TXFULL;
  83              		.loc 1 109 0
  84 0020 0B23     		movs	r3, #11
  85 0022 FB73     		strb	r3, [r7, #15]
  86 0024 18E0     		b	.L3
  87              	.L2:
 110:../Generated_Code/Tx1.c ****   } else {
 111:../Generated_Code/Tx1.c ****     Tx1_buffer[Tx1_inIdx] = elem;
  88              		.loc 1 111 0
  89 0026 124B     		ldr	r3, .L6+4
  90 0028 1B88     		ldrh	r3, [r3]
  91 002a 124A     		ldr	r2, .L6+8
  92 002c F979     		ldrb	r1, [r7, #7]
  93 002e D154     		strb	r1, [r2, r3]
 112:../Generated_Code/Tx1.c ****     Tx1_inIdx++;
  94              		.loc 1 112 0
  95 0030 0F4B     		ldr	r3, .L6+4
  96 0032 1B88     		ldrh	r3, [r3]
  97 0034 0133     		adds	r3, r3, #1
  98 0036 9AB2     		uxth	r2, r3
  99 0038 0D4B     		ldr	r3, .L6+4
 100 003a 1A80     		strh	r2, [r3]	@ movhi
 113:../Generated_Code/Tx1.c ****     if (Tx1_inIdx==Tx1_CONFIG_BUF_SIZE) {
 101              		.loc 1 113 0
 102 003c 0C4B     		ldr	r3, .L6+4
 103 003e 1B88     		ldrh	r3, [r3]
 104 0040 B3F5807F 		cmp	r3, #256
 105 0044 02D1     		bne	.L4
 114:../Generated_Code/Tx1.c ****       Tx1_inIdx = 0;
 106              		.loc 1 114 0
 107 0046 0A4B     		ldr	r3, .L6+4
 108 0048 0022     		movs	r2, #0
 109 004a 1A80     		strh	r2, [r3]	@ movhi
 110              	.L4:
 115:../Generated_Code/Tx1.c ****     }
 116:../Generated_Code/Tx1.c ****     Tx1_inSize++;
 111              		.loc 1 116 0
 112 004c 074B     		ldr	r3, .L6
 113 004e 1B88     		ldrh	r3, [r3]
 114 0050 0133     		adds	r3, r3, #1
 115 0052 9AB2     		uxth	r2, r3
 116 0054 054B     		ldr	r3, .L6
 117 0056 1A80     		strh	r2, [r3]	@ movhi
 118              	.L3:
 117:../Generated_Code/Tx1.c ****   }
 118:../Generated_Code/Tx1.c ****   Tx1_EXIT_CRITICAL();
 119              		.loc 1 118 0
 120              	@ 118 "../Generated_Code/Tx1.c" 1
 121 0058 B87B     		ldrb r0, [r7, #14]    
 122 005a 80F31088 		msr PRIMASK,r0        
 123              		
 124              	@ 0 "" 2
 119:../Generated_Code/Tx1.c ****   return res;
 125              		.loc 1 119 0
 126              		.thumb
 127 005e FB7B     		ldrb	r3, [r7, #15]	@ zero_extendqisi2
 120:../Generated_Code/Tx1.c **** }
 128              		.loc 1 120 0
 129 0060 1846     		mov	r0, r3
 130 0062 1437     		adds	r7, r7, #20
 131 0064 BD46     		mov	sp, r7
 132              		@ sp needed
 133 0066 5DF8047B 		ldr	r7, [sp], #4
 134 006a 7047     		bx	lr
 135              	.L7:
 136              		.align	2
 137              	.L6:
 138 006c 00000000 		.word	Tx1_inSize
 139 0070 00000000 		.word	Tx1_inIdx
 140 0074 00000000 		.word	Tx1_buffer
 141              		.cfi_endproc
 142              	.LFE0:
 144              		.section	.text.Tx1_Putn,"ax",%progbits
 145              		.align	2
 146              		.global	Tx1_Putn
 147              		.thumb
 148              		.thumb_func
 150              	Tx1_Putn:
 151              	.LFB1:
 121:../Generated_Code/Tx1.c **** 
 122:../Generated_Code/Tx1.c **** /*
 123:../Generated_Code/Tx1.c **** ** ===================================================================
 124:../Generated_Code/Tx1.c **** **     Method      :  Tx1_Putn (component RingBuffer)
 125:../Generated_Code/Tx1.c **** **     Description :
 126:../Generated_Code/Tx1.c **** **         Put a number new element into the buffer.
 127:../Generated_Code/Tx1.c **** **     Parameters  :
 128:../Generated_Code/Tx1.c **** **         NAME            - DESCRIPTION
 129:../Generated_Code/Tx1.c **** **       * elem            - Pointer to new elements to be put into
 130:../Generated_Code/Tx1.c **** **                           the buffer
 131:../Generated_Code/Tx1.c **** **         nof             - number of elements
 132:../Generated_Code/Tx1.c **** **     Returns     :
 133:../Generated_Code/Tx1.c **** **         ---             - Error code
 134:../Generated_Code/Tx1.c **** ** ===================================================================
 135:../Generated_Code/Tx1.c **** */
 136:../Generated_Code/Tx1.c **** uint8_t Tx1_Putn(Tx1_ElementType *elem, Tx1_BufSizeType nof)
 137:../Generated_Code/Tx1.c **** {
 152              		.loc 1 137 0
 153              		.cfi_startproc
 154              		@ args = 0, pretend = 0, frame = 16
 155              		@ frame_needed = 1, uses_anonymous_args = 0
 156 0000 80B5     		push	{r7, lr}
 157              		.cfi_def_cfa_offset 8
 158              		.cfi_offset 7, -8
 159              		.cfi_offset 14, -4
 160 0002 84B0     		sub	sp, sp, #16
 161              		.cfi_def_cfa_offset 24
 162 0004 00AF     		add	r7, sp, #0
 163              		.cfi_def_cfa_register 7
 164 0006 7860     		str	r0, [r7, #4]
 165 0008 0B46     		mov	r3, r1
 166 000a 7B80     		strh	r3, [r7, #2]	@ movhi
 138:../Generated_Code/Tx1.c ****   uint8_t res = ERR_OK;
 167              		.loc 1 138 0
 168 000c 0023     		movs	r3, #0
 169 000e FB73     		strb	r3, [r7, #15]
 139:../Generated_Code/Tx1.c **** 
 140:../Generated_Code/Tx1.c ****   while(nof>0) {
 170              		.loc 1 140 0
 171 0010 10E0     		b	.L9
 172              	.L12:
 141:../Generated_Code/Tx1.c ****     res = Tx1_Put(*elem);
 173              		.loc 1 141 0
 174 0012 7B68     		ldr	r3, [r7, #4]
 175 0014 1B78     		ldrb	r3, [r3]	@ zero_extendqisi2
 176 0016 1846     		mov	r0, r3
 177 0018 FFF7FEFF 		bl	Tx1_Put
 178 001c 0346     		mov	r3, r0
 179 001e FB73     		strb	r3, [r7, #15]
 142:../Generated_Code/Tx1.c ****     if (res!=ERR_OK) {
 180              		.loc 1 142 0
 181 0020 FB7B     		ldrb	r3, [r7, #15]	@ zero_extendqisi2
 182 0022 002B     		cmp	r3, #0
 183 0024 00D0     		beq	.L10
 143:../Generated_Code/Tx1.c ****       break;
 184              		.loc 1 143 0
 185 0026 08E0     		b	.L11
 186              	.L10:
 144:../Generated_Code/Tx1.c ****     }
 145:../Generated_Code/Tx1.c ****     elem++; nof--;
 187              		.loc 1 145 0
 188 0028 7B68     		ldr	r3, [r7, #4]
 189 002a 0133     		adds	r3, r3, #1
 190 002c 7B60     		str	r3, [r7, #4]
 191 002e 7B88     		ldrh	r3, [r7, #2]
 192 0030 013B     		subs	r3, r3, #1
 193 0032 7B80     		strh	r3, [r7, #2]	@ movhi
 194              	.L9:
 140:../Generated_Code/Tx1.c ****   while(nof>0) {
 195              		.loc 1 140 0 discriminator 1
 196 0034 7B88     		ldrh	r3, [r7, #2]
 197 0036 002B     		cmp	r3, #0
 198 0038 EBD1     		bne	.L12
 199              	.L11:
 146:../Generated_Code/Tx1.c ****   }
 147:../Generated_Code/Tx1.c ****   return res;
 200              		.loc 1 147 0
 201 003a FB7B     		ldrb	r3, [r7, #15]	@ zero_extendqisi2
 148:../Generated_Code/Tx1.c **** }
 202              		.loc 1 148 0
 203 003c 1846     		mov	r0, r3
 204 003e 1037     		adds	r7, r7, #16
 205 0040 BD46     		mov	sp, r7
 206              		@ sp needed
 207 0042 80BD     		pop	{r7, pc}
 208              		.cfi_endproc
 209              	.LFE1:
 211              		.section	.text.Tx1_Get,"ax",%progbits
 212              		.align	2
 213              		.global	Tx1_Get
 214              		.thumb
 215              		.thumb_func
 217              	Tx1_Get:
 218              	.LFB2:
 149:../Generated_Code/Tx1.c **** 
 150:../Generated_Code/Tx1.c **** /*
 151:../Generated_Code/Tx1.c **** ** ===================================================================
 152:../Generated_Code/Tx1.c **** **     Method      :  Tx1_Get (component RingBuffer)
 153:../Generated_Code/Tx1.c **** **     Description :
 154:../Generated_Code/Tx1.c **** **         Removes an element from the buffer
 155:../Generated_Code/Tx1.c **** **     Parameters  :
 156:../Generated_Code/Tx1.c **** **         NAME            - DESCRIPTION
 157:../Generated_Code/Tx1.c **** **       * elemP           - Pointer to where to store the received
 158:../Generated_Code/Tx1.c **** **                           element
 159:../Generated_Code/Tx1.c **** **     Returns     :
 160:../Generated_Code/Tx1.c **** **         ---             - Error code
 161:../Generated_Code/Tx1.c **** ** ===================================================================
 162:../Generated_Code/Tx1.c **** */
 163:../Generated_Code/Tx1.c **** uint8_t Tx1_Get(Tx1_ElementType *elemP)
 164:../Generated_Code/Tx1.c **** {
 219              		.loc 1 164 0
 220              		.cfi_startproc
 221              		@ args = 0, pretend = 0, frame = 16
 222              		@ frame_needed = 1, uses_anonymous_args = 0
 223              		@ link register save eliminated.
 224 0000 80B4     		push	{r7}
 225              		.cfi_def_cfa_offset 4
 226              		.cfi_offset 7, -4
 227 0002 85B0     		sub	sp, sp, #20
 228              		.cfi_def_cfa_offset 24
 229 0004 00AF     		add	r7, sp, #0
 230              		.cfi_def_cfa_register 7
 231 0006 7860     		str	r0, [r7, #4]
 165:../Generated_Code/Tx1.c ****   uint8_t res = ERR_OK;
 232              		.loc 1 165 0
 233 0008 0023     		movs	r3, #0
 234 000a FB73     		strb	r3, [r7, #15]
 166:../Generated_Code/Tx1.c ****   Tx1_DEFINE_CRITICAL();
 167:../Generated_Code/Tx1.c **** 
 168:../Generated_Code/Tx1.c ****   Tx1_ENTER_CRITICAL();
 235              		.loc 1 168 0
 236              	@ 168 "../Generated_Code/Tx1.c" 1
 237 000c EFF31080 		mrs   r0, PRIMASK     
 238 0010 72B6     		cpsid i               
 239 0012 B873     		strb r0, [r7, #14]   
 240              		
 241              	@ 0 "" 2
 169:../Generated_Code/Tx1.c ****   if (Tx1_inSize==0) {
 242              		.loc 1 169 0
 243              		.thumb
 244 0014 154B     		ldr	r3, .L18
 245 0016 1B88     		ldrh	r3, [r3]
 246 0018 002B     		cmp	r3, #0
 247 001a 02D1     		bne	.L15
 170:../Generated_Code/Tx1.c ****     res = ERR_RXEMPTY;
 248              		.loc 1 170 0
 249 001c 0A23     		movs	r3, #10
 250 001e FB73     		strb	r3, [r7, #15]
 251 0020 19E0     		b	.L16
 252              	.L15:
 171:../Generated_Code/Tx1.c ****   } else {
 172:../Generated_Code/Tx1.c ****     *elemP = Tx1_buffer[Tx1_outIdx];
 253              		.loc 1 172 0
 254 0022 134B     		ldr	r3, .L18+4
 255 0024 1B88     		ldrh	r3, [r3]
 256 0026 134A     		ldr	r2, .L18+8
 257 0028 D25C     		ldrb	r2, [r2, r3]	@ zero_extendqisi2
 258 002a 7B68     		ldr	r3, [r7, #4]
 259 002c 1A70     		strb	r2, [r3]
 173:../Generated_Code/Tx1.c ****     Tx1_inSize--;
 260              		.loc 1 173 0
 261 002e 0F4B     		ldr	r3, .L18
 262 0030 1B88     		ldrh	r3, [r3]
 263 0032 013B     		subs	r3, r3, #1
 264 0034 9AB2     		uxth	r2, r3
 265 0036 0D4B     		ldr	r3, .L18
 266 0038 1A80     		strh	r2, [r3]	@ movhi
 174:../Generated_Code/Tx1.c ****     Tx1_outIdx++;
 267              		.loc 1 174 0
 268 003a 0D4B     		ldr	r3, .L18+4
 269 003c 1B88     		ldrh	r3, [r3]
 270 003e 0133     		adds	r3, r3, #1
 271 0040 9AB2     		uxth	r2, r3
 272 0042 0B4B     		ldr	r3, .L18+4
 273 0044 1A80     		strh	r2, [r3]	@ movhi
 175:../Generated_Code/Tx1.c ****     if (Tx1_outIdx==Tx1_CONFIG_BUF_SIZE) {
 274              		.loc 1 175 0
 275 0046 0A4B     		ldr	r3, .L18+4
 276 0048 1B88     		ldrh	r3, [r3]
 277 004a B3F5807F 		cmp	r3, #256
 278 004e 02D1     		bne	.L16
 176:../Generated_Code/Tx1.c ****       Tx1_outIdx = 0;
 279              		.loc 1 176 0
 280 0050 074B     		ldr	r3, .L18+4
 281 0052 0022     		movs	r2, #0
 282 0054 1A80     		strh	r2, [r3]	@ movhi
 283              	.L16:
 177:../Generated_Code/Tx1.c ****     }
 178:../Generated_Code/Tx1.c ****   }
 179:../Generated_Code/Tx1.c ****   Tx1_EXIT_CRITICAL();
 284              		.loc 1 179 0
 285              	@ 179 "../Generated_Code/Tx1.c" 1
 286 0056 B87B     		ldrb r0, [r7, #14]    
 287 0058 80F31088 		msr PRIMASK,r0        
 288              		
 289              	@ 0 "" 2
 180:../Generated_Code/Tx1.c ****   return res;
 290              		.loc 1 180 0
 291              		.thumb
 292 005c FB7B     		ldrb	r3, [r7, #15]	@ zero_extendqisi2
 181:../Generated_Code/Tx1.c **** }
 293              		.loc 1 181 0
 294 005e 1846     		mov	r0, r3
 295 0060 1437     		adds	r7, r7, #20
 296 0062 BD46     		mov	sp, r7
 297              		@ sp needed
 298 0064 5DF8047B 		ldr	r7, [sp], #4
 299 0068 7047     		bx	lr
 300              	.L19:
 301 006a 00BF     		.align	2
 302              	.L18:
 303 006c 00000000 		.word	Tx1_inSize
 304 0070 00000000 		.word	Tx1_outIdx
 305 0074 00000000 		.word	Tx1_buffer
 306              		.cfi_endproc
 307              	.LFE2:
 309              		.section	.text.Tx1_Getn,"ax",%progbits
 310              		.align	2
 311              		.global	Tx1_Getn
 312              		.thumb
 313              		.thumb_func
 315              	Tx1_Getn:
 316              	.LFB3:
 182:../Generated_Code/Tx1.c **** 
 183:../Generated_Code/Tx1.c **** /*
 184:../Generated_Code/Tx1.c **** ** ===================================================================
 185:../Generated_Code/Tx1.c **** **     Method      :  Tx1_Getn (component RingBuffer)
 186:../Generated_Code/Tx1.c **** **     Description :
 187:../Generated_Code/Tx1.c **** **         Get a number elements into a buffer.
 188:../Generated_Code/Tx1.c **** **     Parameters  :
 189:../Generated_Code/Tx1.c **** **         NAME            - DESCRIPTION
 190:../Generated_Code/Tx1.c **** **       * buf             - Pointer to buffer where to store the
 191:../Generated_Code/Tx1.c **** **                           elements
 192:../Generated_Code/Tx1.c **** **         nof             - number of elements
 193:../Generated_Code/Tx1.c **** **     Returns     :
 194:../Generated_Code/Tx1.c **** **         ---             - Error code
 195:../Generated_Code/Tx1.c **** ** ===================================================================
 196:../Generated_Code/Tx1.c **** */
 197:../Generated_Code/Tx1.c **** uint8_t Tx1_Getn(Tx1_ElementType *buf, Tx1_BufSizeType nof)
 198:../Generated_Code/Tx1.c **** {
 317              		.loc 1 198 0
 318              		.cfi_startproc
 319              		@ args = 0, pretend = 0, frame = 16
 320              		@ frame_needed = 1, uses_anonymous_args = 0
 321 0000 80B5     		push	{r7, lr}
 322              		.cfi_def_cfa_offset 8
 323              		.cfi_offset 7, -8
 324              		.cfi_offset 14, -4
 325 0002 84B0     		sub	sp, sp, #16
 326              		.cfi_def_cfa_offset 24
 327 0004 00AF     		add	r7, sp, #0
 328              		.cfi_def_cfa_register 7
 329 0006 7860     		str	r0, [r7, #4]
 330 0008 0B46     		mov	r3, r1
 331 000a 7B80     		strh	r3, [r7, #2]	@ movhi
 199:../Generated_Code/Tx1.c ****   uint8_t res = ERR_OK;
 332              		.loc 1 199 0
 333 000c 0023     		movs	r3, #0
 334 000e FB73     		strb	r3, [r7, #15]
 200:../Generated_Code/Tx1.c **** 
 201:../Generated_Code/Tx1.c ****   while(nof>0) {
 335              		.loc 1 201 0
 336 0010 0EE0     		b	.L21
 337              	.L24:
 202:../Generated_Code/Tx1.c ****     res = Tx1_Get(buf);
 338              		.loc 1 202 0
 339 0012 7868     		ldr	r0, [r7, #4]
 340 0014 FFF7FEFF 		bl	Tx1_Get
 341 0018 0346     		mov	r3, r0
 342 001a FB73     		strb	r3, [r7, #15]
 203:../Generated_Code/Tx1.c ****     if (res!=ERR_OK) {
 343              		.loc 1 203 0
 344 001c FB7B     		ldrb	r3, [r7, #15]	@ zero_extendqisi2
 345 001e 002B     		cmp	r3, #0
 346 0020 00D0     		beq	.L22
 204:../Generated_Code/Tx1.c ****       break;
 347              		.loc 1 204 0
 348 0022 08E0     		b	.L23
 349              	.L22:
 205:../Generated_Code/Tx1.c ****     }
 206:../Generated_Code/Tx1.c ****     buf++; nof--;
 350              		.loc 1 206 0
 351 0024 7B68     		ldr	r3, [r7, #4]
 352 0026 0133     		adds	r3, r3, #1
 353 0028 7B60     		str	r3, [r7, #4]
 354 002a 7B88     		ldrh	r3, [r7, #2]
 355 002c 013B     		subs	r3, r3, #1
 356 002e 7B80     		strh	r3, [r7, #2]	@ movhi
 357              	.L21:
 201:../Generated_Code/Tx1.c ****   while(nof>0) {
 358              		.loc 1 201 0 discriminator 1
 359 0030 7B88     		ldrh	r3, [r7, #2]
 360 0032 002B     		cmp	r3, #0
 361 0034 EDD1     		bne	.L24
 362              	.L23:
 207:../Generated_Code/Tx1.c ****   }
 208:../Generated_Code/Tx1.c ****   return res;
 363              		.loc 1 208 0
 364 0036 FB7B     		ldrb	r3, [r7, #15]	@ zero_extendqisi2
 209:../Generated_Code/Tx1.c **** }
 365              		.loc 1 209 0
 366 0038 1846     		mov	r0, r3
 367 003a 1037     		adds	r7, r7, #16
 368 003c BD46     		mov	sp, r7
 369              		@ sp needed
 370 003e 80BD     		pop	{r7, pc}
 371              		.cfi_endproc
 372              	.LFE3:
 374              		.section	.text.Tx1_NofElements,"ax",%progbits
 375              		.align	2
 376              		.global	Tx1_NofElements
 377              		.thumb
 378              		.thumb_func
 380              	Tx1_NofElements:
 381              	.LFB4:
 210:../Generated_Code/Tx1.c **** 
 211:../Generated_Code/Tx1.c **** /*
 212:../Generated_Code/Tx1.c **** ** ===================================================================
 213:../Generated_Code/Tx1.c **** **     Method      :  Tx1_NofElements (component RingBuffer)
 214:../Generated_Code/Tx1.c **** **     Description :
 215:../Generated_Code/Tx1.c **** **         Returns the actual number of elements in the buffer.
 216:../Generated_Code/Tx1.c **** **     Parameters  : None
 217:../Generated_Code/Tx1.c **** **     Returns     :
 218:../Generated_Code/Tx1.c **** **         ---             - Number of elements in the buffer.
 219:../Generated_Code/Tx1.c **** ** ===================================================================
 220:../Generated_Code/Tx1.c **** */
 221:../Generated_Code/Tx1.c **** Tx1_BufSizeType Tx1_NofElements(void)
 222:../Generated_Code/Tx1.c **** {
 382              		.loc 1 222 0
 383              		.cfi_startproc
 384              		@ args = 0, pretend = 0, frame = 0
 385              		@ frame_needed = 1, uses_anonymous_args = 0
 386              		@ link register save eliminated.
 387 0000 80B4     		push	{r7}
 388              		.cfi_def_cfa_offset 4
 389              		.cfi_offset 7, -4
 390 0002 00AF     		add	r7, sp, #0
 391              		.cfi_def_cfa_register 7
 223:../Generated_Code/Tx1.c ****   return Tx1_inSize;
 392              		.loc 1 223 0
 393 0004 034B     		ldr	r3, .L28
 394 0006 1B88     		ldrh	r3, [r3]
 224:../Generated_Code/Tx1.c **** }
 395              		.loc 1 224 0
 396 0008 1846     		mov	r0, r3
 397 000a BD46     		mov	sp, r7
 398              		@ sp needed
 399 000c 5DF8047B 		ldr	r7, [sp], #4
 400 0010 7047     		bx	lr
 401              	.L29:
 402 0012 00BF     		.align	2
 403              	.L28:
 404 0014 00000000 		.word	Tx1_inSize
 405              		.cfi_endproc
 406              	.LFE4:
 408              		.section	.text.Tx1_NofFreeElements,"ax",%progbits
 409              		.align	2
 410              		.global	Tx1_NofFreeElements
 411              		.thumb
 412              		.thumb_func
 414              	Tx1_NofFreeElements:
 415              	.LFB5:
 225:../Generated_Code/Tx1.c **** 
 226:../Generated_Code/Tx1.c **** /*
 227:../Generated_Code/Tx1.c **** ** ===================================================================
 228:../Generated_Code/Tx1.c **** **     Method      :  Tx1_NofFreeElements (component RingBuffer)
 229:../Generated_Code/Tx1.c **** **     Description :
 230:../Generated_Code/Tx1.c **** **         Returns the actual number of free elements/space in the
 231:../Generated_Code/Tx1.c **** **         buffer.
 232:../Generated_Code/Tx1.c **** **     Parameters  : None
 233:../Generated_Code/Tx1.c **** **     Returns     :
 234:../Generated_Code/Tx1.c **** **         ---             - Number of elements in the buffer.
 235:../Generated_Code/Tx1.c **** ** ===================================================================
 236:../Generated_Code/Tx1.c **** */
 237:../Generated_Code/Tx1.c **** Tx1_BufSizeType Tx1_NofFreeElements(void)
 238:../Generated_Code/Tx1.c **** {
 416              		.loc 1 238 0
 417              		.cfi_startproc
 418              		@ args = 0, pretend = 0, frame = 0
 419              		@ frame_needed = 1, uses_anonymous_args = 0
 420              		@ link register save eliminated.
 421 0000 80B4     		push	{r7}
 422              		.cfi_def_cfa_offset 4
 423              		.cfi_offset 7, -4
 424 0002 00AF     		add	r7, sp, #0
 425              		.cfi_def_cfa_register 7
 239:../Generated_Code/Tx1.c ****   return (Tx1_BufSizeType)(Tx1_CONFIG_BUF_SIZE-Tx1_inSize);
 426              		.loc 1 239 0
 427 0004 044B     		ldr	r3, .L32
 428 0006 1B88     		ldrh	r3, [r3]
 429 0008 C3F58073 		rsb	r3, r3, #256
 430 000c 9BB2     		uxth	r3, r3
 240:../Generated_Code/Tx1.c **** }
 431              		.loc 1 240 0
 432 000e 1846     		mov	r0, r3
 433 0010 BD46     		mov	sp, r7
 434              		@ sp needed
 435 0012 5DF8047B 		ldr	r7, [sp], #4
 436 0016 7047     		bx	lr
 437              	.L33:
 438              		.align	2
 439              	.L32:
 440 0018 00000000 		.word	Tx1_inSize
 441              		.cfi_endproc
 442              	.LFE5:
 444              		.section	.text.Tx1_Init,"ax",%progbits
 445              		.align	2
 446              		.global	Tx1_Init
 447              		.thumb
 448              		.thumb_func
 450              	Tx1_Init:
 451              	.LFB6:
 241:../Generated_Code/Tx1.c **** 
 242:../Generated_Code/Tx1.c **** /*
 243:../Generated_Code/Tx1.c **** ** ===================================================================
 244:../Generated_Code/Tx1.c **** **     Method      :  Tx1_Init (component RingBuffer)
 245:../Generated_Code/Tx1.c **** **     Description :
 246:../Generated_Code/Tx1.c **** **         Initializes the data structure
 247:../Generated_Code/Tx1.c **** **     Parameters  : None
 248:../Generated_Code/Tx1.c **** **     Returns     : Nothing
 249:../Generated_Code/Tx1.c **** ** ===================================================================
 250:../Generated_Code/Tx1.c **** */
 251:../Generated_Code/Tx1.c **** void Tx1_Init(void)
 252:../Generated_Code/Tx1.c **** {
 452              		.loc 1 252 0
 453              		.cfi_startproc
 454              		@ args = 0, pretend = 0, frame = 0
 455              		@ frame_needed = 1, uses_anonymous_args = 0
 456              		@ link register save eliminated.
 457 0000 80B4     		push	{r7}
 458              		.cfi_def_cfa_offset 4
 459              		.cfi_offset 7, -4
 460 0002 00AF     		add	r7, sp, #0
 461              		.cfi_def_cfa_register 7
 253:../Generated_Code/Tx1.c ****   Tx1_inIdx = 0;
 462              		.loc 1 253 0
 463 0004 064B     		ldr	r3, .L35
 464 0006 0022     		movs	r2, #0
 465 0008 1A80     		strh	r2, [r3]	@ movhi
 254:../Generated_Code/Tx1.c ****   Tx1_outIdx = 0;
 466              		.loc 1 254 0
 467 000a 064B     		ldr	r3, .L35+4
 468 000c 0022     		movs	r2, #0
 469 000e 1A80     		strh	r2, [r3]	@ movhi
 255:../Generated_Code/Tx1.c ****   Tx1_inSize = 0;
 470              		.loc 1 255 0
 471 0010 054B     		ldr	r3, .L35+8
 472 0012 0022     		movs	r2, #0
 473 0014 1A80     		strh	r2, [r3]	@ movhi
 256:../Generated_Code/Tx1.c **** }
 474              		.loc 1 256 0
 475 0016 BD46     		mov	sp, r7
 476              		@ sp needed
 477 0018 5DF8047B 		ldr	r7, [sp], #4
 478 001c 7047     		bx	lr
 479              	.L36:
 480 001e 00BF     		.align	2
 481              	.L35:
 482 0020 00000000 		.word	Tx1_inIdx
 483 0024 00000000 		.word	Tx1_outIdx
 484 0028 00000000 		.word	Tx1_inSize
 485              		.cfi_endproc
 486              	.LFE6:
 488              		.section	.text.Tx1_Clear,"ax",%progbits
 489              		.align	2
 490              		.global	Tx1_Clear
 491              		.thumb
 492              		.thumb_func
 494              	Tx1_Clear:
 495              	.LFB7:
 257:../Generated_Code/Tx1.c **** 
 258:../Generated_Code/Tx1.c **** /*
 259:../Generated_Code/Tx1.c **** ** ===================================================================
 260:../Generated_Code/Tx1.c **** **     Method      :  Tx1_Clear (component RingBuffer)
 261:../Generated_Code/Tx1.c **** **     Description :
 262:../Generated_Code/Tx1.c **** **         Clear (empty) the ring buffer.
 263:../Generated_Code/Tx1.c **** **     Parameters  : None
 264:../Generated_Code/Tx1.c **** **     Returns     : Nothing
 265:../Generated_Code/Tx1.c **** ** ===================================================================
 266:../Generated_Code/Tx1.c **** */
 267:../Generated_Code/Tx1.c **** void Tx1_Clear(void)
 268:../Generated_Code/Tx1.c **** {
 496              		.loc 1 268 0
 497              		.cfi_startproc
 498              		@ args = 0, pretend = 0, frame = 8
 499              		@ frame_needed = 1, uses_anonymous_args = 0
 500 0000 80B5     		push	{r7, lr}
 501              		.cfi_def_cfa_offset 8
 502              		.cfi_offset 7, -8
 503              		.cfi_offset 14, -4
 504 0002 82B0     		sub	sp, sp, #8
 505              		.cfi_def_cfa_offset 16
 506 0004 00AF     		add	r7, sp, #0
 507              		.cfi_def_cfa_register 7
 269:../Generated_Code/Tx1.c ****   Tx1_DEFINE_CRITICAL();
 270:../Generated_Code/Tx1.c **** 
 271:../Generated_Code/Tx1.c ****   Tx1_ENTER_CRITICAL();
 508              		.loc 1 271 0
 509              	@ 271 "../Generated_Code/Tx1.c" 1
 510 0006 EFF31080 		mrs   r0, PRIMASK     
 511 000a 72B6     		cpsid i               
 512 000c F871     		strb r0, [r7, #7]   
 513              		
 514              	@ 0 "" 2
 272:../Generated_Code/Tx1.c ****   Tx1_Init();
 515              		.loc 1 272 0
 516              		.thumb
 517 000e FFF7FEFF 		bl	Tx1_Init
 273:../Generated_Code/Tx1.c ****   Tx1_EXIT_CRITICAL();
 518              		.loc 1 273 0
 519              	@ 273 "../Generated_Code/Tx1.c" 1
 520 0012 F879     		ldrb r0, [r7, #7]    
 521 0014 80F31088 		msr PRIMASK,r0        
 522              		
 523              	@ 0 "" 2
 274:../Generated_Code/Tx1.c **** }
 524              		.loc 1 274 0
 525              		.thumb
 526 0018 0837     		adds	r7, r7, #8
 527 001a BD46     		mov	sp, r7
 528              		@ sp needed
 529 001c 80BD     		pop	{r7, pc}
 530              		.cfi_endproc
 531              	.LFE7:
 533 001e 00BF     		.section	.text.Tx1_Peek,"ax",%progbits
 534              		.align	2
 535              		.global	Tx1_Peek
 536              		.thumb
 537              		.thumb_func
 539              	Tx1_Peek:
 540              	.LFB8:
 275:../Generated_Code/Tx1.c **** 
 276:../Generated_Code/Tx1.c **** /*
 277:../Generated_Code/Tx1.c **** ** ===================================================================
 278:../Generated_Code/Tx1.c **** **     Method      :  Tx1_Peek (component RingBuffer)
 279:../Generated_Code/Tx1.c **** **     Description :
 280:../Generated_Code/Tx1.c **** **         Returns an element of the buffer without removiing it.
 281:../Generated_Code/Tx1.c **** **     Parameters  :
 282:../Generated_Code/Tx1.c **** **         NAME            - DESCRIPTION
 283:../Generated_Code/Tx1.c **** **         index           - Index of element. 0 peeks the top
 284:../Generated_Code/Tx1.c **** **                           element, 1 the next, and so on.
 285:../Generated_Code/Tx1.c **** **       * elemP           - Pointer to where to store the received
 286:../Generated_Code/Tx1.c **** **                           element
 287:../Generated_Code/Tx1.c **** **     Returns     :
 288:../Generated_Code/Tx1.c **** **         ---             - Error code
 289:../Generated_Code/Tx1.c **** ** ===================================================================
 290:../Generated_Code/Tx1.c **** */
 291:../Generated_Code/Tx1.c **** uint8_t Tx1_Peek(Tx1_BufSizeType index, Tx1_ElementType *elemP)
 292:../Generated_Code/Tx1.c **** {
 541              		.loc 1 292 0
 542              		.cfi_startproc
 543              		@ args = 0, pretend = 0, frame = 24
 544              		@ frame_needed = 1, uses_anonymous_args = 0
 545              		@ link register save eliminated.
 546 0000 80B4     		push	{r7}
 547              		.cfi_def_cfa_offset 4
 548              		.cfi_offset 7, -4
 549 0002 87B0     		sub	sp, sp, #28
 550              		.cfi_def_cfa_offset 32
 551 0004 00AF     		add	r7, sp, #0
 552              		.cfi_def_cfa_register 7
 553 0006 0346     		mov	r3, r0
 554 0008 3960     		str	r1, [r7]
 555 000a FB80     		strh	r3, [r7, #6]	@ movhi
 293:../Generated_Code/Tx1.c ****   uint8_t res = ERR_OK;
 556              		.loc 1 293 0
 557 000c 0023     		movs	r3, #0
 558 000e FB75     		strb	r3, [r7, #23]
 294:../Generated_Code/Tx1.c ****   int idx; /* index inside ring buffer */
 295:../Generated_Code/Tx1.c ****   Tx1_DEFINE_CRITICAL();
 296:../Generated_Code/Tx1.c **** 
 297:../Generated_Code/Tx1.c ****   Tx1_ENTER_CRITICAL();
 559              		.loc 1 297 0
 560              	@ 297 "../Generated_Code/Tx1.c" 1
 561 0010 EFF31080 		mrs   r0, PRIMASK     
 562 0014 72B6     		cpsid i               
 563 0016 F873     		strb r0, [r7, #15]   
 564              		
 565              	@ 0 "" 2
 298:../Generated_Code/Tx1.c ****   if (index>=Tx1_CONFIG_BUF_SIZE) {
 566              		.loc 1 298 0
 567              		.thumb
 568 0018 FB88     		ldrh	r3, [r7, #6]
 569 001a FF2B     		cmp	r3, #255
 570 001c 02D9     		bls	.L39
 299:../Generated_Code/Tx1.c ****     res = ERR_OVERFLOW; /* asking for an element outside of ring buffer size */
 571              		.loc 1 299 0
 572 001e 0423     		movs	r3, #4
 573 0020 FB75     		strb	r3, [r7, #23]
 574 0022 14E0     		b	.L40
 575              	.L39:
 300:../Generated_Code/Tx1.c ****   } else if (index<Tx1_inSize) {
 576              		.loc 1 300 0
 577 0024 0F4B     		ldr	r3, .L43
 578 0026 1B88     		ldrh	r3, [r3]
 579 0028 FA88     		ldrh	r2, [r7, #6]
 580 002a 9A42     		cmp	r2, r3
 581 002c 0DD2     		bcs	.L41
 301:../Generated_Code/Tx1.c ****     idx = (Tx1_outIdx+index)%Tx1_CONFIG_BUF_SIZE;
 582              		.loc 1 301 0
 583 002e 0E4B     		ldr	r3, .L43+4
 584 0030 1B88     		ldrh	r3, [r3]
 585 0032 1A46     		mov	r2, r3
 586 0034 FB88     		ldrh	r3, [r7, #6]
 587 0036 1344     		add	r3, r3, r2
 588 0038 DBB2     		uxtb	r3, r3
 589 003a 3B61     		str	r3, [r7, #16]
 302:../Generated_Code/Tx1.c ****     *elemP = Tx1_buffer[idx];
 590              		.loc 1 302 0
 591 003c 0B4A     		ldr	r2, .L43+8
 592 003e 3B69     		ldr	r3, [r7, #16]
 593 0040 1344     		add	r3, r3, r2
 594 0042 1A78     		ldrb	r2, [r3]	@ zero_extendqisi2
 595 0044 3B68     		ldr	r3, [r7]
 596 0046 1A70     		strb	r2, [r3]
 597 0048 01E0     		b	.L40
 598              	.L41:
 303:../Generated_Code/Tx1.c ****   } else { /* asking for an element which does not exist */
 304:../Generated_Code/Tx1.c ****     res = ERR_RXEMPTY;
 599              		.loc 1 304 0
 600 004a 0A23     		movs	r3, #10
 601 004c FB75     		strb	r3, [r7, #23]
 602              	.L40:
 305:../Generated_Code/Tx1.c ****   }
 306:../Generated_Code/Tx1.c ****   Tx1_EXIT_CRITICAL();
 603              		.loc 1 306 0
 604              	@ 306 "../Generated_Code/Tx1.c" 1
 605 004e F87B     		ldrb r0, [r7, #15]    
 606 0050 80F31088 		msr PRIMASK,r0        
 607              		
 608              	@ 0 "" 2
 307:../Generated_Code/Tx1.c ****   return res;
 609              		.loc 1 307 0
 610              		.thumb
 611 0054 FB7D     		ldrb	r3, [r7, #23]	@ zero_extendqisi2
 308:../Generated_Code/Tx1.c **** }
 612              		.loc 1 308 0
 613 0056 1846     		mov	r0, r3
 614 0058 1C37     		adds	r7, r7, #28
 615 005a BD46     		mov	sp, r7
 616              		@ sp needed
 617 005c 5DF8047B 		ldr	r7, [sp], #4
 618 0060 7047     		bx	lr
 619              	.L44:
 620 0062 00BF     		.align	2
 621              	.L43:
 622 0064 00000000 		.word	Tx1_inSize
 623 0068 00000000 		.word	Tx1_outIdx
 624 006c 00000000 		.word	Tx1_buffer
 625              		.cfi_endproc
 626              	.LFE8:
 628              		.section	.text.Tx1_Compare,"ax",%progbits
 629              		.align	2
 630              		.global	Tx1_Compare
 631              		.thumb
 632              		.thumb_func
 634              	Tx1_Compare:
 635              	.LFB9:
 309:../Generated_Code/Tx1.c **** 
 310:../Generated_Code/Tx1.c **** /*
 311:../Generated_Code/Tx1.c **** ** ===================================================================
 312:../Generated_Code/Tx1.c **** **     Method      :  Tx1_Compare (component RingBuffer)
 313:../Generated_Code/Tx1.c **** **     Description :
 314:../Generated_Code/Tx1.c **** **         Compares the elements in the buffer.
 315:../Generated_Code/Tx1.c **** **     Parameters  :
 316:../Generated_Code/Tx1.c **** **         NAME            - DESCRIPTION
 317:../Generated_Code/Tx1.c **** **         index           - Index of element. 0 peeks the top
 318:../Generated_Code/Tx1.c **** **                           element, 1 the next, and so on.
 319:../Generated_Code/Tx1.c **** **       * elemP           - Pointer to elements to compare with
 320:../Generated_Code/Tx1.c **** **         nof             - number of elements to compare
 321:../Generated_Code/Tx1.c **** **     Returns     :
 322:../Generated_Code/Tx1.c **** **         ---             - zero if elements are the same, -1 otherwise
 323:../Generated_Code/Tx1.c **** ** ===================================================================
 324:../Generated_Code/Tx1.c **** */
 325:../Generated_Code/Tx1.c **** uint8_t Tx1_Compare(Tx1_BufSizeType index, Tx1_ElementType *elemP, Tx1_BufSizeType nof)
 326:../Generated_Code/Tx1.c **** {
 636              		.loc 1 326 0
 637              		.cfi_startproc
 638              		@ args = 0, pretend = 0, frame = 16
 639              		@ frame_needed = 1, uses_anonymous_args = 0
 640 0000 80B5     		push	{r7, lr}
 641              		.cfi_def_cfa_offset 8
 642              		.cfi_offset 7, -8
 643              		.cfi_offset 14, -4
 644 0002 84B0     		sub	sp, sp, #16
 645              		.cfi_def_cfa_offset 24
 646 0004 00AF     		add	r7, sp, #0
 647              		.cfi_def_cfa_register 7
 648 0006 3960     		str	r1, [r7]
 649 0008 1346     		mov	r3, r2
 650 000a 0246     		mov	r2, r0	@ movhi
 651 000c FA80     		strh	r2, [r7, #6]	@ movhi
 652 000e BB80     		strh	r3, [r7, #4]	@ movhi
 327:../Generated_Code/Tx1.c ****   uint8_t cmpResult = 0;
 653              		.loc 1 327 0
 654 0010 0023     		movs	r3, #0
 655 0012 FB73     		strb	r3, [r7, #15]
 328:../Generated_Code/Tx1.c ****   uint8_t res;
 329:../Generated_Code/Tx1.c ****   Tx1_ElementType val;
 330:../Generated_Code/Tx1.c **** 
 331:../Generated_Code/Tx1.c ****   while(nof>0) {
 656              		.loc 1 331 0
 657 0014 1FE0     		b	.L46
 658              	.L50:
 332:../Generated_Code/Tx1.c ****     res = Tx1_Peek(index, &val);
 659              		.loc 1 332 0
 660 0016 FA88     		ldrh	r2, [r7, #6]
 661 0018 07F10D03 		add	r3, r7, #13
 662 001c 1046     		mov	r0, r2
 663 001e 1946     		mov	r1, r3
 664 0020 FFF7FEFF 		bl	Tx1_Peek
 665 0024 0346     		mov	r3, r0
 666 0026 BB73     		strb	r3, [r7, #14]
 333:../Generated_Code/Tx1.c ****     if (res!=ERR_OK) { /* general failure? */
 667              		.loc 1 333 0
 668 0028 BB7B     		ldrb	r3, [r7, #14]	@ zero_extendqisi2
 669 002a 002B     		cmp	r3, #0
 670 002c 02D0     		beq	.L47
 334:../Generated_Code/Tx1.c ****       cmpResult = (uint8_t)-1; /* no match */
 671              		.loc 1 334 0
 672 002e FF23     		movs	r3, #255
 673 0030 FB73     		strb	r3, [r7, #15]
 335:../Generated_Code/Tx1.c ****       break;
 674              		.loc 1 335 0
 675 0032 13E0     		b	.L48
 676              	.L47:
 336:../Generated_Code/Tx1.c ****     }
 337:../Generated_Code/Tx1.c ****     if (val!=*elemP) { /* mismatch */
 677              		.loc 1 337 0
 678 0034 3B68     		ldr	r3, [r7]
 679 0036 1A78     		ldrb	r2, [r3]	@ zero_extendqisi2
 680 0038 7B7B     		ldrb	r3, [r7, #13]	@ zero_extendqisi2
 681 003a 9A42     		cmp	r2, r3
 682 003c 02D0     		beq	.L49
 338:../Generated_Code/Tx1.c ****       cmpResult = (uint8_t)-1; /* no match */
 683              		.loc 1 338 0
 684 003e FF23     		movs	r3, #255
 685 0040 FB73     		strb	r3, [r7, #15]
 339:../Generated_Code/Tx1.c ****       break;
 686              		.loc 1 339 0
 687 0042 0BE0     		b	.L48
 688              	.L49:
 340:../Generated_Code/Tx1.c ****     }
 341:../Generated_Code/Tx1.c ****     elemP++; index++; nof--;
 689              		.loc 1 341 0
 690 0044 3B68     		ldr	r3, [r7]
 691 0046 0133     		adds	r3, r3, #1
 692 0048 3B60     		str	r3, [r7]
 693 004a FB88     		ldrh	r3, [r7, #6]
 694 004c 0133     		adds	r3, r3, #1
 695 004e FB80     		strh	r3, [r7, #6]	@ movhi
 696 0050 BB88     		ldrh	r3, [r7, #4]
 697 0052 013B     		subs	r3, r3, #1
 698 0054 BB80     		strh	r3, [r7, #4]	@ movhi
 699              	.L46:
 331:../Generated_Code/Tx1.c ****   while(nof>0) {
 700              		.loc 1 331 0 discriminator 1
 701 0056 BB88     		ldrh	r3, [r7, #4]
 702 0058 002B     		cmp	r3, #0
 703 005a DCD1     		bne	.L50
 704              	.L48:
 342:../Generated_Code/Tx1.c ****   }
 343:../Generated_Code/Tx1.c **** 
 344:../Generated_Code/Tx1.c ****   return cmpResult;
 705              		.loc 1 344 0
 706 005c FB7B     		ldrb	r3, [r7, #15]	@ zero_extendqisi2
 345:../Generated_Code/Tx1.c **** }
 707              		.loc 1 345 0
 708 005e 1846     		mov	r0, r3
 709 0060 1037     		adds	r7, r7, #16
 710 0062 BD46     		mov	sp, r7
 711              		@ sp needed
 712 0064 80BD     		pop	{r7, pc}
 713              		.cfi_endproc
 714              	.LFE9:
 716 0066 00BF     		.section	.text.Tx1_Delete,"ax",%progbits
 717              		.align	2
 718              		.global	Tx1_Delete
 719              		.thumb
 720              		.thumb_func
 722              	Tx1_Delete:
 723              	.LFB10:
 346:../Generated_Code/Tx1.c **** 
 347:../Generated_Code/Tx1.c **** /*
 348:../Generated_Code/Tx1.c **** ** ===================================================================
 349:../Generated_Code/Tx1.c **** **     Method      :  Tx1_Deinit (component RingBuffer)
 350:../Generated_Code/Tx1.c **** **     Description :
 351:../Generated_Code/Tx1.c **** **         Driver de-initialization
 352:../Generated_Code/Tx1.c **** **     Parameters  : None
 353:../Generated_Code/Tx1.c **** **     Returns     : Nothing
 354:../Generated_Code/Tx1.c **** ** ===================================================================
 355:../Generated_Code/Tx1.c **** */
 356:../Generated_Code/Tx1.c **** /**
 357:../Generated_Code/Tx1.c **** void Tx1_Deinit(void)
 358:../Generated_Code/Tx1.c **** {
 359:../Generated_Code/Tx1.c ****   ** Function is implemented as macro in the header file
 360:../Generated_Code/Tx1.c **** }
 361:../Generated_Code/Tx1.c **** */
 362:../Generated_Code/Tx1.c **** /*
 363:../Generated_Code/Tx1.c **** ** ===================================================================
 364:../Generated_Code/Tx1.c **** **     Method      :  Tx1_Delete (component RingBuffer)
 365:../Generated_Code/Tx1.c **** **     Description :
 366:../Generated_Code/Tx1.c **** **         Removes an element from the buffer
 367:../Generated_Code/Tx1.c **** **     Parameters  : None
 368:../Generated_Code/Tx1.c **** **     Returns     :
 369:../Generated_Code/Tx1.c **** **         ---             - Error code
 370:../Generated_Code/Tx1.c **** ** ===================================================================
 371:../Generated_Code/Tx1.c **** */
 372:../Generated_Code/Tx1.c **** uint8_t Tx1_Delete(void)
 373:../Generated_Code/Tx1.c **** {
 724              		.loc 1 373 0
 725              		.cfi_startproc
 726              		@ args = 0, pretend = 0, frame = 8
 727              		@ frame_needed = 1, uses_anonymous_args = 0
 728              		@ link register save eliminated.
 729 0000 80B4     		push	{r7}
 730              		.cfi_def_cfa_offset 4
 731              		.cfi_offset 7, -4
 732 0002 83B0     		sub	sp, sp, #12
 733              		.cfi_def_cfa_offset 16
 734 0004 00AF     		add	r7, sp, #0
 735              		.cfi_def_cfa_register 7
 374:../Generated_Code/Tx1.c ****   uint8_t res = ERR_OK;
 736              		.loc 1 374 0
 737 0006 0023     		movs	r3, #0
 738 0008 FB71     		strb	r3, [r7, #7]
 375:../Generated_Code/Tx1.c ****   Tx1_DEFINE_CRITICAL();
 376:../Generated_Code/Tx1.c **** 
 377:../Generated_Code/Tx1.c ****   Tx1_ENTER_CRITICAL();
 739              		.loc 1 377 0
 740              	@ 377 "../Generated_Code/Tx1.c" 1
 741 000a EFF31080 		mrs   r0, PRIMASK     
 742 000e 72B6     		cpsid i               
 743 0010 B871     		strb r0, [r7, #6]   
 744              		
 745              	@ 0 "" 2
 378:../Generated_Code/Tx1.c ****   if (Tx1_inSize==0) {
 746              		.loc 1 378 0
 747              		.thumb
 748 0012 124B     		ldr	r3, .L56
 749 0014 1B88     		ldrh	r3, [r3]
 750 0016 002B     		cmp	r3, #0
 751 0018 02D1     		bne	.L53
 379:../Generated_Code/Tx1.c ****     res = ERR_RXEMPTY;
 752              		.loc 1 379 0
 753 001a 0A23     		movs	r3, #10
 754 001c FB71     		strb	r3, [r7, #7]
 755 001e 13E0     		b	.L54
 756              	.L53:
 380:../Generated_Code/Tx1.c ****   } else {
 381:../Generated_Code/Tx1.c ****     Tx1_inSize--;
 757              		.loc 1 381 0
 758 0020 0E4B     		ldr	r3, .L56
 759 0022 1B88     		ldrh	r3, [r3]
 760 0024 013B     		subs	r3, r3, #1
 761 0026 9AB2     		uxth	r2, r3
 762 0028 0C4B     		ldr	r3, .L56
 763 002a 1A80     		strh	r2, [r3]	@ movhi
 382:../Generated_Code/Tx1.c ****     Tx1_outIdx++;
 764              		.loc 1 382 0
 765 002c 0C4B     		ldr	r3, .L56+4
 766 002e 1B88     		ldrh	r3, [r3]
 767 0030 0133     		adds	r3, r3, #1
 768 0032 9AB2     		uxth	r2, r3
 769 0034 0A4B     		ldr	r3, .L56+4
 770 0036 1A80     		strh	r2, [r3]	@ movhi
 383:../Generated_Code/Tx1.c ****     if (Tx1_outIdx==Tx1_CONFIG_BUF_SIZE) {
 771              		.loc 1 383 0
 772 0038 094B     		ldr	r3, .L56+4
 773 003a 1B88     		ldrh	r3, [r3]
 774 003c B3F5807F 		cmp	r3, #256
 775 0040 02D1     		bne	.L54
 384:../Generated_Code/Tx1.c ****       Tx1_outIdx = 0;
 776              		.loc 1 384 0
 777 0042 074B     		ldr	r3, .L56+4
 778 0044 0022     		movs	r2, #0
 779 0046 1A80     		strh	r2, [r3]	@ movhi
 780              	.L54:
 385:../Generated_Code/Tx1.c ****     }
 386:../Generated_Code/Tx1.c ****   }
 387:../Generated_Code/Tx1.c ****   Tx1_EXIT_CRITICAL();
 781              		.loc 1 387 0
 782              	@ 387 "../Generated_Code/Tx1.c" 1
 783 0048 B879     		ldrb r0, [r7, #6]    
 784 004a 80F31088 		msr PRIMASK,r0        
 785              		
 786              	@ 0 "" 2
 388:../Generated_Code/Tx1.c ****   return res;
 787              		.loc 1 388 0
 788              		.thumb
 789 004e FB79     		ldrb	r3, [r7, #7]	@ zero_extendqisi2
 389:../Generated_Code/Tx1.c **** }
 790              		.loc 1 389 0
 791 0050 1846     		mov	r0, r3
 792 0052 0C37     		adds	r7, r7, #12
 793 0054 BD46     		mov	sp, r7
 794              		@ sp needed
 795 0056 5DF8047B 		ldr	r7, [sp], #4
 796 005a 7047     		bx	lr
 797              	.L57:
 798              		.align	2
 799              	.L56:
 800 005c 00000000 		.word	Tx1_inSize
 801 0060 00000000 		.word	Tx1_outIdx
 802              		.cfi_endproc
 803              	.LFE10:
 805              		.section	.text.Tx1_Update,"ax",%progbits
 806              		.align	2
 807              		.global	Tx1_Update
 808              		.thumb
 809              		.thumb_func
 811              	Tx1_Update:
 812              	.LFB11:
 390:../Generated_Code/Tx1.c **** 
 391:../Generated_Code/Tx1.c **** /*
 392:../Generated_Code/Tx1.c **** ** ===================================================================
 393:../Generated_Code/Tx1.c **** **     Method      :  Tx1_Update (component RingBuffer)
 394:../Generated_Code/Tx1.c **** **     Description :
 395:../Generated_Code/Tx1.c **** **         Updates the data of an element.
 396:../Generated_Code/Tx1.c **** **     Parameters  :
 397:../Generated_Code/Tx1.c **** **         NAME            - DESCRIPTION
 398:../Generated_Code/Tx1.c **** **         index           - Index of element. 0 peeks the top
 399:../Generated_Code/Tx1.c **** **                           element, 1 the next, and so on.
 400:../Generated_Code/Tx1.c **** **       * elemP           - Pointer to where to store the received
 401:../Generated_Code/Tx1.c **** **                           element
 402:../Generated_Code/Tx1.c **** **     Returns     :
 403:../Generated_Code/Tx1.c **** **         ---             - Error code
 404:../Generated_Code/Tx1.c **** ** ===================================================================
 405:../Generated_Code/Tx1.c **** */
 406:../Generated_Code/Tx1.c **** uint8_t Tx1_Update(Tx1_BufSizeType index, Tx1_ElementType *elemP)
 407:../Generated_Code/Tx1.c **** {
 813              		.loc 1 407 0
 814              		.cfi_startproc
 815              		@ args = 0, pretend = 0, frame = 24
 816              		@ frame_needed = 1, uses_anonymous_args = 0
 817              		@ link register save eliminated.
 818 0000 80B4     		push	{r7}
 819              		.cfi_def_cfa_offset 4
 820              		.cfi_offset 7, -4
 821 0002 87B0     		sub	sp, sp, #28
 822              		.cfi_def_cfa_offset 32
 823 0004 00AF     		add	r7, sp, #0
 824              		.cfi_def_cfa_register 7
 825 0006 0346     		mov	r3, r0
 826 0008 3960     		str	r1, [r7]
 827 000a FB80     		strh	r3, [r7, #6]	@ movhi
 408:../Generated_Code/Tx1.c ****   uint8_t res = ERR_OK;
 828              		.loc 1 408 0
 829 000c 0023     		movs	r3, #0
 830 000e FB75     		strb	r3, [r7, #23]
 409:../Generated_Code/Tx1.c ****   int idx; /* index inside ring buffer */
 410:../Generated_Code/Tx1.c ****   Tx1_DEFINE_CRITICAL();
 411:../Generated_Code/Tx1.c **** 
 412:../Generated_Code/Tx1.c ****   Tx1_ENTER_CRITICAL();
 831              		.loc 1 412 0
 832              	@ 412 "../Generated_Code/Tx1.c" 1
 833 0010 EFF31080 		mrs   r0, PRIMASK     
 834 0014 72B6     		cpsid i               
 835 0016 F873     		strb r0, [r7, #15]   
 836              		
 837              	@ 0 "" 2
 413:../Generated_Code/Tx1.c ****   if (index>=Tx1_CONFIG_BUF_SIZE) {
 838              		.loc 1 413 0
 839              		.thumb
 840 0018 FB88     		ldrh	r3, [r7, #6]
 841 001a FF2B     		cmp	r3, #255
 842 001c 02D9     		bls	.L59
 414:../Generated_Code/Tx1.c ****     res = ERR_OVERFLOW; /* asking for an element outside of ring buffer size */
 843              		.loc 1 414 0
 844 001e 0423     		movs	r3, #4
 845 0020 FB75     		strb	r3, [r7, #23]
 846 0022 14E0     		b	.L60
 847              	.L59:
 415:../Generated_Code/Tx1.c ****   } else if (index<Tx1_inSize) {
 848              		.loc 1 415 0
 849 0024 0F4B     		ldr	r3, .L63
 850 0026 1B88     		ldrh	r3, [r3]
 851 0028 FA88     		ldrh	r2, [r7, #6]
 852 002a 9A42     		cmp	r2, r3
 853 002c 0DD2     		bcs	.L61
 416:../Generated_Code/Tx1.c ****     idx = (Tx1_outIdx+index)%Tx1_CONFIG_BUF_SIZE;
 854              		.loc 1 416 0
 855 002e 0E4B     		ldr	r3, .L63+4
 856 0030 1B88     		ldrh	r3, [r3]
 857 0032 1A46     		mov	r2, r3
 858 0034 FB88     		ldrh	r3, [r7, #6]
 859 0036 1344     		add	r3, r3, r2
 860 0038 DBB2     		uxtb	r3, r3
 861 003a 3B61     		str	r3, [r7, #16]
 417:../Generated_Code/Tx1.c ****     Tx1_buffer[idx] = *elemP; /* replace element */
 862              		.loc 1 417 0
 863 003c 3B68     		ldr	r3, [r7]
 864 003e 1A78     		ldrb	r2, [r3]	@ zero_extendqisi2
 865 0040 0A49     		ldr	r1, .L63+8
 866 0042 3B69     		ldr	r3, [r7, #16]
 867 0044 0B44     		add	r3, r3, r1
 868 0046 1A70     		strb	r2, [r3]
 869 0048 01E0     		b	.L60
 870              	.L61:
 418:../Generated_Code/Tx1.c ****   } else { /* asking for an element which does not exist */
 419:../Generated_Code/Tx1.c ****     res = ERR_RXEMPTY;
 871              		.loc 1 419 0
 872 004a 0A23     		movs	r3, #10
 873 004c FB75     		strb	r3, [r7, #23]
 874              	.L60:
 420:../Generated_Code/Tx1.c ****   }
 421:../Generated_Code/Tx1.c ****   Tx1_EXIT_CRITICAL();
 875              		.loc 1 421 0
 876              	@ 421 "../Generated_Code/Tx1.c" 1
 877 004e F87B     		ldrb r0, [r7, #15]    
 878 0050 80F31088 		msr PRIMASK,r0        
 879              		
 880              	@ 0 "" 2
 422:../Generated_Code/Tx1.c ****   return res;
 881              		.loc 1 422 0
 882              		.thumb
 883 0054 FB7D     		ldrb	r3, [r7, #23]	@ zero_extendqisi2
 423:../Generated_Code/Tx1.c **** }
 884              		.loc 1 423 0
 885 0056 1846     		mov	r0, r3
 886 0058 1C37     		adds	r7, r7, #28
 887 005a BD46     		mov	sp, r7
 888              		@ sp needed
 889 005c 5DF8047B 		ldr	r7, [sp], #4
 890 0060 7047     		bx	lr
 891              	.L64:
 892 0062 00BF     		.align	2
 893              	.L63:
 894 0064 00000000 		.word	Tx1_inSize
 895 0068 00000000 		.word	Tx1_outIdx
 896 006c 00000000 		.word	Tx1_buffer
 897              		.cfi_endproc
 898              	.LFE11:
 900              		.text
 901              	.Letext0:
 902              		.file 2 "c:\\freescale\\kds_v3\\toolchain\\arm-none-eabi\\include\\machine\\_default_types.h"
 903              		.file 3 "c:\\freescale\\kds_v3\\toolchain\\arm-none-eabi\\include\\stdint.h"
 904              		.file 4 "../Generated_Code/Tx1.h"