   1              		.syntax unified
   2              		.cpu cortex-m4
   3              		.eabi_attribute 27, 3
   4              		.eabi_attribute 28, 1
   5              		.fpu fpv4-sp-d16
   6              		.eabi_attribute 20, 1
   7              		.eabi_attribute 21, 1
   8              		.eabi_attribute 23, 3
   9              		.eabi_attribute 24, 1
  10              		.eabi_attribute 25, 1
  11              		.eabi_attribute 26, 1
  12              		.eabi_attribute 30, 6
  13              		.eabi_attribute 34, 1
  14              		.eabi_attribute 18, 4
  15              		.thumb
  16              		.file	"USB1.c"
  17              		.text
  18              	.Ltext0:
  19              		.cfi_sections	.debug_frame
  20              		.section	.text.USB1_usb_int_dis,"ax",%progbits
  21              		.align	2
  22              		.global	USB1_usb_int_dis
  23              		.thumb
  24              		.thumb_func
  26              	USB1_usb_int_dis:
  27              	.LFB0:
  28              		.file 1 "../Generated_Code/USB1.c"
   1:../Generated_Code/USB1.c **** /* ###################################################################
   2:../Generated_Code/USB1.c **** **     This component module is generated by Processor Expert. Do not modify it.
   3:../Generated_Code/USB1.c **** **     Filename    : USB1.c
   4:../Generated_Code/USB1.c **** **     Project     : TEAM_Robot
   5:../Generated_Code/USB1.c **** **     Processor   : MK22FX512VLK12
   6:../Generated_Code/USB1.c **** **     Component   : FSL_USB_Stack
   7:../Generated_Code/USB1.c **** **     Version     : Component 01.051, Driver 01.00, CPU db: 3.00.000
   8:../Generated_Code/USB1.c **** **     Repository  : My Components
   9:../Generated_Code/USB1.c **** **     Compiler    : GNU C Compiler
  10:../Generated_Code/USB1.c **** **     Date/Time   : 2018-09-28, 15:03, # CodeGen: 0
  11:../Generated_Code/USB1.c **** **     Abstract    :
  12:../Generated_Code/USB1.c **** **         This component implements a wrapper to the FSL USB Stack.
  13:../Generated_Code/USB1.c **** **     Settings    :
  14:../Generated_Code/USB1.c **** **          Component name                                 : USB1
  15:../Generated_Code/USB1.c **** **          Freescale USB Stack Version                    : v4.1.1
  16:../Generated_Code/USB1.c **** **          SDK                                            : MCUC1
  17:../Generated_Code/USB1.c **** **          Device Class                                   : CDC Device
  18:../Generated_Code/USB1.c **** **          CDC Device                                     : Enabled
  19:../Generated_Code/USB1.c **** **            CDCDevice                                    : FSL_USB_CDC_Device
  20:../Generated_Code/USB1.c **** **          CDC Host                                       : Disabled
  21:../Generated_Code/USB1.c **** **          HID Keyboard Device                            : Disabled
  22:../Generated_Code/USB1.c **** **          HID Joystick Device                            : Disabled
  23:../Generated_Code/USB1.c **** **          HID Mouse Device                               : Disabled
  24:../Generated_Code/USB1.c **** **          MSD Device                                     : Disabled
  25:../Generated_Code/USB1.c **** **          MSD Host                                       : Disabled
  26:../Generated_Code/USB1.c **** **          DATA_BUFF_SIZE                                 : 64
  27:../Generated_Code/USB1.c **** **          Initialization                                 : 
  28:../Generated_Code/USB1.c **** **            Init USB Function                            : USB0_Init
  29:../Generated_Code/USB1.c **** **            Inherited USB Init                           : Disabled
  30:../Generated_Code/USB1.c **** **            Initialization                               : 
  31:../Generated_Code/USB1.c **** **              Use USB Stack Inititalization              : yes
  32:../Generated_Code/USB1.c **** **              Call Init Method                           : yes
  33:../Generated_Code/USB1.c **** **     Contents    :
  34:../Generated_Code/USB1.c **** **         Deinit - uint8_t USB1_Deinit(void);
  35:../Generated_Code/USB1.c **** **         Init   - uint8_t USB1_Init(void);
  36:../Generated_Code/USB1.c **** **
  37:../Generated_Code/USB1.c **** **     * Original USB Stack: (c) Copyright Freescale, all rights reserved, 2013-2015.
  38:../Generated_Code/USB1.c **** **      * See separate licensing terms.
  39:../Generated_Code/USB1.c **** **      * 
  40:../Generated_Code/USB1.c **** **      * Processor Expert port: Copyright (c) 2016, Erich Styger
  41:../Generated_Code/USB1.c **** **      * Web:         https://mcuoneclipse.com
  42:../Generated_Code/USB1.c **** **      * SourceForge: https://sourceforge.net/projects/mcuoneclipse
  43:../Generated_Code/USB1.c **** **      * Git:         https://github.com/ErichStyger/McuOnEclipse_PEx
  44:../Generated_Code/USB1.c **** **      * All rights reserved.
  45:../Generated_Code/USB1.c **** **      *
  46:../Generated_Code/USB1.c **** **      * Redistribution and use in source and binary forms, with or without modification,
  47:../Generated_Code/USB1.c **** **      * are permitted provided that the following conditions are met:
  48:../Generated_Code/USB1.c **** **      *
  49:../Generated_Code/USB1.c **** **      * - Redistributions of source code must retain the above copyright notice, this list
  50:../Generated_Code/USB1.c **** **      *   of conditions and the following disclaimer.
  51:../Generated_Code/USB1.c **** **      *
  52:../Generated_Code/USB1.c **** **      * - Redistributions in binary form must reproduce the above copyright notice, this
  53:../Generated_Code/USB1.c **** **      *   list of conditions and the following disclaimer in the documentation and/or
  54:../Generated_Code/USB1.c **** **      *   other materials provided with the distribution.
  55:../Generated_Code/USB1.c **** **      *
  56:../Generated_Code/USB1.c **** **      * THIS SOFTWARE IS PROVIDED BY THE COPYRIGHT HOLDERS AND CONTRIBUTORS "AS IS" AND
  57:../Generated_Code/USB1.c **** **      * ANY EXPRESS OR IMPLIED WARRANTIES, INCLUDING, BUT NOT LIMITED TO, THE IMPLIED
  58:../Generated_Code/USB1.c **** **      * WARRANTIES OF MERCHANTABILITY AND FITNESS FOR A PARTICULAR PURPOSE ARE
  59:../Generated_Code/USB1.c **** **      * DISCLAIMED. IN NO EVENT SHALL THE COPYRIGHT HOLDER OR CONTRIBUTORS BE LIABLE FOR
  60:../Generated_Code/USB1.c **** **      * ANY DIRECT, INDIRECT, INCIDENTAL, SPECIAL, EXEMPLARY, OR CONSEQUENTIAL DAMAGES
  61:../Generated_Code/USB1.c **** **      * (INCLUDING, BUT NOT LIMITED TO, PROCUREMENT OF SUBSTITUTE GOODS OR SERVICES;
  62:../Generated_Code/USB1.c **** **      * LOSS OF USE, DATA, OR PROFITS; OR BUSINESS INTERRUPTION) HOWEVER CAUSED AND ON
  63:../Generated_Code/USB1.c **** **      * ANY THEORY OF LIABILITY, WHETHER IN CONTRACT, STRICT LIABILITY, OR TORT
  64:../Generated_Code/USB1.c **** **      * (INCLUDING NEGLIGENCE OR OTHERWISE) ARISING IN ANY WAY OUT OF THE USE OF THIS
  65:../Generated_Code/USB1.c **** **      * SOFTWARE, EVEN IF ADVISED OF THE POSSIBILITY OF SUCH DAMAGE.
  66:../Generated_Code/USB1.c **** ** ###################################################################*/
  67:../Generated_Code/USB1.c **** /*!
  68:../Generated_Code/USB1.c **** ** @file USB1.c
  69:../Generated_Code/USB1.c **** ** @version 01.00
  70:../Generated_Code/USB1.c **** ** @brief
  71:../Generated_Code/USB1.c **** **         This component implements a wrapper to the FSL USB Stack.
  72:../Generated_Code/USB1.c **** */         
  73:../Generated_Code/USB1.c **** /*!
  74:../Generated_Code/USB1.c **** **  @addtogroup USB1_module USB1 module documentation
  75:../Generated_Code/USB1.c **** **  @{
  76:../Generated_Code/USB1.c **** */         
  77:../Generated_Code/USB1.c **** 
  78:../Generated_Code/USB1.c **** /* MODULE USB1. */
  79:../Generated_Code/USB1.c **** 
  80:../Generated_Code/USB1.c **** #include "USB1.h"
  81:../Generated_Code/USB1.c **** #include "derivative.h"     /* include peripheral declarations */
  82:../Generated_Code/USB1.c **** #include "types.h"          /* Contains User Defined Data Types */
  83:../Generated_Code/USB1.c **** 
  84:../Generated_Code/USB1.c **** /*
  85:../Generated_Code/USB1.c **** ** ===================================================================
  86:../Generated_Code/USB1.c **** **     Method      :  USB1_usb_int_dis (component FSL_USB_Stack)
  87:../Generated_Code/USB1.c **** **
  88:../Generated_Code/USB1.c **** **     Description :
  89:../Generated_Code/USB1.c **** **         Disables USB interrupts (if supported)
  90:../Generated_Code/USB1.c **** **         This method is internal. It is used by Processor Expert only.
  91:../Generated_Code/USB1.c **** ** ===================================================================
  92:../Generated_Code/USB1.c **** */
  93:../Generated_Code/USB1.c **** void USB1_usb_int_dis(void)
  94:../Generated_Code/USB1.c **** {
  29              		.loc 1 94 0
  30              		.cfi_startproc
  31              		@ args = 0, pretend = 0, frame = 0
  32              		@ frame_needed = 1, uses_anonymous_args = 0
  33              		@ link register save eliminated.
  34 0000 80B4     		push	{r7}
  35              		.cfi_def_cfa_offset 4
  36              		.cfi_offset 7, -4
  37 0002 00AF     		add	r7, sp, #0
  38              		.cfi_def_cfa_register 7
  95:../Generated_Code/USB1.c ****   /* Kinetis K22F120 */
  96:../Generated_Code/USB1.c **** #if MCUC1_CONFIG_SDK_VERSION_USED != MCUC1_CONFIG_SDK_PROCESSOR_EXPERT
  97:../Generated_Code/USB1.c ****   NVIC_DisableIRQ(USB0_IRQn);
  98:../Generated_Code/USB1.c **** #else
  99:../Generated_Code/USB1.c ****   NVICISER1 = (1<<21);    /* Disable interrupts from USB module (Interrupt Clear-Enable Register) *
  39              		.loc 1 99 0
  40 0004 034B     		ldr	r3, .L2
  41 0006 4FF40012 		mov	r2, #2097152
  42 000a 5A60     		str	r2, [r3, #4]
 100:../Generated_Code/USB1.c **** #endif
 101:../Generated_Code/USB1.c **** }
  43              		.loc 1 101 0
  44 000c BD46     		mov	sp, r7
  45              		@ sp needed
  46 000e 5DF8047B 		ldr	r7, [sp], #4
  47 0012 7047     		bx	lr
  48              	.L3:
  49              		.align	2
  50              	.L2:
  51 0014 00E100E0 		.word	-536813312
  52              		.cfi_endproc
  53              	.LFE0:
  55              		.section	.text.USB1_usb_int_en,"ax",%progbits
  56              		.align	2
  57              		.global	USB1_usb_int_en
  58              		.thumb
  59              		.thumb_func
  61              	USB1_usb_int_en:
  62              	.LFB1:
 102:../Generated_Code/USB1.c **** 
 103:../Generated_Code/USB1.c **** /*
 104:../Generated_Code/USB1.c **** ** ===================================================================
 105:../Generated_Code/USB1.c **** **     Method      :  USB1_usb_int_en (component FSL_USB_Stack)
 106:../Generated_Code/USB1.c **** **
 107:../Generated_Code/USB1.c **** **     Description :
 108:../Generated_Code/USB1.c **** **         Enables USB interrupts (if supported).
 109:../Generated_Code/USB1.c **** **         This method is internal. It is used by Processor Expert only.
 110:../Generated_Code/USB1.c **** ** ===================================================================
 111:../Generated_Code/USB1.c **** */
 112:../Generated_Code/USB1.c **** void USB1_usb_int_en(void)
 113:../Generated_Code/USB1.c **** {
  63              		.loc 1 113 0
  64              		.cfi_startproc
  65              		@ args = 0, pretend = 0, frame = 0
  66              		@ frame_needed = 1, uses_anonymous_args = 0
  67              		@ link register save eliminated.
  68 0000 80B4     		push	{r7}
  69              		.cfi_def_cfa_offset 4
  70              		.cfi_offset 7, -4
  71 0002 00AF     		add	r7, sp, #0
  72              		.cfi_def_cfa_register 7
 114:../Generated_Code/USB1.c ****   /* Kinetis K22F120 */
 115:../Generated_Code/USB1.c **** #if MCUC1_CONFIG_SDK_VERSION_USED != MCUC1_CONFIG_SDK_PROCESSOR_EXPERT
 116:../Generated_Code/USB1.c ****   NVIC_ClearPendingIRQ(USB0_IRQn);
 117:../Generated_Code/USB1.c ****   NVIC_EnableIRQ(USB0_IRQn);
 118:../Generated_Code/USB1.c **** #else
 119:../Generated_Code/USB1.c ****   NVICICPR1 = (1<<21);    /* Clear any pending interrupts on USB (Interrupt Clear-Pending Register)
  73              		.loc 1 119 0
  74 0004 064B     		ldr	r3, .L5
  75 0006 4FF40012 		mov	r2, #2097152
  76 000a C3F88421 		str	r2, [r3, #388]
 120:../Generated_Code/USB1.c ****   NVICISER1 = (1<<21);    /* Enable interrupts from USB module (Interrupt Set-Enable Register) */
  77              		.loc 1 120 0
  78 000e 044B     		ldr	r3, .L5
  79 0010 4FF40012 		mov	r2, #2097152
  80 0014 5A60     		str	r2, [r3, #4]
 121:../Generated_Code/USB1.c **** #endif
 122:../Generated_Code/USB1.c **** }
  81              		.loc 1 122 0
  82 0016 BD46     		mov	sp, r7
  83              		@ sp needed
  84 0018 5DF8047B 		ldr	r7, [sp], #4
  85 001c 7047     		bx	lr
  86              	.L6:
  87 001e 00BF     		.align	2
  88              	.L5:
  89 0020 00E100E0 		.word	-536813312
  90              		.cfi_endproc
  91              	.LFE1:
  93              		.section	.text.USB1_Deinit,"ax",%progbits
  94              		.align	2
  95              		.global	USB1_Deinit
  96              		.thumb
  97              		.thumb_func
  99              	USB1_Deinit:
 100              	.LFB2:
 123:../Generated_Code/USB1.c **** 
 124:../Generated_Code/USB1.c **** /*
 125:../Generated_Code/USB1.c **** ** ===================================================================
 126:../Generated_Code/USB1.c **** **     Method      :  USB1_Deinit (component FSL_USB_Stack)
 127:../Generated_Code/USB1.c **** **     Description :
 128:../Generated_Code/USB1.c **** **         Deinitializes the driver
 129:../Generated_Code/USB1.c **** **     Parameters  : None
 130:../Generated_Code/USB1.c **** **     Returns     :
 131:../Generated_Code/USB1.c **** **         ---             - Error code
 132:../Generated_Code/USB1.c **** ** ===================================================================
 133:../Generated_Code/USB1.c **** */
 134:../Generated_Code/USB1.c **** uint8_t USB1_Deinit(void)
 135:../Generated_Code/USB1.c **** {
 101              		.loc 1 135 0
 102              		.cfi_startproc
 103              		@ args = 0, pretend = 0, frame = 8
 104              		@ frame_needed = 1, uses_anonymous_args = 0
 105 0000 80B5     		push	{r7, lr}
 106              		.cfi_def_cfa_offset 8
 107              		.cfi_offset 7, -8
 108              		.cfi_offset 14, -4
 109 0002 82B0     		sub	sp, sp, #8
 110              		.cfi_def_cfa_offset 16
 111 0004 00AF     		add	r7, sp, #0
 112              		.cfi_def_cfa_register 7
 136:../Generated_Code/USB1.c ****   uint8_t err;
 137:../Generated_Code/USB1.c **** 
 138:../Generated_Code/USB1.c ****   USB1_usb_int_dis(); /* disable USB interrupts */
 113              		.loc 1 138 0
 114 0006 FFF7FEFF 		bl	USB1_usb_int_dis
 139:../Generated_Code/USB1.c ****   /* Initialize the USB interface */
 140:../Generated_Code/USB1.c ****   err = CDC1_Deinit();
 115              		.loc 1 140 0
 116 000a FFF7FEFF 		bl	CDC1_Deinit
 117 000e 0346     		mov	r3, r0
 118 0010 FB71     		strb	r3, [r7, #7]
 141:../Generated_Code/USB1.c ****   if(err != ERR_OK) {
 119              		.loc 1 141 0
 120 0012 FB79     		ldrb	r3, [r7, #7]	@ zero_extendqisi2
 121 0014 002B     		cmp	r3, #0
 122 0016 01D0     		beq	.L8
 142:../Generated_Code/USB1.c ****     /* Error deinitializing USB Class */
 143:../Generated_Code/USB1.c ****     return ERR_FAILED;
 123              		.loc 1 143 0
 124 0018 1B23     		movs	r3, #27
 125 001a 00E0     		b	.L9
 126              	.L8:
 144:../Generated_Code/USB1.c ****   }
 145:../Generated_Code/USB1.c ****   return ERR_OK;
 127              		.loc 1 145 0
 128 001c 0023     		movs	r3, #0
 129              	.L9:
 146:../Generated_Code/USB1.c **** }
 130              		.loc 1 146 0
 131 001e 1846     		mov	r0, r3
 132 0020 0837     		adds	r7, r7, #8
 133 0022 BD46     		mov	sp, r7
 134              		@ sp needed
 135 0024 80BD     		pop	{r7, pc}
 136              		.cfi_endproc
 137              	.LFE2:
 139 0026 00BF     		.section	.text.USB1_Init,"ax",%progbits
 140              		.align	2
 141              		.global	USB1_Init
 142              		.thumb
 143              		.thumb_func
 145              	USB1_Init:
 146              	.LFB3:
 147:../Generated_Code/USB1.c **** 
 148:../Generated_Code/USB1.c **** /*
 149:../Generated_Code/USB1.c **** ** ===================================================================
 150:../Generated_Code/USB1.c **** **     Method      :  USB1_Init (component FSL_USB_Stack)
 151:../Generated_Code/USB1.c **** **     Description :
 152:../Generated_Code/USB1.c **** **         Initializes the driver
 153:../Generated_Code/USB1.c **** **     Parameters  : None
 154:../Generated_Code/USB1.c **** **     Returns     :
 155:../Generated_Code/USB1.c **** **         ---             - Error code
 156:../Generated_Code/USB1.c **** ** ===================================================================
 157:../Generated_Code/USB1.c **** */
 158:../Generated_Code/USB1.c **** uint8_t USB1_Init(void)
 159:../Generated_Code/USB1.c **** {
 147              		.loc 1 159 0
 148              		.cfi_startproc
 149              		@ args = 0, pretend = 0, frame = 8
 150              		@ frame_needed = 1, uses_anonymous_args = 0
 151 0000 80B5     		push	{r7, lr}
 152              		.cfi_def_cfa_offset 8
 153              		.cfi_offset 7, -8
 154              		.cfi_offset 14, -4
 155 0002 82B0     		sub	sp, sp, #8
 156              		.cfi_def_cfa_offset 16
 157 0004 00AF     		add	r7, sp, #0
 158              		.cfi_def_cfa_register 7
 160:../Generated_Code/USB1.c ****   uint8_t err;
 161:../Generated_Code/USB1.c ****   void USB0_Init(void); /* no inherited init component, use Init function name from properties */
 162:../Generated_Code/USB1.c **** 
 163:../Generated_Code/USB1.c ****   USB0_Init(); /* no inherited init component, call Init function name from properties */
 159              		.loc 1 163 0
 160 0006 FFF7FEFF 		bl	USB0_Init
 164:../Generated_Code/USB1.c ****   /* Initialize the USB interface */
 165:../Generated_Code/USB1.c ****   err = CDC1_Init();
 161              		.loc 1 165 0
 162 000a FFF7FEFF 		bl	CDC1_Init
 163 000e 0346     		mov	r3, r0
 164 0010 FB71     		strb	r3, [r7, #7]
 166:../Generated_Code/USB1.c ****   if(err != ERR_OK) {
 165              		.loc 1 166 0
 166 0012 FB79     		ldrb	r3, [r7, #7]	@ zero_extendqisi2
 167 0014 002B     		cmp	r3, #0
 168 0016 01D0     		beq	.L11
 167:../Generated_Code/USB1.c ****     /* Error initializing USB Class */
 168:../Generated_Code/USB1.c ****     return ERR_FAILED;
 169              		.loc 1 168 0
 170 0018 1B23     		movs	r3, #27
 171 001a 02E0     		b	.L12
 172              	.L11:
 169:../Generated_Code/USB1.c ****   }
 170:../Generated_Code/USB1.c ****   USB1_usb_int_en();
 173              		.loc 1 170 0
 174 001c FFF7FEFF 		bl	USB1_usb_int_en
 171:../Generated_Code/USB1.c ****   return ERR_OK;
 175              		.loc 1 171 0
 176 0020 0023     		movs	r3, #0
 177              	.L12:
 172:../Generated_Code/USB1.c **** }
 178              		.loc 1 172 0
 179 0022 1846     		mov	r0, r3
 180 0024 0837     		adds	r7, r7, #8
 181 0026 BD46     		mov	sp, r7
 182              		@ sp needed
 183 0028 80BD     		pop	{r7, pc}
 184              		.cfi_endproc
 185              	.LFE3:
 187 002a 00BF     		.text
 188              	.Letext0:
 189              		.file 2 "c:\\freescale\\kds_v3\\toolchain\\arm-none-eabi\\include\\machine\\_default_types.h"
 190              		.file 3 "c:\\freescale\\kds_v3\\toolchain\\arm-none-eabi\\include\\stdint.h"
 191              		.file 4 "C:/INTRO_HS18/IntroAronAlex/TEAM_Robot/Static_Code/IO_Map/MK22F12.h"