   1              		.syntax unified
   2              		.cpu cortex-m4
   3              		.eabi_attribute 27, 3
   4              		.eabi_attribute 28, 1
   5              		.fpu fpv4-sp-d16
   6              		.eabi_attribute 20, 1
   7              		.eabi_attribute 21, 1
   8              		.eabi_attribute 23, 3
   9              		.eabi_attribute 24, 1
  10              		.eabi_attribute 25, 1
  11              		.eabi_attribute 26, 1
  12              		.eabi_attribute 30, 6
  13              		.eabi_attribute 34, 1
  14              		.eabi_attribute 18, 4
  15              		.thumb
  16              		.file	"Events.c"
  17              		.text
  18              	.Ltext0:
  19              		.cfi_sections	.debug_frame
  20              		.section	.rodata.TmDt1_DefaultTime,"a",%progbits
  21              		.align	2
  24              	TmDt1_DefaultTime:
  25 0000 11       		.byte	17
  26 0001 33       		.byte	51
  27 0002 1F       		.byte	31
  28 0003 00       		.byte	0
  29              		.section	.rodata.TmDt1_DefaultDate,"a",%progbits
  30              		.align	2
  33              	TmDt1_DefaultDate:
  34 0000 DC07     		.short	2012
  35 0002 07       		.byte	7
  36 0003 16       		.byte	22
  37              		.section	.text.Cpu_OnNMIINT,"ax",%progbits
  38              		.align	2
  39              		.global	Cpu_OnNMIINT
  40              		.thumb
  41              		.thumb_func
  43              	Cpu_OnNMIINT:
  44              	.LFB0:
  45              		.file 1 "../Sources/Events.c"
   1:../Sources/Events.c **** /* ###################################################################
   2:../Sources/Events.c **** **     Filename    : Events.c
   3:../Sources/Events.c **** **     Project     : INTRO_Robot_Master
   4:../Sources/Events.c **** **     Processor   : MK22FX512VLQ12
   5:../Sources/Events.c **** **     Component   : Events
   6:../Sources/Events.c **** **     Version     : Driver 01.00
   7:../Sources/Events.c **** **     Compiler    : GNU C Compiler
   8:../Sources/Events.c **** **     Date/Time   : 2016-09-20, 21:03, # CodeGen: 0
   9:../Sources/Events.c **** **     Abstract    :
  10:../Sources/Events.c **** **         This is user's event module.
  11:../Sources/Events.c **** **         Put your event handler code here.
  12:../Sources/Events.c **** **     Contents    :
  13:../Sources/Events.c **** **         Cpu_OnNMIINT - void Cpu_OnNMIINT(void);
  14:../Sources/Events.c **** **
  15:../Sources/Events.c **** ** ###################################################################*/
  16:../Sources/Events.c **** /*!
  17:../Sources/Events.c **** ** @file Events.c
  18:../Sources/Events.c **** ** @version 01.00
  19:../Sources/Events.c **** ** @brief
  20:../Sources/Events.c **** **         This is user's event module.
  21:../Sources/Events.c **** **         Put your event handler code here.
  22:../Sources/Events.c **** */         
  23:../Sources/Events.c **** /*!
  24:../Sources/Events.c **** **  @addtogroup Events_module Events module documentation
  25:../Sources/Events.c **** **  @{
  26:../Sources/Events.c **** */         
  27:../Sources/Events.c **** /* MODULE Events */
  28:../Sources/Events.c **** 
  29:../Sources/Events.c **** #include "Cpu.h"
  30:../Sources/Events.c **** #include "Events.h"
  31:../Sources/Events.c **** 
  32:../Sources/Events.c **** #ifdef __cplusplus
  33:../Sources/Events.c **** extern "C" {
  34:../Sources/Events.c **** #endif 
  35:../Sources/Events.c **** 
  36:../Sources/Events.c **** 
  37:../Sources/Events.c **** /* User includes (#include below this line is not maintained by Processor Expert) */
  38:../Sources/Events.c **** /*
  39:../Sources/Events.c **** ** ===================================================================
  40:../Sources/Events.c **** **     Event       :  Cpu_OnNMIINT (module Events)
  41:../Sources/Events.c **** **
  42:../Sources/Events.c **** **     Component   :  Cpu [MK22FN1M0LQ12]
  43:../Sources/Events.c **** */
  44:../Sources/Events.c **** /*!
  45:../Sources/Events.c **** **     @brief
  46:../Sources/Events.c **** **         This event is called when the Non maskable interrupt had
  47:../Sources/Events.c **** **         occurred. This event is automatically enabled when the [NMI
  48:../Sources/Events.c **** **         interrupt] property is set to 'Enabled'.
  49:../Sources/Events.c **** */
  50:../Sources/Events.c **** /* ===================================================================*/
  51:../Sources/Events.c **** void Cpu_OnNMIINT(void)
  52:../Sources/Events.c **** {
  46              		.loc 1 52 0
  47              		.cfi_startproc
  48              		@ args = 0, pretend = 0, frame = 0
  49              		@ frame_needed = 1, uses_anonymous_args = 0
  50              		@ link register save eliminated.
  51 0000 80B4     		push	{r7}
  52              		.cfi_def_cfa_offset 4
  53              		.cfi_offset 7, -4
  54 0002 00AF     		add	r7, sp, #0
  55              		.cfi_def_cfa_register 7
  53:../Sources/Events.c ****   /* Write your code here ... */
  54:../Sources/Events.c **** }
  56              		.loc 1 54 0
  57 0004 BD46     		mov	sp, r7
  58              		@ sp needed
  59 0006 5DF8047B 		ldr	r7, [sp], #4
  60 000a 7047     		bx	lr
  61              		.cfi_endproc
  62              	.LFE0:
  64              		.section	.text.QuadInt_OnInterrupt,"ax",%progbits
  65              		.align	2
  66              		.global	QuadInt_OnInterrupt
  67              		.thumb
  68              		.thumb_func
  70              	QuadInt_OnInterrupt:
  71              	.LFB1:
  55:../Sources/Events.c **** 
  56:../Sources/Events.c **** 
  57:../Sources/Events.c **** 
  58:../Sources/Events.c **** /*
  59:../Sources/Events.c **** ** ===================================================================
  60:../Sources/Events.c **** **     Event       :  QuadInt_OnInterrupt (module Events)
  61:../Sources/Events.c **** **
  62:../Sources/Events.c **** **     Component   :  QuadInt [TimerInt]
  63:../Sources/Events.c **** **     Description :
  64:../Sources/Events.c **** **         When a timer interrupt occurs this event is called (only
  65:../Sources/Events.c **** **         when the component is enabled - <Enable> and the events are
  66:../Sources/Events.c **** **         enabled - <EnableEvent>). This event is enabled only if a
  67:../Sources/Events.c **** **         <interrupt service/event> is enabled.
  68:../Sources/Events.c **** **     Parameters  : None
  69:../Sources/Events.c **** **     Returns     : Nothing
  70:../Sources/Events.c **** ** ===================================================================
  71:../Sources/Events.c **** */
  72:../Sources/Events.c **** void QuadInt_OnInterrupt(void)
  73:../Sources/Events.c **** {
  72              		.loc 1 73 0
  73              		.cfi_startproc
  74              		@ args = 0, pretend = 0, frame = 0
  75              		@ frame_needed = 1, uses_anonymous_args = 0
  76              		@ link register save eliminated.
  77 0000 80B4     		push	{r7}
  78              		.cfi_def_cfa_offset 4
  79              		.cfi_offset 7, -4
  80 0002 00AF     		add	r7, sp, #0
  81              		.cfi_def_cfa_register 7
  74:../Sources/Events.c ****   /* Write your code here ... */
  75:../Sources/Events.c **** }
  82              		.loc 1 75 0
  83 0004 BD46     		mov	sp, r7
  84              		@ sp needed
  85 0006 5DF8047B 		ldr	r7, [sp], #4
  86 000a 7047     		bx	lr
  87              		.cfi_endproc
  88              	.LFE1:
  90              		.text
  91              	.Letext0:
  92              		.file 2 "c:\\freescale\\kds_v3\\toolchain\\arm-none-eabi\\include\\machine\\_default_types.h"
  93              		.file 3 "c:\\freescale\\kds_v3\\toolchain\\arm-none-eabi\\include\\stdint.h"
  94              		.file 4 "C:/INTRO_HS18/IntroAronAlex/TEAM_Robot/Generated_Code/TmDt1.h"